; Listing generated by Microsoft (R) Optimizing Compiler Version 19.22.27905.0 

	TITLE	C:\TouchGFXProjects\Dashboard\TouchGFX\generated\images\src\__designer\Dark_ProgressIndicators_bg_large_circle_indicator_bg_line_full.cpp
	.686P
	.XMM
	include listing.inc
	.model	flat

INCLUDELIB MSVCRTD
INCLUDELIB OLDNAMES

PUBLIC	?_dark_progressindicators_bg_large_circle_indicator_bg_line_full@@3QBEB ; _dark_progressindicators_bg_large_circle_indicator_bg_line_full
CONST	SEGMENT
?_dark_progressindicators_bg_large_circle_indicator_bg_line_full@@3QBEB DB 00H ; _dark_progressindicators_bg_large_circle_indicator_bg_line_full
	DB	00H
	DB	00H
	DB	00H
	DB	00H
	DB	00H
	DB	00H
	DB	00H
	DB	00H
	DB	00H
	DB	00H
	DB	00H
	DB	00H
	DB	00H
	DB	00H
	DB	00H
	DB	00H
	DB	00H
	DB	00H
	DB	00H
	DB	00H
	DB	00H
	DB	00H
	DB	00H
	DB	00H
	DB	00H
	DB	00H
	DB	00H
	DB	00H
	DB	00H
	DB	00H
	DB	00H
	DB	00H
	DB	00H
	DB	00H
	DB	00H
	DB	00H
	DB	00H
	DB	00H
	DB	00H
	DB	00H
	DB	00H
	DB	00H
	DB	00H
	DB	00H
	DB	00H
	DB	00H
	DB	00H
	DB	00H
	DB	00H
	DB	00H
	DB	00H
	DB	00H
	DB	00H
	DB	00H
	DB	00H
	DB	00H
	DB	00H
	DB	00H
	DB	00H
	DB	00H
	DB	00H
	DB	00H
	DB	00H
	DB	00H
	DB	00H
	DB	00H
	DB	00H
	DB	00H
	DB	00H
	DB	00H
	DB	00H
	DB	00H
	DB	00H
	DB	00H
	DB	00H
	DB	00H
	DB	00H
	DB	00H
	DB	00H
	DB	00H
	DB	00H
	DB	00H
	DB	00H
	DB	00H
	DB	00H
	DB	00H
	DB	00H
	DB	00H
	DB	00H
	DB	00H
	DB	00H
	DB	00H
	DB	00H
	DB	00H
	DB	00H
	DB	00H
	DB	00H
	DB	00H
	DB	00H
	DB	00H
	DB	00H
	DB	00H
	DB	00H
	DB	00H
	DB	00H
	DB	00H
	DB	00H
	DB	00H
	DB	00H
	DB	00H
	DB	00H
	DB	00H
	DB	00H
	DB	00H
	DB	00H
	DB	00H
	DB	00H
	DB	00H
	DB	00H
	DB	00H
	DB	00H
	DB	00H
	DB	00H
	DB	00H
	DB	00H
	DB	00H
	DB	00H
	DB	00H
	DB	00H
	DB	00H
	DB	00H
	DB	00H
	DB	00H
	DB	00H
	DB	00H
	DB	00H
	DB	00H
	DB	00H
	DB	00H
	DB	00H
	DB	00H
	DB	00H
	DB	00H
	DB	00H
	DB	00H
	DB	00H
	DB	00H
	DB	00H
	DB	00H
	DB	00H
	DB	00H
	DB	00H
	DB	00H
	DB	00H
	DB	00H
	DB	00H
	DB	00H
	DB	00H
	DB	00H
	DB	00H
	DB	00H
	DB	00H
	DB	00H
	DB	00H
	DB	00H
	DB	00H
	DB	00H
	DB	00H
	DB	00H
	DB	00H
	DB	00H
	DB	00H
	DB	00H
	DB	00H
	DB	00H
	DB	00H
	DB	00H
	DB	00H
	DB	00H
	DB	00H
	DB	00H
	DB	00H
	DB	00H
	DB	00H
	DB	00H
	DB	00H
	DB	00H
	DB	00H
	DB	00H
	DB	00H
	DB	00H
	DB	00H
	DB	00H
	DB	00H
	DB	00H
	DB	00H
	DB	00H
	DB	00H
	DB	00H
	DB	00H
	DB	00H
	DB	00H
	DB	00H
	DB	00H
	DB	00H
	DB	00H
	DB	00H
	DB	00H
	DB	00H
	DB	00H
	DB	00H
	DB	00H
	DB	00H
	DB	00H
	DB	00H
	DB	00H
	DB	00H
	DB	00H
	DB	00H
	DB	00H
	DB	00H
	DB	00H
	DB	00H
	DB	00H
	DB	00H
	DB	00H
	DB	00H
	DB	00H
	DB	00H
	DB	00H
	DB	00H
	DB	00H
	DB	00H
	DB	00H
	DB	00H
	DB	00H
	DB	00H
	DB	00H
	DB	00H
	DB	00H
	DB	00H
	DB	00H
	DB	00H
	DB	00H
	DB	00H
	DB	00H
	DB	00H
	DB	00H
	DB	00H
	DB	00H
	DB	00H
	DB	00H
	DB	00H
	DB	00H
	DB	00H
	DB	00H
	DB	00H
	DB	00H
	DB	00H
	DB	00H
	DB	00H
	DB	00H
	DB	00H
	DB	00H
	DB	00H
	DB	00H
	DB	00H
	DB	00H
	DB	00H
	DB	00H
	DB	00H
	DB	00H
	DB	00H
	DB	00H
	DB	00H
	DB	00H
	DB	00H
	DB	00H
	DB	00H
	DB	00H
	DB	00H
	DB	00H
	DB	00H
	DB	00H
	DB	00H
	DB	00H
	DB	00H
	DB	00H
	DB	00H
	DB	00H
	DB	00H
	DB	00H
	DB	00H
	DB	00H
	DB	00H
	DB	00H
	DB	00H
	DB	00H
	DB	00H
	DB	00H
	DB	00H
	DB	00H
	DB	00H
	DB	00H
	DB	00H
	DB	00H
	DB	00H
	DB	00H
	DB	00H
	DB	00H
	DB	00H
	DB	066H
	DB	066H
	DB	066H
	DB	05H
	DB	057H
	DB	057H
	DB	057H
	DB	023H
	DB	058H
	DB	058H
	DB	058H
	DB	043H
	DB	055H
	DB	055H
	DB	055H
	DB	063H
	DB	056H
	DB	056H
	DB	056H
	DB	082H
	DB	056H
	DB	056H
	DB	056H
	DB	097H
	DB	056H
	DB	056H
	DB	056H
	DB	0acH
	DB	055H
	DB	055H
	DB	055H
	DB	0bfH
	DB	056H
	DB	056H
	DB	056H
	DB	0d3H
	DB	056H
	DB	056H
	DB	056H
	DB	0deH
	DB	056H
	DB	056H
	DB	056H
	DB	0eeH
	DB	056H
	DB	056H
	DB	056H
	DB	0eeH
	DB	056H
	DB	056H
	DB	056H
	DB	0f4H
	DB	056H
	DB	056H
	DB	056H
	DB	0ffH
	DB	056H
	DB	056H
	DB	056H
	DB	0ffH
	DB	056H
	DB	056H
	DB	056H
	DB	0f4H
	DB	056H
	DB	056H
	DB	056H
	DB	0eeH
	DB	056H
	DB	056H
	DB	056H
	DB	0eeH
	DB	056H
	DB	056H
	DB	056H
	DB	0deH
	DB	056H
	DB	056H
	DB	056H
	DB	0d2H
	DB	055H
	DB	055H
	DB	055H
	DB	0bfH
	DB	056H
	DB	056H
	DB	056H
	DB	0acH
	DB	056H
	DB	056H
	DB	056H
	DB	097H
	DB	057H
	DB	057H
	DB	057H
	DB	081H
	DB	055H
	DB	055H
	DB	055H
	DB	063H
	DB	055H
	DB	055H
	DB	055H
	DB	042H
	DB	053H
	DB	053H
	DB	053H
	DB	022H
	DB	066H
	DB	066H
	DB	066H
	DB	05H
	DB	00H
	DB	00H
	DB	00H
	DB	00H
	DB	00H
	DB	00H
	DB	00H
	DB	00H
	DB	00H
	DB	00H
	DB	00H
	DB	00H
	DB	00H
	DB	00H
	DB	00H
	DB	00H
	DB	00H
	DB	00H
	DB	00H
	DB	00H
	DB	00H
	DB	00H
	DB	00H
	DB	00H
	DB	00H
	DB	00H
	DB	00H
	DB	00H
	DB	00H
	DB	00H
	DB	00H
	DB	00H
	DB	00H
	DB	00H
	DB	00H
	DB	00H
	DB	00H
	DB	00H
	DB	00H
	DB	00H
	DB	00H
	DB	00H
	DB	00H
	DB	00H
	DB	00H
	DB	00H
	DB	00H
	DB	00H
	DB	00H
	DB	00H
	DB	00H
	DB	00H
	DB	00H
	DB	00H
	DB	00H
	DB	00H
	DB	00H
	DB	00H
	DB	00H
	DB	00H
	DB	00H
	DB	00H
	DB	00H
	DB	00H
	DB	00H
	DB	00H
	DB	00H
	DB	00H
	DB	00H
	DB	00H
	DB	00H
	DB	00H
	DB	00H
	DB	00H
	DB	00H
	DB	00H
	DB	00H
	DB	00H
	DB	00H
	DB	00H
	DB	00H
	DB	00H
	DB	00H
	DB	00H
	DB	00H
	DB	00H
	DB	00H
	DB	00H
	DB	00H
	DB	00H
	DB	00H
	DB	00H
	DB	00H
	DB	00H
	DB	00H
	DB	00H
	DB	00H
	DB	00H
	DB	00H
	DB	00H
	DB	00H
	DB	00H
	DB	00H
	DB	00H
	DB	00H
	DB	00H
	DB	00H
	DB	00H
	DB	00H
	DB	00H
	DB	00H
	DB	00H
	DB	00H
	DB	00H
	DB	00H
	DB	00H
	DB	00H
	DB	00H
	DB	00H
	DB	00H
	DB	00H
	DB	00H
	DB	00H
	DB	00H
	DB	00H
	DB	00H
	DB	00H
	DB	00H
	DB	00H
	DB	00H
	DB	00H
	DB	00H
	DB	00H
	DB	00H
	DB	00H
	DB	00H
	DB	00H
	DB	00H
	DB	00H
	DB	00H
	DB	00H
	DB	00H
	DB	00H
	DB	00H
	DB	00H
	DB	00H
	DB	00H
	DB	00H
	DB	00H
	DB	00H
	DB	00H
	DB	00H
	DB	00H
	DB	00H
	DB	00H
	DB	00H
	DB	00H
	DB	00H
	DB	00H
	DB	00H
	DB	00H
	DB	00H
	DB	00H
	DB	00H
	DB	00H
	DB	00H
	DB	00H
	DB	00H
	DB	00H
	DB	00H
	DB	00H
	DB	00H
	DB	00H
	DB	00H
	DB	00H
	DB	00H
	DB	00H
	DB	00H
	DB	00H
	DB	00H
	DB	00H
	DB	00H
	DB	00H
	DB	00H
	DB	00H
	DB	00H
	DB	00H
	DB	00H
	DB	00H
	DB	00H
	DB	00H
	DB	00H
	DB	00H
	DB	00H
	DB	00H
	DB	00H
	DB	00H
	DB	00H
	DB	00H
	DB	00H
	DB	00H
	DB	00H
	DB	00H
	DB	00H
	DB	00H
	DB	00H
	DB	00H
	DB	00H
	DB	00H
	DB	00H
	DB	00H
	DB	00H
	DB	00H
	DB	00H
	DB	00H
	DB	00H
	DB	00H
	DB	00H
	DB	00H
	DB	00H
	DB	00H
	DB	00H
	DB	00H
	DB	00H
	DB	00H
	DB	00H
	DB	00H
	DB	00H
	DB	00H
	DB	00H
	DB	00H
	DB	00H
	DB	00H
	DB	00H
	DB	00H
	DB	00H
	DB	00H
	DB	00H
	DB	00H
	DB	00H
	DB	00H
	DB	00H
	DB	00H
	DB	00H
	DB	00H
	DB	00H
	DB	00H
	DB	00H
	DB	00H
	DB	00H
	DB	00H
	DB	00H
	DB	00H
	DB	00H
	DB	00H
	DB	00H
	DB	00H
	DB	00H
	DB	00H
	DB	00H
	DB	00H
	DB	00H
	DB	00H
	DB	00H
	DB	00H
	DB	00H
	DB	00H
	DB	00H
	DB	00H
	DB	00H
	DB	00H
	DB	00H
	DB	00H
	DB	00H
	DB	00H
	DB	00H
	DB	00H
	DB	00H
	DB	00H
	DB	00H
	DB	00H
	DB	00H
	DB	00H
	DB	00H
	DB	00H
	DB	00H
	DB	00H
	DB	00H
	DB	00H
	DB	00H
	DB	00H
	DB	00H
	DB	00H
	DB	00H
	DB	00H
	DB	00H
	DB	00H
	DB	00H
	DB	00H
	DB	00H
	DB	00H
	DB	00H
	DB	00H
	DB	00H
	DB	00H
	DB	00H
	DB	00H
	DB	00H
	DB	00H
	DB	00H
	DB	00H
	DB	00H
	DB	00H
	DB	00H
	DB	00H
	DB	00H
	DB	00H
	DB	00H
	DB	00H
	DB	00H
	DB	00H
	DB	00H
	DB	00H
	DB	00H
	DB	00H
	DB	00H
	DB	00H
	DB	00H
	DB	00H
	DB	00H
	DB	00H
	DB	00H
	DB	00H
	DB	00H
	DB	00H
	DB	00H
	DB	00H
	DB	00H
	DB	00H
	DB	00H
	DB	00H
	DB	00H
	DB	00H
	DB	00H
	DB	00H
	DB	00H
	DB	00H
	DB	00H
	DB	00H
	DB	00H
	DB	00H
	DB	00H
	DB	00H
	DB	00H
	DB	00H
	DB	00H
	DB	00H
	DB	00H
	DB	00H
	DB	00H
	DB	00H
	DB	00H
	DB	00H
	DB	00H
	DB	00H
	DB	00H
	DB	00H
	DB	00H
	DB	00H
	DB	00H
	DB	00H
	DB	00H
	DB	00H
	DB	00H
	DB	00H
	DB	00H
	DB	00H
	DB	00H
	DB	00H
	DB	00H
	DB	00H
	DB	00H
	DB	00H
	DB	00H
	DB	00H
	DB	00H
	DB	00H
	DB	00H
	DB	00H
	DB	00H
	DB	00H
	DB	00H
	DB	00H
	DB	00H
	DB	00H
	DB	00H
	DB	00H
	DB	00H
	DB	00H
	DB	00H
	DB	00H
	DB	00H
	DB	00H
	DB	00H
	DB	00H
	DB	00H
	DB	00H
	DB	00H
	DB	00H
	DB	00H
	DB	00H
	DB	00H
	DB	00H
	DB	00H
	DB	00H
	DB	00H
	DB	00H
	DB	00H
	DB	00H
	DB	00H
	DB	00H
	DB	00H
	DB	00H
	DB	00H
	DB	00H
	DB	00H
	DB	00H
	DB	00H
	DB	00H
	DB	00H
	DB	00H
	DB	00H
	DB	00H
	DB	00H
	DB	00H
	DB	00H
	DB	00H
	DB	00H
	DB	00H
	DB	00H
	DB	00H
	DB	00H
	DB	00H
	DB	00H
	DB	00H
	DB	00H
	DB	00H
	DB	00H
	DB	00H
	DB	00H
	DB	00H
	DB	00H
	DB	00H
	DB	00H
	DB	00H
	DB	00H
	DB	00H
	DB	00H
	DB	00H
	DB	00H
	DB	00H
	DB	00H
	DB	00H
	DB	00H
	DB	00H
	DB	00H
	DB	00H
	DB	00H
	DB	00H
	DB	00H
	DB	00H
	DB	00H
	DB	00H
	DB	00H
	DB	00H
	DB	00H
	DB	00H
	DB	00H
	DB	00H
	DB	00H
	DB	00H
	DB	00H
	DB	00H
	DB	00H
	DB	00H
	DB	00H
	DB	00H
	DB	00H
	DB	00H
	DB	00H
	DB	00H
	DB	00H
	DB	00H
	DB	00H
	DB	00H
	DB	00H
	DB	00H
	DB	00H
	DB	00H
	DB	00H
	DB	00H
	DB	00H
	DB	00H
	DB	00H
	DB	00H
	DB	00H
	DB	00H
	DB	00H
	DB	00H
	DB	00H
	DB	00H
	DB	00H
	DB	00H
	DB	00H
	DB	00H
	DB	00H
	DB	00H
	DB	00H
	DB	00H
	DB	00H
	DB	00H
	DB	00H
	DB	00H
	DB	00H
	DB	00H
	DB	00H
	DB	00H
	DB	00H
	DB	00H
	DB	00H
	DB	00H
	DB	00H
	DB	00H
	DB	00H
	DB	00H
	DB	00H
	DB	00H
	DB	00H
	DB	00H
	DB	00H
	DB	00H
	DB	00H
	DB	00H
	DB	00H
	DB	00H
	DB	00H
	DB	00H
	DB	00H
	DB	00H
	DB	00H
	DB	00H
	DB	00H
	DB	00H
	DB	00H
	DB	00H
	DB	00H
	DB	00H
	DB	00H
	DB	00H
	DB	00H
	DB	00H
	DB	00H
	DB	00H
	DB	00H
	DB	00H
	DB	00H
	DB	00H
	DB	00H
	DB	00H
	DB	00H
	DB	00H
	DB	00H
	DB	00H
	DB	00H
	DB	00H
	DB	00H
	DB	00H
	DB	00H
	DB	00H
	DB	00H
	DB	00H
	DB	00H
	DB	00H
	DB	00H
	DB	00H
	DB	00H
	DB	00H
	DB	00H
	DB	00H
	DB	00H
	DB	00H
	DB	00H
	DB	00H
	DB	00H
	DB	00H
	DB	00H
	DB	00H
	DB	00H
	DB	00H
	DB	00H
	DB	00H
	DB	00H
	DB	00H
	DB	00H
	DB	057H
	DB	057H
	DB	057H
	DB	023H
	DB	056H
	DB	056H
	DB	056H
	DB	053H
	DB	056H
	DB	056H
	DB	056H
	DB	080H
	DB	055H
	DB	055H
	DB	055H
	DB	0adH
	DB	056H
	DB	056H
	DB	056H
	DB	0dcH
	DB	056H
	DB	056H
	DB	056H
	DB	0fcH
	DB	056H
	DB	056H
	DB	056H
	DB	0ffH
	DB	056H
	DB	056H
	DB	056H
	DB	0ffH
	DB	056H
	DB	056H
	DB	056H
	DB	0ffH
	DB	056H
	DB	056H
	DB	056H
	DB	0ffH
	DB	056H
	DB	056H
	DB	056H
	DB	0ffH
	DB	056H
	DB	056H
	DB	056H
	DB	0ffH
	DB	056H
	DB	056H
	DB	056H
	DB	0ffH
	DB	056H
	DB	056H
	DB	056H
	DB	0ffH
	DB	056H
	DB	056H
	DB	056H
	DB	0ffH
	DB	056H
	DB	056H
	DB	056H
	DB	0ffH
	DB	056H
	DB	056H
	DB	056H
	DB	0ffH
	DB	056H
	DB	056H
	DB	056H
	DB	0ffH
	DB	056H
	DB	056H
	DB	056H
	DB	0ffH
	DB	056H
	DB	056H
	DB	056H
	DB	0ffH
	DB	056H
	DB	056H
	DB	056H
	DB	0ffH
	DB	056H
	DB	056H
	DB	056H
	DB	0ffH
	DB	056H
	DB	056H
	DB	056H
	DB	0ffH
	DB	056H
	DB	056H
	DB	056H
	DB	0ffH
	DB	056H
	DB	056H
	DB	056H
	DB	0ffH
	DB	056H
	DB	056H
	DB	056H
	DB	0ffH
	DB	056H
	DB	056H
	DB	056H
	DB	0ffH
	DB	056H
	DB	056H
	DB	056H
	DB	0ffH
	DB	056H
	DB	056H
	DB	056H
	DB	0ffH
	DB	056H
	DB	056H
	DB	056H
	DB	0ffH
	DB	056H
	DB	056H
	DB	056H
	DB	0ffH
	DB	056H
	DB	056H
	DB	056H
	DB	0ffH
	DB	056H
	DB	056H
	DB	056H
	DB	0fcH
	DB	056H
	DB	056H
	DB	056H
	DB	0dbH
	DB	056H
	DB	056H
	DB	056H
	DB	0acH
	DB	056H
	DB	056H
	DB	056H
	DB	07fH
	DB	056H
	DB	056H
	DB	056H
	DB	053H
	DB	057H
	DB	057H
	DB	057H
	DB	023H
	DB	00H
	DB	00H
	DB	00H
	DB	00H
	DB	00H
	DB	00H
	DB	00H
	DB	00H
	DB	00H
	DB	00H
	DB	00H
	DB	00H
	DB	00H
	DB	00H
	DB	00H
	DB	00H
	DB	00H
	DB	00H
	DB	00H
	DB	00H
	DB	00H
	DB	00H
	DB	00H
	DB	00H
	DB	00H
	DB	00H
	DB	00H
	DB	00H
	DB	00H
	DB	00H
	DB	00H
	DB	00H
	DB	00H
	DB	00H
	DB	00H
	DB	00H
	DB	00H
	DB	00H
	DB	00H
	DB	00H
	DB	00H
	DB	00H
	DB	00H
	DB	00H
	DB	00H
	DB	00H
	DB	00H
	DB	00H
	DB	00H
	DB	00H
	DB	00H
	DB	00H
	DB	00H
	DB	00H
	DB	00H
	DB	00H
	DB	00H
	DB	00H
	DB	00H
	DB	00H
	DB	00H
	DB	00H
	DB	00H
	DB	00H
	DB	00H
	DB	00H
	DB	00H
	DB	00H
	DB	00H
	DB	00H
	DB	00H
	DB	00H
	DB	00H
	DB	00H
	DB	00H
	DB	00H
	DB	00H
	DB	00H
	DB	00H
	DB	00H
	DB	00H
	DB	00H
	DB	00H
	DB	00H
	DB	00H
	DB	00H
	DB	00H
	DB	00H
	DB	00H
	DB	00H
	DB	00H
	DB	00H
	DB	00H
	DB	00H
	DB	00H
	DB	00H
	DB	00H
	DB	00H
	DB	00H
	DB	00H
	DB	00H
	DB	00H
	DB	00H
	DB	00H
	DB	00H
	DB	00H
	DB	00H
	DB	00H
	DB	00H
	DB	00H
	DB	00H
	DB	00H
	DB	00H
	DB	00H
	DB	00H
	DB	00H
	DB	00H
	DB	00H
	DB	00H
	DB	00H
	DB	00H
	DB	00H
	DB	00H
	DB	00H
	DB	00H
	DB	00H
	DB	00H
	DB	00H
	DB	00H
	DB	00H
	DB	00H
	DB	00H
	DB	00H
	DB	00H
	DB	00H
	DB	00H
	DB	00H
	DB	00H
	DB	00H
	DB	00H
	DB	00H
	DB	00H
	DB	00H
	DB	00H
	DB	00H
	DB	00H
	DB	00H
	DB	00H
	DB	00H
	DB	00H
	DB	00H
	DB	00H
	DB	00H
	DB	00H
	DB	00H
	DB	00H
	DB	00H
	DB	00H
	DB	00H
	DB	00H
	DB	00H
	DB	00H
	DB	00H
	DB	00H
	DB	00H
	DB	00H
	DB	00H
	DB	00H
	DB	00H
	DB	00H
	DB	00H
	DB	00H
	DB	00H
	DB	00H
	DB	00H
	DB	00H
	DB	00H
	DB	00H
	DB	00H
	DB	00H
	DB	00H
	DB	00H
	DB	00H
	DB	00H
	DB	00H
	DB	00H
	DB	00H
	DB	00H
	DB	00H
	DB	00H
	DB	00H
	DB	00H
	DB	00H
	DB	00H
	DB	00H
	DB	00H
	DB	00H
	DB	00H
	DB	00H
	DB	00H
	DB	00H
	DB	00H
	DB	00H
	DB	00H
	DB	00H
	DB	00H
	DB	00H
	DB	00H
	DB	00H
	DB	00H
	DB	00H
	DB	00H
	DB	00H
	DB	00H
	DB	00H
	DB	00H
	DB	00H
	DB	00H
	DB	00H
	DB	00H
	DB	00H
	DB	00H
	DB	00H
	DB	00H
	DB	00H
	DB	00H
	DB	00H
	DB	00H
	DB	00H
	DB	00H
	DB	00H
	DB	00H
	DB	00H
	DB	00H
	DB	00H
	DB	00H
	DB	00H
	DB	00H
	DB	00H
	DB	00H
	DB	00H
	DB	00H
	DB	00H
	DB	00H
	DB	00H
	DB	00H
	DB	00H
	DB	00H
	DB	00H
	DB	00H
	DB	00H
	DB	00H
	DB	00H
	DB	00H
	DB	00H
	DB	00H
	DB	00H
	DB	00H
	DB	00H
	DB	00H
	DB	00H
	DB	00H
	DB	00H
	DB	00H
	DB	00H
	DB	00H
	DB	00H
	DB	00H
	DB	00H
	DB	00H
	DB	00H
	DB	00H
	DB	00H
	DB	00H
	DB	00H
	DB	00H
	DB	00H
	DB	00H
	DB	00H
	DB	00H
	DB	00H
	DB	00H
	DB	00H
	DB	00H
	DB	00H
	DB	00H
	DB	00H
	DB	00H
	DB	00H
	DB	00H
	DB	00H
	DB	00H
	DB	00H
	DB	00H
	DB	00H
	DB	00H
	DB	00H
	DB	00H
	DB	00H
	DB	00H
	DB	00H
	DB	00H
	DB	00H
	DB	00H
	DB	00H
	DB	00H
	DB	00H
	DB	00H
	DB	00H
	DB	00H
	DB	00H
	DB	00H
	DB	00H
	DB	00H
	DB	00H
	DB	00H
	DB	00H
	DB	00H
	DB	00H
	DB	00H
	DB	00H
	DB	00H
	DB	00H
	DB	00H
	DB	00H
	DB	00H
	DB	00H
	DB	00H
	DB	00H
	DB	00H
	DB	00H
	DB	00H
	DB	00H
	DB	00H
	DB	00H
	DB	00H
	DB	00H
	DB	00H
	DB	00H
	DB	00H
	DB	00H
	DB	00H
	DB	00H
	DB	00H
	DB	00H
	DB	00H
	DB	00H
	DB	00H
	DB	00H
	DB	00H
	DB	00H
	DB	00H
	DB	00H
	DB	00H
	DB	00H
	DB	00H
	DB	00H
	DB	00H
	DB	00H
	DB	00H
	DB	00H
	DB	00H
	DB	00H
	DB	00H
	DB	00H
	DB	00H
	DB	00H
	DB	00H
	DB	00H
	DB	00H
	DB	00H
	DB	00H
	DB	00H
	DB	00H
	DB	00H
	DB	00H
	DB	00H
	DB	00H
	DB	00H
	DB	00H
	DB	00H
	DB	00H
	DB	00H
	DB	00H
	DB	00H
	DB	00H
	DB	00H
	DB	00H
	DB	00H
	DB	00H
	DB	00H
	DB	00H
	DB	00H
	DB	00H
	DB	00H
	DB	00H
	DB	00H
	DB	00H
	DB	00H
	DB	00H
	DB	00H
	DB	00H
	DB	00H
	DB	00H
	DB	00H
	DB	00H
	DB	00H
	DB	00H
	DB	00H
	DB	00H
	DB	00H
	DB	00H
	DB	00H
	DB	00H
	DB	00H
	DB	00H
	DB	00H
	DB	00H
	DB	00H
	DB	00H
	DB	00H
	DB	00H
	DB	00H
	DB	00H
	DB	00H
	DB	00H
	DB	00H
	DB	00H
	DB	00H
	DB	00H
	DB	00H
	DB	00H
	DB	00H
	DB	00H
	DB	00H
	DB	00H
	DB	00H
	DB	00H
	DB	00H
	DB	00H
	DB	00H
	DB	00H
	DB	00H
	DB	00H
	DB	00H
	DB	00H
	DB	00H
	DB	00H
	DB	00H
	DB	00H
	DB	00H
	DB	00H
	DB	00H
	DB	00H
	DB	00H
	DB	00H
	DB	00H
	DB	00H
	DB	00H
	DB	00H
	DB	00H
	DB	00H
	DB	00H
	DB	00H
	DB	00H
	DB	00H
	DB	00H
	DB	00H
	DB	00H
	DB	00H
	DB	00H
	DB	00H
	DB	00H
	DB	00H
	DB	00H
	DB	00H
	DB	00H
	DB	00H
	DB	00H
	DB	00H
	DB	00H
	DB	00H
	DB	00H
	DB	00H
	DB	00H
	DB	00H
	DB	00H
	DB	00H
	DB	00H
	DB	00H
	DB	00H
	DB	00H
	DB	00H
	DB	00H
	DB	00H
	DB	00H
	DB	00H
	DB	00H
	DB	00H
	DB	00H
	DB	00H
	DB	00H
	DB	00H
	DB	00H
	DB	00H
	DB	00H
	DB	00H
	DB	00H
	DB	00H
	DB	00H
	DB	00H
	DB	00H
	DB	00H
	DB	00H
	DB	00H
	DB	00H
	DB	00H
	DB	00H
	DB	00H
	DB	00H
	DB	00H
	DB	00H
	DB	00H
	DB	00H
	DB	00H
	DB	00H
	DB	00H
	DB	00H
	DB	00H
	DB	00H
	DB	00H
	DB	00H
	DB	00H
	DB	00H
	DB	00H
	DB	00H
	DB	00H
	DB	00H
	DB	00H
	DB	00H
	DB	00H
	DB	00H
	DB	00H
	DB	00H
	DB	00H
	DB	00H
	DB	00H
	DB	00H
	DB	00H
	DB	00H
	DB	00H
	DB	00H
	DB	00H
	DB	00H
	DB	00H
	DB	00H
	DB	00H
	DB	00H
	DB	00H
	DB	00H
	DB	00H
	DB	00H
	DB	00H
	DB	00H
	DB	055H
	DB	055H
	DB	055H
	DB	06H
	DB	056H
	DB	056H
	DB	056H
	DB	03bH
	DB	056H
	DB	056H
	DB	056H
	DB	074H
	DB	055H
	DB	055H
	DB	055H
	DB	0b0H
	DB	056H
	DB	056H
	DB	056H
	DB	0e9H
	DB	056H
	DB	056H
	DB	056H
	DB	0ffH
	DB	056H
	DB	056H
	DB	056H
	DB	0ffH
	DB	056H
	DB	056H
	DB	056H
	DB	0ffH
	DB	056H
	DB	056H
	DB	056H
	DB	0ffH
	DB	056H
	DB	056H
	DB	056H
	DB	0ffH
	DB	055H
	DB	055H
	DB	055H
	DB	0ffH
	DB	04dH
	DB	04dH
	DB	04dH
	DB	0ffH
	DB	044H
	DB	044H
	DB	044H
	DB	0ffH
	DB	03aH
	DB	03aH
	DB	03aH
	DB	0ffH
	DB	031H
	DB	031H
	DB	031H
	DB	0ffH
	DB	029H
	DB	029H
	DB	029H
	DB	0ffH
	DB	023H
	DB	023H
	DB	023H
	DB	0ffH
	DB	01eH
	DB	01eH
	DB	01eH
	DB	0ffH
	DB	018H
	DB	018H
	DB	018H
	DB	0ffH
	DB	015H
	DB	015H
	DB	015H
	DB	0ffH
	DB	010H
	DB	010H
	DB	010H
	DB	0ffH
	DB	010H
	DB	010H
	DB	010H
	DB	0ffH
	DB	0fH
	DB	0fH
	DB	0fH
	DB	0ffH
	DB	0bH
	DB	0bH
	DB	0bH
	DB	0ffH
	DB	0bH
	DB	0bH
	DB	0bH
	DB	0ffH
	DB	0fH
	DB	0fH
	DB	0fH
	DB	0ffH
	DB	010H
	DB	010H
	DB	010H
	DB	0ffH
	DB	010H
	DB	010H
	DB	010H
	DB	0ffH
	DB	015H
	DB	015H
	DB	015H
	DB	0ffH
	DB	018H
	DB	018H
	DB	018H
	DB	0ffH
	DB	01eH
	DB	01eH
	DB	01eH
	DB	0ffH
	DB	023H
	DB	023H
	DB	023H
	DB	0ffH
	DB	029H
	DB	029H
	DB	029H
	DB	0ffH
	DB	031H
	DB	031H
	DB	031H
	DB	0ffH
	DB	03aH
	DB	03aH
	DB	03aH
	DB	0ffH
	DB	044H
	DB	044H
	DB	044H
	DB	0ffH
	DB	04dH
	DB	04dH
	DB	04dH
	DB	0ffH
	DB	055H
	DB	055H
	DB	055H
	DB	0ffH
	DB	056H
	DB	056H
	DB	056H
	DB	0ffH
	DB	056H
	DB	056H
	DB	056H
	DB	0ffH
	DB	056H
	DB	056H
	DB	056H
	DB	0ffH
	DB	056H
	DB	056H
	DB	056H
	DB	0ffH
	DB	056H
	DB	056H
	DB	056H
	DB	0ffH
	DB	056H
	DB	056H
	DB	056H
	DB	0e9H
	DB	056H
	DB	056H
	DB	056H
	DB	0afH
	DB	056H
	DB	056H
	DB	056H
	DB	073H
	DB	055H
	DB	055H
	DB	055H
	DB	039H
	DB	066H
	DB	066H
	DB	066H
	DB	05H
	DB	00H
	DB	00H
	DB	00H
	DB	00H
	DB	00H
	DB	00H
	DB	00H
	DB	00H
	DB	00H
	DB	00H
	DB	00H
	DB	00H
	DB	00H
	DB	00H
	DB	00H
	DB	00H
	DB	00H
	DB	00H
	DB	00H
	DB	00H
	DB	00H
	DB	00H
	DB	00H
	DB	00H
	DB	00H
	DB	00H
	DB	00H
	DB	00H
	DB	00H
	DB	00H
	DB	00H
	DB	00H
	DB	00H
	DB	00H
	DB	00H
	DB	00H
	DB	00H
	DB	00H
	DB	00H
	DB	00H
	DB	00H
	DB	00H
	DB	00H
	DB	00H
	DB	00H
	DB	00H
	DB	00H
	DB	00H
	DB	00H
	DB	00H
	DB	00H
	DB	00H
	DB	00H
	DB	00H
	DB	00H
	DB	00H
	DB	00H
	DB	00H
	DB	00H
	DB	00H
	DB	00H
	DB	00H
	DB	00H
	DB	00H
	DB	00H
	DB	00H
	DB	00H
	DB	00H
	DB	00H
	DB	00H
	DB	00H
	DB	00H
	DB	00H
	DB	00H
	DB	00H
	DB	00H
	DB	00H
	DB	00H
	DB	00H
	DB	00H
	DB	00H
	DB	00H
	DB	00H
	DB	00H
	DB	00H
	DB	00H
	DB	00H
	DB	00H
	DB	00H
	DB	00H
	DB	00H
	DB	00H
	DB	00H
	DB	00H
	DB	00H
	DB	00H
	DB	00H
	DB	00H
	DB	00H
	DB	00H
	DB	00H
	DB	00H
	DB	00H
	DB	00H
	DB	00H
	DB	00H
	DB	00H
	DB	00H
	DB	00H
	DB	00H
	DB	00H
	DB	00H
	DB	00H
	DB	00H
	DB	00H
	DB	00H
	DB	00H
	DB	00H
	DB	00H
	DB	00H
	DB	00H
	DB	00H
	DB	00H
	DB	00H
	DB	00H
	DB	00H
	DB	00H
	DB	00H
	DB	00H
	DB	00H
	DB	00H
	DB	00H
	DB	00H
	DB	00H
	DB	00H
	DB	00H
	DB	00H
	DB	00H
	DB	00H
	DB	00H
	DB	00H
	DB	00H
	DB	00H
	DB	00H
	DB	00H
	DB	00H
	DB	00H
	DB	00H
	DB	00H
	DB	00H
	DB	00H
	DB	00H
	DB	00H
	DB	00H
	DB	00H
	DB	00H
	DB	00H
	DB	00H
	DB	00H
	DB	00H
	DB	00H
	DB	00H
	DB	00H
	DB	00H
	DB	00H
	DB	00H
	DB	00H
	DB	00H
	DB	00H
	DB	00H
	DB	00H
	DB	00H
	DB	00H
	DB	00H
	DB	00H
	DB	00H
	DB	00H
	DB	00H
	DB	00H
	DB	00H
	DB	00H
	DB	00H
	DB	00H
	DB	00H
	DB	00H
	DB	00H
	DB	00H
	DB	00H
	DB	00H
	DB	00H
	DB	00H
	DB	00H
	DB	00H
	DB	00H
	DB	00H
	DB	00H
	DB	00H
	DB	00H
	DB	00H
	DB	00H
	DB	00H
	DB	00H
	DB	00H
	DB	00H
	DB	00H
	DB	00H
	DB	00H
	DB	00H
	DB	00H
	DB	00H
	DB	00H
	DB	00H
	DB	00H
	DB	00H
	DB	00H
	DB	00H
	DB	00H
	DB	00H
	DB	00H
	DB	00H
	DB	00H
	DB	00H
	DB	00H
	DB	00H
	DB	00H
	DB	00H
	DB	00H
	DB	00H
	DB	00H
	DB	00H
	DB	00H
	DB	00H
	DB	00H
	DB	00H
	DB	00H
	DB	00H
	DB	00H
	DB	00H
	DB	00H
	DB	00H
	DB	00H
	DB	00H
	DB	00H
	DB	00H
	DB	00H
	DB	00H
	DB	00H
	DB	00H
	DB	00H
	DB	00H
	DB	00H
	DB	00H
	DB	00H
	DB	00H
	DB	00H
	DB	00H
	DB	00H
	DB	00H
	DB	00H
	DB	00H
	DB	00H
	DB	00H
	DB	00H
	DB	00H
	DB	00H
	DB	00H
	DB	00H
	DB	00H
	DB	00H
	DB	00H
	DB	00H
	DB	00H
	DB	00H
	DB	00H
	DB	00H
	DB	00H
	DB	00H
	DB	00H
	DB	00H
	DB	00H
	DB	00H
	DB	00H
	DB	00H
	DB	00H
	DB	00H
	DB	00H
	DB	00H
	DB	00H
	DB	00H
	DB	00H
	DB	00H
	DB	00H
	DB	00H
	DB	00H
	DB	00H
	DB	00H
	DB	00H
	DB	00H
	DB	00H
	DB	00H
	DB	00H
	DB	00H
	DB	00H
	DB	00H
	DB	00H
	DB	00H
	DB	00H
	DB	00H
	DB	00H
	DB	00H
	DB	00H
	DB	00H
	DB	00H
	DB	00H
	DB	00H
	DB	00H
	DB	00H
	DB	00H
	DB	00H
	DB	00H
	DB	00H
	DB	00H
	DB	00H
	DB	00H
	DB	00H
	DB	00H
	DB	00H
	DB	00H
	DB	00H
	DB	00H
	DB	00H
	DB	00H
	DB	00H
	DB	00H
	DB	00H
	DB	00H
	DB	00H
	DB	00H
	DB	00H
	DB	00H
	DB	00H
	DB	00H
	DB	00H
	DB	00H
	DB	00H
	DB	00H
	DB	00H
	DB	00H
	DB	00H
	DB	00H
	DB	00H
	DB	00H
	DB	00H
	DB	00H
	DB	00H
	DB	00H
	DB	00H
	DB	00H
	DB	00H
	DB	00H
	DB	00H
	DB	00H
	DB	00H
	DB	00H
	DB	00H
	DB	00H
	DB	00H
	DB	00H
	DB	00H
	DB	00H
	DB	00H
	DB	00H
	DB	00H
	DB	00H
	DB	00H
	DB	00H
	DB	00H
	DB	00H
	DB	00H
	DB	00H
	DB	00H
	DB	00H
	DB	00H
	DB	00H
	DB	00H
	DB	00H
	DB	00H
	DB	00H
	DB	00H
	DB	00H
	DB	00H
	DB	00H
	DB	00H
	DB	00H
	DB	00H
	DB	00H
	DB	00H
	DB	00H
	DB	00H
	DB	00H
	DB	00H
	DB	00H
	DB	00H
	DB	00H
	DB	00H
	DB	00H
	DB	00H
	DB	00H
	DB	00H
	DB	00H
	DB	00H
	DB	00H
	DB	00H
	DB	00H
	DB	00H
	DB	00H
	DB	00H
	DB	00H
	DB	00H
	DB	00H
	DB	00H
	DB	00H
	DB	00H
	DB	00H
	DB	00H
	DB	00H
	DB	00H
	DB	00H
	DB	00H
	DB	00H
	DB	00H
	DB	00H
	DB	00H
	DB	00H
	DB	00H
	DB	00H
	DB	00H
	DB	00H
	DB	00H
	DB	00H
	DB	00H
	DB	00H
	DB	00H
	DB	00H
	DB	00H
	DB	00H
	DB	00H
	DB	00H
	DB	00H
	DB	00H
	DB	00H
	DB	00H
	DB	00H
	DB	00H
	DB	00H
	DB	00H
	DB	00H
	DB	00H
	DB	00H
	DB	00H
	DB	00H
	DB	00H
	DB	00H
	DB	00H
	DB	00H
	DB	00H
	DB	00H
	DB	00H
	DB	00H
	DB	00H
	DB	00H
	DB	00H
	DB	00H
	DB	00H
	DB	00H
	DB	00H
	DB	00H
	DB	00H
	DB	00H
	DB	00H
	DB	00H
	DB	00H
	DB	00H
	DB	00H
	DB	00H
	DB	00H
	DB	00H
	DB	00H
	DB	00H
	DB	00H
	DB	00H
	DB	00H
	DB	00H
	DB	00H
	DB	00H
	DB	00H
	DB	00H
	DB	00H
	DB	00H
	DB	00H
	DB	00H
	DB	00H
	DB	00H
	DB	00H
	DB	00H
	DB	00H
	DB	00H
	DB	00H
	DB	00H
	DB	00H
	DB	00H
	DB	00H
	DB	00H
	DB	00H
	DB	00H
	DB	00H
	DB	00H
	DB	00H
	DB	00H
	DB	00H
	DB	00H
	DB	00H
	DB	00H
	DB	00H
	DB	00H
	DB	00H
	DB	00H
	DB	00H
	DB	00H
	DB	00H
	DB	00H
	DB	00H
	DB	059H
	DB	059H
	DB	059H
	DB	017H
	DB	057H
	DB	057H
	DB	057H
	DB	05eH
	DB	056H
	DB	056H
	DB	056H
	DB	0aaH
	DB	056H
	DB	056H
	DB	056H
	DB	0f0H
	DB	056H
	DB	056H
	DB	056H
	DB	0ffH
	DB	056H
	DB	056H
	DB	056H
	DB	0ffH
	DB	056H
	DB	056H
	DB	056H
	DB	0ffH
	DB	056H
	DB	056H
	DB	056H
	DB	0ffH
	DB	04fH
	DB	04fH
	DB	04fH
	DB	0ffH
	DB	040H
	DB	040H
	DB	040H
	DB	0ffH
	DB	033H
	DB	033H
	DB	033H
	DB	0ffH
	DB	025H
	DB	025H
	DB	025H
	DB	0ffH
	DB	018H
	DB	018H
	DB	018H
	DB	0ffH
	DB	0dH
	DB	0dH
	DB	0dH
	DB	0ffH
	DB	0bH
	DB	0bH
	DB	0bH
	DB	0ffH
	DB	0bH
	DB	0bH
	DB	0bH
	DB	0ffH
	DB	0bH
	DB	0bH
	DB	0bH
	DB	0ffH
	DB	0bH
	DB	0bH
	DB	0bH
	DB	0ffH
	DB	0bH
	DB	0bH
	DB	0bH
	DB	0ffH
	DB	0bH
	DB	0bH
	DB	0bH
	DB	0ffH
	DB	0bH
	DB	0bH
	DB	0bH
	DB	0ffH
	DB	0bH
	DB	0bH
	DB	0bH
	DB	0ffH
	DB	0bH
	DB	0bH
	DB	0bH
	DB	0ffH
	DB	0bH
	DB	0bH
	DB	0bH
	DB	0ffH
	DB	0bH
	DB	0bH
	DB	0bH
	DB	0ffH
	DB	0bH
	DB	0bH
	DB	0bH
	DB	0ffH
	DB	0bH
	DB	0bH
	DB	0bH
	DB	0ffH
	DB	0bH
	DB	0bH
	DB	0bH
	DB	0ffH
	DB	0bH
	DB	0bH
	DB	0bH
	DB	0ffH
	DB	0bH
	DB	0bH
	DB	0bH
	DB	0ffH
	DB	0bH
	DB	0bH
	DB	0bH
	DB	0ffH
	DB	0bH
	DB	0bH
	DB	0bH
	DB	0ffH
	DB	0bH
	DB	0bH
	DB	0bH
	DB	0ffH
	DB	0bH
	DB	0bH
	DB	0bH
	DB	0ffH
	DB	0bH
	DB	0bH
	DB	0bH
	DB	0ffH
	DB	0bH
	DB	0bH
	DB	0bH
	DB	0ffH
	DB	0bH
	DB	0bH
	DB	0bH
	DB	0ffH
	DB	0bH
	DB	0bH
	DB	0bH
	DB	0ffH
	DB	0bH
	DB	0bH
	DB	0bH
	DB	0ffH
	DB	0bH
	DB	0bH
	DB	0bH
	DB	0ffH
	DB	0dH
	DB	0dH
	DB	0dH
	DB	0ffH
	DB	018H
	DB	018H
	DB	018H
	DB	0ffH
	DB	025H
	DB	025H
	DB	025H
	DB	0ffH
	DB	033H
	DB	033H
	DB	033H
	DB	0ffH
	DB	040H
	DB	040H
	DB	040H
	DB	0ffH
	DB	04fH
	DB	04fH
	DB	04fH
	DB	0ffH
	DB	056H
	DB	056H
	DB	056H
	DB	0ffH
	DB	056H
	DB	056H
	DB	056H
	DB	0ffH
	DB	056H
	DB	056H
	DB	056H
	DB	0ffH
	DB	056H
	DB	056H
	DB	056H
	DB	0ffH
	DB	056H
	DB	056H
	DB	056H
	DB	0f4H
	DB	056H
	DB	056H
	DB	056H
	DB	0bbH
	DB	055H
	DB	055H
	DB	055H
	DB	06fH
	DB	055H
	DB	055H
	DB	055H
	DB	01eH
	DB	00H
	DB	00H
	DB	00H
	DB	00H
	DB	00H
	DB	00H
	DB	00H
	DB	00H
	DB	00H
	DB	00H
	DB	00H
	DB	00H
	DB	00H
	DB	00H
	DB	00H
	DB	00H
	DB	00H
	DB	00H
	DB	00H
	DB	00H
	DB	00H
	DB	00H
	DB	00H
	DB	00H
	DB	00H
	DB	00H
	DB	00H
	DB	00H
	DB	00H
	DB	00H
	DB	00H
	DB	00H
	DB	00H
	DB	00H
	DB	00H
	DB	00H
	DB	00H
	DB	00H
	DB	00H
	DB	00H
	DB	00H
	DB	00H
	DB	00H
	DB	00H
	DB	00H
	DB	00H
	DB	00H
	DB	00H
	DB	00H
	DB	00H
	DB	00H
	DB	00H
	DB	00H
	DB	00H
	DB	00H
	DB	00H
	DB	00H
	DB	00H
	DB	00H
	DB	00H
	DB	00H
	DB	00H
	DB	00H
	DB	00H
	DB	00H
	DB	00H
	DB	00H
	DB	00H
	DB	00H
	DB	00H
	DB	00H
	DB	00H
	DB	00H
	DB	00H
	DB	00H
	DB	00H
	DB	00H
	DB	00H
	DB	00H
	DB	00H
	DB	00H
	DB	00H
	DB	00H
	DB	00H
	DB	00H
	DB	00H
	DB	00H
	DB	00H
	DB	00H
	DB	00H
	DB	00H
	DB	00H
	DB	00H
	DB	00H
	DB	00H
	DB	00H
	DB	00H
	DB	00H
	DB	00H
	DB	00H
	DB	00H
	DB	00H
	DB	00H
	DB	00H
	DB	00H
	DB	00H
	DB	00H
	DB	00H
	DB	00H
	DB	00H
	DB	00H
	DB	00H
	DB	00H
	DB	00H
	DB	00H
	DB	00H
	DB	00H
	DB	00H
	DB	00H
	DB	00H
	DB	00H
	DB	00H
	DB	00H
	DB	00H
	DB	00H
	DB	00H
	DB	00H
	DB	00H
	DB	00H
	DB	00H
	DB	00H
	DB	00H
	DB	00H
	DB	00H
	DB	00H
	DB	00H
	DB	00H
	DB	00H
	DB	00H
	DB	00H
	DB	00H
	DB	00H
	DB	00H
	DB	00H
	DB	00H
	DB	00H
	DB	00H
	DB	00H
	DB	00H
	DB	00H
	DB	00H
	DB	00H
	DB	00H
	DB	00H
	DB	00H
	DB	00H
	DB	00H
	DB	00H
	DB	00H
	DB	00H
	DB	00H
	DB	00H
	DB	00H
	DB	00H
	DB	00H
	DB	00H
	DB	00H
	DB	00H
	DB	00H
	DB	00H
	DB	00H
	DB	00H
	DB	00H
	DB	00H
	DB	00H
	DB	00H
	DB	00H
	DB	00H
	DB	00H
	DB	00H
	DB	00H
	DB	00H
	DB	00H
	DB	00H
	DB	00H
	DB	00H
	DB	00H
	DB	00H
	DB	00H
	DB	00H
	DB	00H
	DB	00H
	DB	00H
	DB	00H
	DB	00H
	DB	00H
	DB	00H
	DB	00H
	DB	00H
	DB	00H
	DB	00H
	DB	00H
	DB	00H
	DB	00H
	DB	00H
	DB	00H
	DB	00H
	DB	00H
	DB	00H
	DB	00H
	DB	00H
	DB	00H
	DB	00H
	DB	00H
	DB	00H
	DB	00H
	DB	00H
	DB	00H
	DB	00H
	DB	00H
	DB	00H
	DB	00H
	DB	00H
	DB	00H
	DB	00H
	DB	00H
	DB	00H
	DB	00H
	DB	00H
	DB	00H
	DB	00H
	DB	00H
	DB	00H
	DB	00H
	DB	00H
	DB	00H
	DB	00H
	DB	00H
	DB	00H
	DB	00H
	DB	00H
	DB	00H
	DB	00H
	DB	00H
	DB	00H
	DB	00H
	DB	00H
	DB	00H
	DB	00H
	DB	00H
	DB	00H
	DB	00H
	DB	00H
	DB	00H
	DB	00H
	DB	00H
	DB	00H
	DB	00H
	DB	00H
	DB	00H
	DB	00H
	DB	00H
	DB	00H
	DB	00H
	DB	00H
	DB	00H
	DB	00H
	DB	00H
	DB	00H
	DB	00H
	DB	00H
	DB	00H
	DB	00H
	DB	00H
	DB	00H
	DB	00H
	DB	00H
	DB	00H
	DB	00H
	DB	00H
	DB	00H
	DB	00H
	DB	00H
	DB	00H
	DB	00H
	DB	00H
	DB	00H
	DB	00H
	DB	00H
	DB	00H
	DB	00H
	DB	00H
	DB	00H
	DB	00H
	DB	00H
	DB	00H
	DB	00H
	DB	00H
	DB	00H
	DB	00H
	DB	00H
	DB	00H
	DB	00H
	DB	00H
	DB	00H
	DB	00H
	DB	00H
	DB	00H
	DB	00H
	DB	00H
	DB	00H
	DB	00H
	DB	00H
	DB	00H
	DB	00H
	DB	00H
	DB	00H
	DB	00H
	DB	00H
	DB	00H
	DB	00H
	DB	00H
	DB	00H
	DB	00H
	DB	00H
	DB	00H
	DB	00H
	DB	00H
	DB	00H
	DB	00H
	DB	00H
	DB	00H
	DB	00H
	DB	00H
	DB	00H
	DB	00H
	DB	00H
	DB	00H
	DB	00H
	DB	00H
	DB	00H
	DB	00H
	DB	00H
	DB	00H
	DB	00H
	DB	00H
	DB	00H
	DB	00H
	DB	00H
	DB	00H
	DB	00H
	DB	00H
	DB	00H
	DB	00H
	DB	00H
	DB	00H
	DB	00H
	DB	00H
	DB	00H
	DB	00H
	DB	00H
	DB	00H
	DB	00H
	DB	00H
	DB	00H
	DB	00H
	DB	00H
	DB	00H
	DB	00H
	DB	00H
	DB	00H
	DB	00H
	DB	00H
	DB	00H
	DB	00H
	DB	00H
	DB	00H
	DB	00H
	DB	00H
	DB	00H
	DB	00H
	DB	00H
	DB	00H
	DB	00H
	DB	00H
	DB	00H
	DB	00H
	DB	00H
	DB	00H
	DB	00H
	DB	00H
	DB	00H
	DB	00H
	DB	00H
	DB	00H
	DB	00H
	DB	00H
	DB	00H
	DB	00H
	DB	00H
	DB	00H
	DB	00H
	DB	00H
	DB	00H
	DB	00H
	DB	00H
	DB	00H
	DB	00H
	DB	00H
	DB	00H
	DB	00H
	DB	00H
	DB	00H
	DB	00H
	DB	00H
	DB	00H
	DB	00H
	DB	00H
	DB	00H
	DB	00H
	DB	00H
	DB	00H
	DB	00H
	DB	00H
	DB	00H
	DB	00H
	DB	00H
	DB	00H
	DB	00H
	DB	00H
	DB	00H
	DB	00H
	DB	00H
	DB	00H
	DB	00H
	DB	00H
	DB	00H
	DB	00H
	DB	00H
	DB	00H
	DB	00H
	DB	00H
	DB	00H
	DB	00H
	DB	00H
	DB	00H
	DB	00H
	DB	00H
	DB	00H
	DB	00H
	DB	00H
	DB	00H
	DB	00H
	DB	00H
	DB	00H
	DB	00H
	DB	00H
	DB	00H
	DB	00H
	DB	00H
	DB	00H
	DB	00H
	DB	00H
	DB	00H
	DB	00H
	DB	00H
	DB	00H
	DB	00H
	DB	00H
	DB	00H
	DB	00H
	DB	00H
	DB	00H
	DB	00H
	DB	00H
	DB	00H
	DB	00H
	DB	00H
	DB	00H
	DB	00H
	DB	00H
	DB	00H
	DB	00H
	DB	00H
	DB	00H
	DB	00H
	DB	00H
	DB	00H
	DB	00H
	DB	00H
	DB	00H
	DB	00H
	DB	00H
	DB	00H
	DB	00H
	DB	00H
	DB	00H
	DB	00H
	DB	00H
	DB	00H
	DB	00H
	DB	00H
	DB	00H
	DB	00H
	DB	00H
	DB	00H
	DB	00H
	DB	00H
	DB	055H
	DB	055H
	DB	055H
	DB	027H
	DB	056H
	DB	056H
	DB	056H
	DB	07dH
	DB	056H
	DB	056H
	DB	056H
	DB	0d2H
	DB	056H
	DB	056H
	DB	056H
	DB	0ffH
	DB	056H
	DB	056H
	DB	056H
	DB	0ffH
	DB	056H
	DB	056H
	DB	056H
	DB	0ffH
	DB	056H
	DB	056H
	DB	056H
	DB	0ffH
	DB	049H
	DB	049H
	DB	049H
	DB	0ffH
	DB	037H
	DB	037H
	DB	037H
	DB	0ffH
	DB	026H
	DB	026H
	DB	026H
	DB	0ffH
	DB	015H
	DB	015H
	DB	015H
	DB	0ffH
	DB	0bH
	DB	0bH
	DB	0bH
	DB	0ffH
	DB	0bH
	DB	0bH
	DB	0bH
	DB	0ffH
	DB	0bH
	DB	0bH
	DB	0bH
	DB	0ffH
	DB	0bH
	DB	0bH
	DB	0bH
	DB	0ffH
	DB	0bH
	DB	0bH
	DB	0bH
	DB	0ffH
	DB	0bH
	DB	0bH
	DB	0bH
	DB	0ffH
	DB	0bH
	DB	0bH
	DB	0bH
	DB	0ffH
	DB	0bH
	DB	0bH
	DB	0bH
	DB	0ffH
	DB	0bH
	DB	0bH
	DB	0bH
	DB	0ffH
	DB	0bH
	DB	0bH
	DB	0bH
	DB	0ffH
	DB	0bH
	DB	0bH
	DB	0bH
	DB	0ffH
	DB	0bH
	DB	0bH
	DB	0bH
	DB	0ffH
	DB	0bH
	DB	0bH
	DB	0bH
	DB	0ffH
	DB	0bH
	DB	0bH
	DB	0bH
	DB	0ffH
	DB	0bH
	DB	0bH
	DB	0bH
	DB	0ffH
	DB	0bH
	DB	0bH
	DB	0bH
	DB	0ffH
	DB	0bH
	DB	0bH
	DB	0bH
	DB	0ffH
	DB	0bH
	DB	0bH
	DB	0bH
	DB	0ffH
	DB	0bH
	DB	0bH
	DB	0bH
	DB	0ffH
	DB	0bH
	DB	0bH
	DB	0bH
	DB	0ffH
	DB	0bH
	DB	0bH
	DB	0bH
	DB	0ffH
	DB	0bH
	DB	0bH
	DB	0bH
	DB	0ffH
	DB	0bH
	DB	0bH
	DB	0bH
	DB	0ffH
	DB	0bH
	DB	0bH
	DB	0bH
	DB	0ffH
	DB	0bH
	DB	0bH
	DB	0bH
	DB	0ffH
	DB	0bH
	DB	0bH
	DB	0bH
	DB	0ffH
	DB	0bH
	DB	0bH
	DB	0bH
	DB	0ffH
	DB	0bH
	DB	0bH
	DB	0bH
	DB	0ffH
	DB	0bH
	DB	0bH
	DB	0bH
	DB	0ffH
	DB	0bH
	DB	0bH
	DB	0bH
	DB	0ffH
	DB	0bH
	DB	0bH
	DB	0bH
	DB	0ffH
	DB	0bH
	DB	0bH
	DB	0bH
	DB	0ffH
	DB	0bH
	DB	0bH
	DB	0bH
	DB	0ffH
	DB	0bH
	DB	0bH
	DB	0bH
	DB	0ffH
	DB	0bH
	DB	0bH
	DB	0bH
	DB	0ffH
	DB	0bH
	DB	0bH
	DB	0bH
	DB	0ffH
	DB	0bH
	DB	0bH
	DB	0bH
	DB	0ffH
	DB	0bH
	DB	0bH
	DB	0bH
	DB	0ffH
	DB	015H
	DB	015H
	DB	015H
	DB	0ffH
	DB	027H
	DB	027H
	DB	027H
	DB	0ffH
	DB	037H
	DB	037H
	DB	037H
	DB	0ffH
	DB	04aH
	DB	04aH
	DB	04aH
	DB	0ffH
	DB	056H
	DB	056H
	DB	056H
	DB	0ffH
	DB	056H
	DB	056H
	DB	056H
	DB	0ffH
	DB	056H
	DB	056H
	DB	056H
	DB	0ffH
	DB	056H
	DB	056H
	DB	056H
	DB	0ffH
	DB	056H
	DB	056H
	DB	056H
	DB	0d0H
	DB	055H
	DB	055H
	DB	055H
	DB	07bH
	DB	053H
	DB	053H
	DB	053H
	DB	025H
	DB	00H
	DB	00H
	DB	00H
	DB	00H
	DB	00H
	DB	00H
	DB	00H
	DB	00H
	DB	00H
	DB	00H
	DB	00H
	DB	00H
	DB	00H
	DB	00H
	DB	00H
	DB	00H
	DB	00H
	DB	00H
	DB	00H
	DB	00H
	DB	00H
	DB	00H
	DB	00H
	DB	00H
	DB	00H
	DB	00H
	DB	00H
	DB	00H
	DB	00H
	DB	00H
	DB	00H
	DB	00H
	DB	00H
	DB	00H
	DB	00H
	DB	00H
	DB	00H
	DB	00H
	DB	00H
	DB	00H
	DB	00H
	DB	00H
	DB	00H
	DB	00H
	DB	00H
	DB	00H
	DB	00H
	DB	00H
	DB	00H
	DB	00H
	DB	00H
	DB	00H
	DB	00H
	DB	00H
	DB	00H
	DB	00H
	DB	00H
	DB	00H
	DB	00H
	DB	00H
	DB	00H
	DB	00H
	DB	00H
	DB	00H
	DB	00H
	DB	00H
	DB	00H
	DB	00H
	DB	00H
	DB	00H
	DB	00H
	DB	00H
	DB	00H
	DB	00H
	DB	00H
	DB	00H
	DB	00H
	DB	00H
	DB	00H
	DB	00H
	DB	00H
	DB	00H
	DB	00H
	DB	00H
	DB	00H
	DB	00H
	DB	00H
	DB	00H
	DB	00H
	DB	00H
	DB	00H
	DB	00H
	DB	00H
	DB	00H
	DB	00H
	DB	00H
	DB	00H
	DB	00H
	DB	00H
	DB	00H
	DB	00H
	DB	00H
	DB	00H
	DB	00H
	DB	00H
	DB	00H
	DB	00H
	DB	00H
	DB	00H
	DB	00H
	DB	00H
	DB	00H
	DB	00H
	DB	00H
	DB	00H
	DB	00H
	DB	00H
	DB	00H
	DB	00H
	DB	00H
	DB	00H
	DB	00H
	DB	00H
	DB	00H
	DB	00H
	DB	00H
	DB	00H
	DB	00H
	DB	00H
	DB	00H
	DB	00H
	DB	00H
	DB	00H
	DB	00H
	DB	00H
	DB	00H
	DB	00H
	DB	00H
	DB	00H
	DB	00H
	DB	00H
	DB	00H
	DB	00H
	DB	00H
	DB	00H
	DB	00H
	DB	00H
	DB	00H
	DB	00H
	DB	00H
	DB	00H
	DB	00H
	DB	00H
	DB	00H
	DB	00H
	DB	00H
	DB	00H
	DB	00H
	DB	00H
	DB	00H
	DB	00H
	DB	00H
	DB	00H
	DB	00H
	DB	00H
	DB	00H
	DB	00H
	DB	00H
	DB	00H
	DB	00H
	DB	00H
	DB	00H
	DB	00H
	DB	00H
	DB	00H
	DB	00H
	DB	00H
	DB	00H
	DB	00H
	DB	00H
	DB	00H
	DB	00H
	DB	00H
	DB	00H
	DB	00H
	DB	00H
	DB	00H
	DB	00H
	DB	00H
	DB	00H
	DB	00H
	DB	00H
	DB	00H
	DB	00H
	DB	00H
	DB	00H
	DB	00H
	DB	00H
	DB	00H
	DB	00H
	DB	00H
	DB	00H
	DB	00H
	DB	00H
	DB	00H
	DB	00H
	DB	00H
	DB	00H
	DB	00H
	DB	00H
	DB	00H
	DB	00H
	DB	00H
	DB	00H
	DB	00H
	DB	00H
	DB	00H
	DB	00H
	DB	00H
	DB	00H
	DB	00H
	DB	00H
	DB	00H
	DB	00H
	DB	00H
	DB	00H
	DB	00H
	DB	00H
	DB	00H
	DB	00H
	DB	00H
	DB	00H
	DB	00H
	DB	00H
	DB	00H
	DB	00H
	DB	00H
	DB	00H
	DB	00H
	DB	00H
	DB	00H
	DB	00H
	DB	00H
	DB	00H
	DB	00H
	DB	00H
	DB	00H
	DB	00H
	DB	00H
	DB	00H
	DB	00H
	DB	00H
	DB	00H
	DB	00H
	DB	00H
	DB	00H
	DB	00H
	DB	00H
	DB	00H
	DB	00H
	DB	00H
	DB	00H
	DB	00H
	DB	00H
	DB	00H
	DB	00H
	DB	00H
	DB	00H
	DB	00H
	DB	00H
	DB	00H
	DB	00H
	DB	00H
	DB	00H
	DB	00H
	DB	00H
	DB	00H
	DB	00H
	DB	00H
	DB	00H
	DB	00H
	DB	00H
	DB	00H
	DB	00H
	DB	00H
	DB	00H
	DB	00H
	DB	00H
	DB	00H
	DB	00H
	DB	00H
	DB	00H
	DB	00H
	DB	00H
	DB	00H
	DB	00H
	DB	00H
	DB	00H
	DB	00H
	DB	00H
	DB	00H
	DB	00H
	DB	00H
	DB	00H
	DB	00H
	DB	00H
	DB	00H
	DB	00H
	DB	00H
	DB	00H
	DB	00H
	DB	00H
	DB	00H
	DB	00H
	DB	00H
	DB	00H
	DB	00H
	DB	00H
	DB	00H
	DB	00H
	DB	00H
	DB	00H
	DB	00H
	DB	00H
	DB	00H
	DB	00H
	DB	00H
	DB	00H
	DB	00H
	DB	00H
	DB	00H
	DB	00H
	DB	00H
	DB	00H
	DB	00H
	DB	00H
	DB	00H
	DB	00H
	DB	00H
	DB	00H
	DB	00H
	DB	00H
	DB	00H
	DB	00H
	DB	00H
	DB	00H
	DB	00H
	DB	00H
	DB	00H
	DB	00H
	DB	00H
	DB	00H
	DB	00H
	DB	00H
	DB	00H
	DB	00H
	DB	00H
	DB	00H
	DB	00H
	DB	00H
	DB	00H
	DB	00H
	DB	00H
	DB	00H
	DB	00H
	DB	00H
	DB	00H
	DB	00H
	DB	00H
	DB	00H
	DB	00H
	DB	00H
	DB	00H
	DB	00H
	DB	00H
	DB	00H
	DB	00H
	DB	00H
	DB	00H
	DB	00H
	DB	00H
	DB	00H
	DB	00H
	DB	00H
	DB	00H
	DB	00H
	DB	00H
	DB	00H
	DB	00H
	DB	00H
	DB	00H
	DB	00H
	DB	00H
	DB	00H
	DB	00H
	DB	00H
	DB	00H
	DB	00H
	DB	00H
	DB	00H
	DB	00H
	DB	00H
	DB	00H
	DB	00H
	DB	00H
	DB	00H
	DB	00H
	DB	00H
	DB	00H
	DB	00H
	DB	00H
	DB	00H
	DB	00H
	DB	00H
	DB	00H
	DB	00H
	DB	00H
	DB	00H
	DB	00H
	DB	00H
	DB	00H
	DB	00H
	DB	00H
	DB	00H
	DB	00H
	DB	00H
	DB	00H
	DB	00H
	DB	00H
	DB	00H
	DB	00H
	DB	00H
	DB	00H
	DB	00H
	DB	00H
	DB	00H
	DB	00H
	DB	00H
	DB	00H
	DB	00H
	DB	00H
	DB	00H
	DB	00H
	DB	00H
	DB	00H
	DB	00H
	DB	00H
	DB	00H
	DB	00H
	DB	00H
	DB	00H
	DB	00H
	DB	00H
	DB	00H
	DB	00H
	DB	00H
	DB	00H
	DB	00H
	DB	00H
	DB	00H
	DB	00H
	DB	00H
	DB	00H
	DB	00H
	DB	00H
	DB	00H
	DB	00H
	DB	00H
	DB	00H
	DB	00H
	DB	00H
	DB	00H
	DB	00H
	DB	00H
	DB	00H
	DB	00H
	DB	00H
	DB	00H
	DB	00H
	DB	00H
	DB	00H
	DB	00H
	DB	00H
	DB	00H
	DB	058H
	DB	058H
	DB	058H
	DB	01aH
	DB	055H
	DB	055H
	DB	055H
	DB	078H
	DB	056H
	DB	056H
	DB	056H
	DB	0d0H
	DB	056H
	DB	056H
	DB	056H
	DB	0ffH
	DB	056H
	DB	056H
	DB	056H
	DB	0ffH
	DB	056H
	DB	056H
	DB	056H
	DB	0ffH
	DB	052H
	DB	052H
	DB	052H
	DB	0ffH
	DB	042H
	DB	042H
	DB	042H
	DB	0ffH
	DB	02bH
	DB	02bH
	DB	02bH
	DB	0ffH
	DB	014H
	DB	014H
	DB	014H
	DB	0ffH
	DB	0bH
	DB	0bH
	DB	0bH
	DB	0ffH
	DB	0bH
	DB	0bH
	DB	0bH
	DB	0ffH
	DB	0bH
	DB	0bH
	DB	0bH
	DB	0ffH
	DB	0bH
	DB	0bH
	DB	0bH
	DB	0ffH
	DB	0bH
	DB	0bH
	DB	0bH
	DB	0ffH
	DB	0bH
	DB	0bH
	DB	0bH
	DB	0ffH
	DB	0bH
	DB	0bH
	DB	0bH
	DB	0ffH
	DB	0bH
	DB	0bH
	DB	0bH
	DB	0ffH
	DB	0bH
	DB	0bH
	DB	0bH
	DB	0ffH
	DB	0bH
	DB	0bH
	DB	0bH
	DB	0ffH
	DB	0bH
	DB	0bH
	DB	0bH
	DB	0ffH
	DB	0bH
	DB	0bH
	DB	0bH
	DB	0ffH
	DB	0bH
	DB	0bH
	DB	0bH
	DB	0ffH
	DB	0bH
	DB	0bH
	DB	0bH
	DB	0ffH
	DB	0bH
	DB	0bH
	DB	0bH
	DB	0ffH
	DB	0bH
	DB	0bH
	DB	0bH
	DB	0ffH
	DB	0bH
	DB	0bH
	DB	0bH
	DB	0ffH
	DB	0bH
	DB	0bH
	DB	0bH
	DB	0ffH
	DB	0bH
	DB	0bH
	DB	0bH
	DB	0ffH
	DB	0bH
	DB	0bH
	DB	0bH
	DB	0ffH
	DB	0bH
	DB	0bH
	DB	0bH
	DB	0ffH
	DB	0bH
	DB	0bH
	DB	0bH
	DB	0ffH
	DB	0bH
	DB	0bH
	DB	0bH
	DB	0ffH
	DB	0bH
	DB	0bH
	DB	0bH
	DB	0ffH
	DB	0bH
	DB	0bH
	DB	0bH
	DB	0ffH
	DB	0bH
	DB	0bH
	DB	0bH
	DB	0ffH
	DB	0bH
	DB	0bH
	DB	0bH
	DB	0ffH
	DB	0bH
	DB	0bH
	DB	0bH
	DB	0ffH
	DB	0bH
	DB	0bH
	DB	0bH
	DB	0ffH
	DB	0bH
	DB	0bH
	DB	0bH
	DB	0ffH
	DB	0bH
	DB	0bH
	DB	0bH
	DB	0ffH
	DB	0bH
	DB	0bH
	DB	0bH
	DB	0ffH
	DB	0bH
	DB	0bH
	DB	0bH
	DB	0ffH
	DB	0bH
	DB	0bH
	DB	0bH
	DB	0ffH
	DB	0bH
	DB	0bH
	DB	0bH
	DB	0ffH
	DB	0bH
	DB	0bH
	DB	0bH
	DB	0ffH
	DB	0bH
	DB	0bH
	DB	0bH
	DB	0ffH
	DB	0bH
	DB	0bH
	DB	0bH
	DB	0ffH
	DB	0bH
	DB	0bH
	DB	0bH
	DB	0ffH
	DB	0bH
	DB	0bH
	DB	0bH
	DB	0ffH
	DB	0bH
	DB	0bH
	DB	0bH
	DB	0ffH
	DB	0bH
	DB	0bH
	DB	0bH
	DB	0ffH
	DB	0bH
	DB	0bH
	DB	0bH
	DB	0ffH
	DB	0bH
	DB	0bH
	DB	0bH
	DB	0ffH
	DB	0bH
	DB	0bH
	DB	0bH
	DB	0ffH
	DB	0bH
	DB	0bH
	DB	0bH
	DB	0ffH
	DB	012H
	DB	012H
	DB	012H
	DB	0ffH
	DB	026H
	DB	026H
	DB	026H
	DB	0ffH
	DB	03dH
	DB	03dH
	DB	03dH
	DB	0ffH
	DB	052H
	DB	052H
	DB	052H
	DB	0ffH
	DB	056H
	DB	056H
	DB	056H
	DB	0ffH
	DB	056H
	DB	056H
	DB	056H
	DB	0ffH
	DB	056H
	DB	056H
	DB	056H
	DB	0ffH
	DB	055H
	DB	055H
	DB	055H
	DB	0ceH
	DB	056H
	DB	056H
	DB	056H
	DB	077H
	DB	058H
	DB	058H
	DB	058H
	DB	01aH
	DB	00H
	DB	00H
	DB	00H
	DB	00H
	DB	00H
	DB	00H
	DB	00H
	DB	00H
	DB	00H
	DB	00H
	DB	00H
	DB	00H
	DB	00H
	DB	00H
	DB	00H
	DB	00H
	DB	00H
	DB	00H
	DB	00H
	DB	00H
	DB	00H
	DB	00H
	DB	00H
	DB	00H
	DB	00H
	DB	00H
	DB	00H
	DB	00H
	DB	00H
	DB	00H
	DB	00H
	DB	00H
	DB	00H
	DB	00H
	DB	00H
	DB	00H
	DB	00H
	DB	00H
	DB	00H
	DB	00H
	DB	00H
	DB	00H
	DB	00H
	DB	00H
	DB	00H
	DB	00H
	DB	00H
	DB	00H
	DB	00H
	DB	00H
	DB	00H
	DB	00H
	DB	00H
	DB	00H
	DB	00H
	DB	00H
	DB	00H
	DB	00H
	DB	00H
	DB	00H
	DB	00H
	DB	00H
	DB	00H
	DB	00H
	DB	00H
	DB	00H
	DB	00H
	DB	00H
	DB	00H
	DB	00H
	DB	00H
	DB	00H
	DB	00H
	DB	00H
	DB	00H
	DB	00H
	DB	00H
	DB	00H
	DB	00H
	DB	00H
	DB	00H
	DB	00H
	DB	00H
	DB	00H
	DB	00H
	DB	00H
	DB	00H
	DB	00H
	DB	00H
	DB	00H
	DB	00H
	DB	00H
	DB	00H
	DB	00H
	DB	00H
	DB	00H
	DB	00H
	DB	00H
	DB	00H
	DB	00H
	DB	00H
	DB	00H
	DB	00H
	DB	00H
	DB	00H
	DB	00H
	DB	00H
	DB	00H
	DB	00H
	DB	00H
	DB	00H
	DB	00H
	DB	00H
	DB	00H
	DB	00H
	DB	00H
	DB	00H
	DB	00H
	DB	00H
	DB	00H
	DB	00H
	DB	00H
	DB	00H
	DB	00H
	DB	00H
	DB	00H
	DB	00H
	DB	00H
	DB	00H
	DB	00H
	DB	00H
	DB	00H
	DB	00H
	DB	00H
	DB	00H
	DB	00H
	DB	00H
	DB	00H
	DB	00H
	DB	00H
	DB	00H
	DB	00H
	DB	00H
	DB	00H
	DB	00H
	DB	00H
	DB	00H
	DB	00H
	DB	00H
	DB	00H
	DB	00H
	DB	00H
	DB	00H
	DB	00H
	DB	00H
	DB	00H
	DB	00H
	DB	00H
	DB	00H
	DB	00H
	DB	00H
	DB	00H
	DB	00H
	DB	00H
	DB	00H
	DB	00H
	DB	00H
	DB	00H
	DB	00H
	DB	00H
	DB	00H
	DB	00H
	DB	00H
	DB	00H
	DB	00H
	DB	00H
	DB	00H
	DB	00H
	DB	00H
	DB	00H
	DB	00H
	DB	00H
	DB	00H
	DB	00H
	DB	00H
	DB	00H
	DB	00H
	DB	00H
	DB	00H
	DB	00H
	DB	00H
	DB	00H
	DB	00H
	DB	00H
	DB	00H
	DB	00H
	DB	00H
	DB	00H
	DB	00H
	DB	00H
	DB	00H
	DB	00H
	DB	00H
	DB	00H
	DB	00H
	DB	00H
	DB	00H
	DB	00H
	DB	00H
	DB	00H
	DB	00H
	DB	00H
	DB	00H
	DB	00H
	DB	00H
	DB	00H
	DB	00H
	DB	00H
	DB	00H
	DB	00H
	DB	00H
	DB	00H
	DB	00H
	DB	00H
	DB	00H
	DB	00H
	DB	00H
	DB	00H
	DB	00H
	DB	00H
	DB	00H
	DB	00H
	DB	00H
	DB	00H
	DB	00H
	DB	00H
	DB	00H
	DB	00H
	DB	00H
	DB	00H
	DB	00H
	DB	00H
	DB	00H
	DB	00H
	DB	00H
	DB	00H
	DB	00H
	DB	00H
	DB	00H
	DB	00H
	DB	00H
	DB	00H
	DB	00H
	DB	00H
	DB	00H
	DB	00H
	DB	00H
	DB	00H
	DB	00H
	DB	00H
	DB	00H
	DB	00H
	DB	00H
	DB	00H
	DB	00H
	DB	00H
	DB	00H
	DB	00H
	DB	00H
	DB	00H
	DB	00H
	DB	00H
	DB	00H
	DB	00H
	DB	00H
	DB	00H
	DB	00H
	DB	00H
	DB	00H
	DB	00H
	DB	00H
	DB	00H
	DB	00H
	DB	00H
	DB	00H
	DB	00H
	DB	00H
	DB	00H
	DB	00H
	DB	00H
	DB	00H
	DB	00H
	DB	00H
	DB	00H
	DB	00H
	DB	00H
	DB	00H
	DB	00H
	DB	00H
	DB	00H
	DB	00H
	DB	00H
	DB	00H
	DB	00H
	DB	00H
	DB	00H
	DB	00H
	DB	00H
	DB	00H
	DB	00H
	DB	00H
	DB	00H
	DB	00H
	DB	00H
	DB	00H
	DB	00H
	DB	00H
	DB	00H
	DB	00H
	DB	00H
	DB	00H
	DB	00H
	DB	00H
	DB	00H
	DB	00H
	DB	00H
	DB	00H
	DB	00H
	DB	00H
	DB	00H
	DB	00H
	DB	00H
	DB	00H
	DB	00H
	DB	00H
	DB	00H
	DB	00H
	DB	00H
	DB	00H
	DB	00H
	DB	00H
	DB	00H
	DB	00H
	DB	00H
	DB	00H
	DB	00H
	DB	00H
	DB	00H
	DB	00H
	DB	00H
	DB	00H
	DB	00H
	DB	00H
	DB	00H
	DB	00H
	DB	00H
	DB	00H
	DB	00H
	DB	00H
	DB	00H
	DB	00H
	DB	00H
	DB	00H
	DB	00H
	DB	00H
	DB	00H
	DB	00H
	DB	00H
	DB	00H
	DB	00H
	DB	00H
	DB	00H
	DB	00H
	DB	00H
	DB	00H
	DB	00H
	DB	00H
	DB	00H
	DB	00H
	DB	00H
	DB	00H
	DB	00H
	DB	00H
	DB	00H
	DB	00H
	DB	00H
	DB	00H
	DB	00H
	DB	00H
	DB	00H
	DB	00H
	DB	00H
	DB	00H
	DB	00H
	DB	00H
	DB	00H
	DB	00H
	DB	00H
	DB	00H
	DB	00H
	DB	00H
	DB	00H
	DB	00H
	DB	00H
	DB	00H
	DB	00H
	DB	00H
	DB	00H
	DB	00H
	DB	00H
	DB	00H
	DB	00H
	DB	00H
	DB	00H
	DB	00H
	DB	00H
	DB	00H
	DB	00H
	DB	00H
	DB	00H
	DB	00H
	DB	00H
	DB	00H
	DB	00H
	DB	00H
	DB	00H
	DB	00H
	DB	00H
	DB	00H
	DB	00H
	DB	00H
	DB	00H
	DB	00H
	DB	00H
	DB	00H
	DB	00H
	DB	00H
	DB	00H
	DB	00H
	DB	00H
	DB	00H
	DB	00H
	DB	00H
	DB	00H
	DB	00H
	DB	00H
	DB	00H
	DB	00H
	DB	00H
	DB	00H
	DB	00H
	DB	00H
	DB	00H
	DB	00H
	DB	00H
	DB	00H
	DB	00H
	DB	00H
	DB	00H
	DB	00H
	DB	055H
	DB	055H
	DB	055H
	DB	03H
	DB	057H
	DB	057H
	DB	057H
	DB	04cH
	DB	056H
	DB	056H
	DB	056H
	DB	0b1H
	DB	056H
	DB	056H
	DB	056H
	DB	0fbH
	DB	056H
	DB	056H
	DB	056H
	DB	0ffH
	DB	056H
	DB	056H
	DB	056H
	DB	0ffH
	DB	051H
	DB	051H
	DB	051H
	DB	0ffH
	DB	039H
	DB	039H
	DB	039H
	DB	0ffH
	DB	020H
	DB	020H
	DB	020H
	DB	0ffH
	DB	0dH
	DB	0dH
	DB	0dH
	DB	0ffH
	DB	0bH
	DB	0bH
	DB	0bH
	DB	0ffH
	DB	0bH
	DB	0bH
	DB	0bH
	DB	0ffH
	DB	0bH
	DB	0bH
	DB	0bH
	DB	0ffH
	DB	0bH
	DB	0bH
	DB	0bH
	DB	0ffH
	DB	0bH
	DB	0bH
	DB	0bH
	DB	0ffH
	DB	0bH
	DB	0bH
	DB	0bH
	DB	0ffH
	DB	0bH
	DB	0bH
	DB	0bH
	DB	0ffH
	DB	0bH
	DB	0bH
	DB	0bH
	DB	0ffH
	DB	0bH
	DB	0bH
	DB	0bH
	DB	0ffH
	DB	0bH
	DB	0bH
	DB	0bH
	DB	0ffH
	DB	0bH
	DB	0bH
	DB	0bH
	DB	0ffH
	DB	0bH
	DB	0bH
	DB	0bH
	DB	0ffH
	DB	0bH
	DB	0bH
	DB	0bH
	DB	0ffH
	DB	0bH
	DB	0bH
	DB	0bH
	DB	0ffH
	DB	0bH
	DB	0bH
	DB	0bH
	DB	0ffH
	DB	0bH
	DB	0bH
	DB	0bH
	DB	0ffH
	DB	0bH
	DB	0bH
	DB	0bH
	DB	0ffH
	DB	0bH
	DB	0bH
	DB	0bH
	DB	0ffH
	DB	0bH
	DB	0bH
	DB	0bH
	DB	0ffH
	DB	0bH
	DB	0bH
	DB	0bH
	DB	0ffH
	DB	0bH
	DB	0bH
	DB	0bH
	DB	0ffH
	DB	0bH
	DB	0bH
	DB	0bH
	DB	0ffH
	DB	0bH
	DB	0bH
	DB	0bH
	DB	0ffH
	DB	0bH
	DB	0bH
	DB	0bH
	DB	0ffH
	DB	0bH
	DB	0bH
	DB	0bH
	DB	0ffH
	DB	0bH
	DB	0bH
	DB	0bH
	DB	0ffH
	DB	0bH
	DB	0bH
	DB	0bH
	DB	0ffH
	DB	0bH
	DB	0bH
	DB	0bH
	DB	0ffH
	DB	0bH
	DB	0bH
	DB	0bH
	DB	0ffH
	DB	0bH
	DB	0bH
	DB	0bH
	DB	0ffH
	DB	0bH
	DB	0bH
	DB	0bH
	DB	0ffH
	DB	0bH
	DB	0bH
	DB	0bH
	DB	0ffH
	DB	0bH
	DB	0bH
	DB	0bH
	DB	0ffH
	DB	0bH
	DB	0bH
	DB	0bH
	DB	0ffH
	DB	0bH
	DB	0bH
	DB	0bH
	DB	0ffH
	DB	0bH
	DB	0bH
	DB	0bH
	DB	0ffH
	DB	0bH
	DB	0bH
	DB	0bH
	DB	0ffH
	DB	0bH
	DB	0bH
	DB	0bH
	DB	0ffH
	DB	0bH
	DB	0bH
	DB	0bH
	DB	0ffH
	DB	0bH
	DB	0bH
	DB	0bH
	DB	0ffH
	DB	0bH
	DB	0bH
	DB	0bH
	DB	0ffH
	DB	0bH
	DB	0bH
	DB	0bH
	DB	0ffH
	DB	0bH
	DB	0bH
	DB	0bH
	DB	0ffH
	DB	0bH
	DB	0bH
	DB	0bH
	DB	0ffH
	DB	0bH
	DB	0bH
	DB	0bH
	DB	0ffH
	DB	0bH
	DB	0bH
	DB	0bH
	DB	0ffH
	DB	0bH
	DB	0bH
	DB	0bH
	DB	0ffH
	DB	0bH
	DB	0bH
	DB	0bH
	DB	0ffH
	DB	0bH
	DB	0bH
	DB	0bH
	DB	0ffH
	DB	0bH
	DB	0bH
	DB	0bH
	DB	0ffH
	DB	0bH
	DB	0bH
	DB	0bH
	DB	0ffH
	DB	0bH
	DB	0bH
	DB	0bH
	DB	0ffH
	DB	0dH
	DB	0dH
	DB	0dH
	DB	0ffH
	DB	021H
	DB	021H
	DB	021H
	DB	0ffH
	DB	03aH
	DB	03aH
	DB	03aH
	DB	0ffH
	DB	052H
	DB	052H
	DB	052H
	DB	0ffH
	DB	056H
	DB	056H
	DB	056H
	DB	0ffH
	DB	056H
	DB	056H
	DB	056H
	DB	0ffH
	DB	056H
	DB	056H
	DB	056H
	DB	0fbH
	DB	055H
	DB	055H
	DB	055H
	DB	0b0H
	DB	055H
	DB	055H
	DB	055H
	DB	04bH
	DB	055H
	DB	055H
	DB	055H
	DB	03H
	DB	00H
	DB	00H
	DB	00H
	DB	00H
	DB	00H
	DB	00H
	DB	00H
	DB	00H
	DB	00H
	DB	00H
	DB	00H
	DB	00H
	DB	00H
	DB	00H
	DB	00H
	DB	00H
	DB	00H
	DB	00H
	DB	00H
	DB	00H
	DB	00H
	DB	00H
	DB	00H
	DB	00H
	DB	00H
	DB	00H
	DB	00H
	DB	00H
	DB	00H
	DB	00H
	DB	00H
	DB	00H
	DB	00H
	DB	00H
	DB	00H
	DB	00H
	DB	00H
	DB	00H
	DB	00H
	DB	00H
	DB	00H
	DB	00H
	DB	00H
	DB	00H
	DB	00H
	DB	00H
	DB	00H
	DB	00H
	DB	00H
	DB	00H
	DB	00H
	DB	00H
	DB	00H
	DB	00H
	DB	00H
	DB	00H
	DB	00H
	DB	00H
	DB	00H
	DB	00H
	DB	00H
	DB	00H
	DB	00H
	DB	00H
	DB	00H
	DB	00H
	DB	00H
	DB	00H
	DB	00H
	DB	00H
	DB	00H
	DB	00H
	DB	00H
	DB	00H
	DB	00H
	DB	00H
	DB	00H
	DB	00H
	DB	00H
	DB	00H
	DB	00H
	DB	00H
	DB	00H
	DB	00H
	DB	00H
	DB	00H
	DB	00H
	DB	00H
	DB	00H
	DB	00H
	DB	00H
	DB	00H
	DB	00H
	DB	00H
	DB	00H
	DB	00H
	DB	00H
	DB	00H
	DB	00H
	DB	00H
	DB	00H
	DB	00H
	DB	00H
	DB	00H
	DB	00H
	DB	00H
	DB	00H
	DB	00H
	DB	00H
	DB	00H
	DB	00H
	DB	00H
	DB	00H
	DB	00H
	DB	00H
	DB	00H
	DB	00H
	DB	00H
	DB	00H
	DB	00H
	DB	00H
	DB	00H
	DB	00H
	DB	00H
	DB	00H
	DB	00H
	DB	00H
	DB	00H
	DB	00H
	DB	00H
	DB	00H
	DB	00H
	DB	00H
	DB	00H
	DB	00H
	DB	00H
	DB	00H
	DB	00H
	DB	00H
	DB	00H
	DB	00H
	DB	00H
	DB	00H
	DB	00H
	DB	00H
	DB	00H
	DB	00H
	DB	00H
	DB	00H
	DB	00H
	DB	00H
	DB	00H
	DB	00H
	DB	00H
	DB	00H
	DB	00H
	DB	00H
	DB	00H
	DB	00H
	DB	00H
	DB	00H
	DB	00H
	DB	00H
	DB	00H
	DB	00H
	DB	00H
	DB	00H
	DB	00H
	DB	00H
	DB	00H
	DB	00H
	DB	00H
	DB	00H
	DB	00H
	DB	00H
	DB	00H
	DB	00H
	DB	00H
	DB	00H
	DB	00H
	DB	00H
	DB	00H
	DB	00H
	DB	00H
	DB	00H
	DB	00H
	DB	00H
	DB	00H
	DB	00H
	DB	00H
	DB	00H
	DB	00H
	DB	00H
	DB	00H
	DB	00H
	DB	00H
	DB	00H
	DB	00H
	DB	00H
	DB	00H
	DB	00H
	DB	00H
	DB	00H
	DB	00H
	DB	00H
	DB	00H
	DB	00H
	DB	00H
	DB	00H
	DB	00H
	DB	00H
	DB	00H
	DB	00H
	DB	00H
	DB	00H
	DB	00H
	DB	00H
	DB	00H
	DB	00H
	DB	00H
	DB	00H
	DB	00H
	DB	00H
	DB	00H
	DB	00H
	DB	00H
	DB	00H
	DB	00H
	DB	00H
	DB	00H
	DB	00H
	DB	00H
	DB	00H
	DB	00H
	DB	00H
	DB	00H
	DB	00H
	DB	00H
	DB	00H
	DB	00H
	DB	00H
	DB	00H
	DB	00H
	DB	00H
	DB	00H
	DB	00H
	DB	00H
	DB	00H
	DB	00H
	DB	00H
	DB	00H
	DB	00H
	DB	00H
	DB	00H
	DB	00H
	DB	00H
	DB	00H
	DB	00H
	DB	00H
	DB	00H
	DB	00H
	DB	00H
	DB	00H
	DB	00H
	DB	00H
	DB	00H
	DB	00H
	DB	00H
	DB	00H
	DB	00H
	DB	00H
	DB	00H
	DB	00H
	DB	00H
	DB	00H
	DB	00H
	DB	00H
	DB	00H
	DB	00H
	DB	00H
	DB	00H
	DB	00H
	DB	00H
	DB	00H
	DB	00H
	DB	00H
	DB	00H
	DB	00H
	DB	00H
	DB	00H
	DB	00H
	DB	00H
	DB	00H
	DB	00H
	DB	00H
	DB	00H
	DB	00H
	DB	00H
	DB	00H
	DB	00H
	DB	00H
	DB	00H
	DB	00H
	DB	00H
	DB	00H
	DB	00H
	DB	00H
	DB	00H
	DB	00H
	DB	00H
	DB	00H
	DB	00H
	DB	00H
	DB	00H
	DB	00H
	DB	00H
	DB	00H
	DB	00H
	DB	00H
	DB	00H
	DB	00H
	DB	00H
	DB	00H
	DB	00H
	DB	00H
	DB	00H
	DB	00H
	DB	00H
	DB	00H
	DB	00H
	DB	00H
	DB	00H
	DB	00H
	DB	00H
	DB	00H
	DB	00H
	DB	00H
	DB	00H
	DB	00H
	DB	00H
	DB	00H
	DB	00H
	DB	00H
	DB	00H
	DB	00H
	DB	00H
	DB	00H
	DB	00H
	DB	00H
	DB	00H
	DB	00H
	DB	00H
	DB	00H
	DB	00H
	DB	00H
	DB	00H
	DB	00H
	DB	00H
	DB	00H
	DB	00H
	DB	00H
	DB	00H
	DB	00H
	DB	00H
	DB	00H
	DB	00H
	DB	00H
	DB	00H
	DB	00H
	DB	00H
	DB	00H
	DB	00H
	DB	00H
	DB	00H
	DB	00H
	DB	00H
	DB	00H
	DB	00H
	DB	00H
	DB	00H
	DB	00H
	DB	00H
	DB	00H
	DB	00H
	DB	00H
	DB	00H
	DB	00H
	DB	00H
	DB	00H
	DB	00H
	DB	00H
	DB	00H
	DB	00H
	DB	00H
	DB	00H
	DB	00H
	DB	00H
	DB	00H
	DB	00H
	DB	00H
	DB	00H
	DB	00H
	DB	00H
	DB	00H
	DB	00H
	DB	00H
	DB	00H
	DB	00H
	DB	00H
	DB	00H
	DB	00H
	DB	00H
	DB	00H
	DB	00H
	DB	00H
	DB	00H
	DB	00H
	DB	00H
	DB	00H
	DB	00H
	DB	00H
	DB	00H
	DB	00H
	DB	00H
	DB	00H
	DB	00H
	DB	00H
	DB	00H
	DB	00H
	DB	00H
	DB	00H
	DB	00H
	DB	00H
	DB	00H
	DB	00H
	DB	00H
	DB	00H
	DB	00H
	DB	00H
	DB	00H
	DB	050H
	DB	050H
	DB	050H
	DB	010H
	DB	056H
	DB	056H
	DB	056H
	DB	077H
	DB	056H
	DB	056H
	DB	056H
	DB	0e3H
	DB	056H
	DB	056H
	DB	056H
	DB	0ffH
	DB	056H
	DB	056H
	DB	056H
	DB	0ffH
	DB	054H
	DB	054H
	DB	054H
	DB	0ffH
	DB	03dH
	DB	03dH
	DB	03dH
	DB	0ffH
	DB	021H
	DB	021H
	DB	021H
	DB	0ffH
	DB	0dH
	DB	0dH
	DB	0dH
	DB	0ffH
	DB	0bH
	DB	0bH
	DB	0bH
	DB	0ffH
	DB	0bH
	DB	0bH
	DB	0bH
	DB	0ffH
	DB	0bH
	DB	0bH
	DB	0bH
	DB	0ffH
	DB	0bH
	DB	0bH
	DB	0bH
	DB	0ffH
	DB	0bH
	DB	0bH
	DB	0bH
	DB	0ffH
	DB	0bH
	DB	0bH
	DB	0bH
	DB	0ffH
	DB	0bH
	DB	0bH
	DB	0bH
	DB	0ffH
	DB	0bH
	DB	0bH
	DB	0bH
	DB	0ffH
	DB	0bH
	DB	0bH
	DB	0bH
	DB	0ffH
	DB	0bH
	DB	0bH
	DB	0bH
	DB	0ffH
	DB	0bH
	DB	0bH
	DB	0bH
	DB	0ffH
	DB	0bH
	DB	0bH
	DB	0bH
	DB	0ffH
	DB	0bH
	DB	0bH
	DB	0bH
	DB	0ffH
	DB	0bH
	DB	0bH
	DB	0bH
	DB	0ffH
	DB	0bH
	DB	0bH
	DB	0bH
	DB	0ffH
	DB	0bH
	DB	0bH
	DB	0bH
	DB	0ffH
	DB	0bH
	DB	0bH
	DB	0bH
	DB	0ffH
	DB	0bH
	DB	0bH
	DB	0bH
	DB	0ffH
	DB	0bH
	DB	0bH
	DB	0bH
	DB	0ffH
	DB	0bH
	DB	0bH
	DB	0bH
	DB	0ffH
	DB	0bH
	DB	0bH
	DB	0bH
	DB	0ffH
	DB	0bH
	DB	0bH
	DB	0bH
	DB	0ffH
	DB	0bH
	DB	0bH
	DB	0bH
	DB	0ffH
	DB	0bH
	DB	0bH
	DB	0bH
	DB	0ffH
	DB	0bH
	DB	0bH
	DB	0bH
	DB	0ffH
	DB	0bH
	DB	0bH
	DB	0bH
	DB	0ffH
	DB	0bH
	DB	0bH
	DB	0bH
	DB	0ffH
	DB	0bH
	DB	0bH
	DB	0bH
	DB	0ffH
	DB	0bH
	DB	0bH
	DB	0bH
	DB	0ffH
	DB	0bH
	DB	0bH
	DB	0bH
	DB	0ffH
	DB	0bH
	DB	0bH
	DB	0bH
	DB	0ffH
	DB	0bH
	DB	0bH
	DB	0bH
	DB	0ffH
	DB	0bH
	DB	0bH
	DB	0bH
	DB	0ffH
	DB	0bH
	DB	0bH
	DB	0bH
	DB	0ffH
	DB	0bH
	DB	0bH
	DB	0bH
	DB	0ffH
	DB	0bH
	DB	0bH
	DB	0bH
	DB	0ffH
	DB	0bH
	DB	0bH
	DB	0bH
	DB	0ffH
	DB	0bH
	DB	0bH
	DB	0bH
	DB	0ffH
	DB	0bH
	DB	0bH
	DB	0bH
	DB	0ffH
	DB	0bH
	DB	0bH
	DB	0bH
	DB	0ffH
	DB	0bH
	DB	0bH
	DB	0bH
	DB	0ffH
	DB	0bH
	DB	0bH
	DB	0bH
	DB	0ffH
	DB	0bH
	DB	0bH
	DB	0bH
	DB	0ffH
	DB	0bH
	DB	0bH
	DB	0bH
	DB	0ffH
	DB	0bH
	DB	0bH
	DB	0bH
	DB	0ffH
	DB	0bH
	DB	0bH
	DB	0bH
	DB	0ffH
	DB	0bH
	DB	0bH
	DB	0bH
	DB	0ffH
	DB	0bH
	DB	0bH
	DB	0bH
	DB	0ffH
	DB	0bH
	DB	0bH
	DB	0bH
	DB	0ffH
	DB	0bH
	DB	0bH
	DB	0bH
	DB	0ffH
	DB	0bH
	DB	0bH
	DB	0bH
	DB	0ffH
	DB	0bH
	DB	0bH
	DB	0bH
	DB	0ffH
	DB	0bH
	DB	0bH
	DB	0bH
	DB	0ffH
	DB	0bH
	DB	0bH
	DB	0bH
	DB	0ffH
	DB	0bH
	DB	0bH
	DB	0bH
	DB	0ffH
	DB	0bH
	DB	0bH
	DB	0bH
	DB	0ffH
	DB	0bH
	DB	0bH
	DB	0bH
	DB	0ffH
	DB	0bH
	DB	0bH
	DB	0bH
	DB	0ffH
	DB	0dH
	DB	0dH
	DB	0dH
	DB	0ffH
	DB	022H
	DB	022H
	DB	022H
	DB	0ffH
	DB	03eH
	DB	03eH
	DB	03eH
	DB	0ffH
	DB	054H
	DB	054H
	DB	054H
	DB	0ffH
	DB	056H
	DB	056H
	DB	056H
	DB	0ffH
	DB	056H
	DB	056H
	DB	056H
	DB	0ffH
	DB	056H
	DB	056H
	DB	056H
	DB	0e2H
	DB	056H
	DB	056H
	DB	056H
	DB	077H
	DB	050H
	DB	050H
	DB	050H
	DB	010H
	DB	00H
	DB	00H
	DB	00H
	DB	00H
	DB	00H
	DB	00H
	DB	00H
	DB	00H
	DB	00H
	DB	00H
	DB	00H
	DB	00H
	DB	00H
	DB	00H
	DB	00H
	DB	00H
	DB	00H
	DB	00H
	DB	00H
	DB	00H
	DB	00H
	DB	00H
	DB	00H
	DB	00H
	DB	00H
	DB	00H
	DB	00H
	DB	00H
	DB	00H
	DB	00H
	DB	00H
	DB	00H
	DB	00H
	DB	00H
	DB	00H
	DB	00H
	DB	00H
	DB	00H
	DB	00H
	DB	00H
	DB	00H
	DB	00H
	DB	00H
	DB	00H
	DB	00H
	DB	00H
	DB	00H
	DB	00H
	DB	00H
	DB	00H
	DB	00H
	DB	00H
	DB	00H
	DB	00H
	DB	00H
	DB	00H
	DB	00H
	DB	00H
	DB	00H
	DB	00H
	DB	00H
	DB	00H
	DB	00H
	DB	00H
	DB	00H
	DB	00H
	DB	00H
	DB	00H
	DB	00H
	DB	00H
	DB	00H
	DB	00H
	DB	00H
	DB	00H
	DB	00H
	DB	00H
	DB	00H
	DB	00H
	DB	00H
	DB	00H
	DB	00H
	DB	00H
	DB	00H
	DB	00H
	DB	00H
	DB	00H
	DB	00H
	DB	00H
	DB	00H
	DB	00H
	DB	00H
	DB	00H
	DB	00H
	DB	00H
	DB	00H
	DB	00H
	DB	00H
	DB	00H
	DB	00H
	DB	00H
	DB	00H
	DB	00H
	DB	00H
	DB	00H
	DB	00H
	DB	00H
	DB	00H
	DB	00H
	DB	00H
	DB	00H
	DB	00H
	DB	00H
	DB	00H
	DB	00H
	DB	00H
	DB	00H
	DB	00H
	DB	00H
	DB	00H
	DB	00H
	DB	00H
	DB	00H
	DB	00H
	DB	00H
	DB	00H
	DB	00H
	DB	00H
	DB	00H
	DB	00H
	DB	00H
	DB	00H
	DB	00H
	DB	00H
	DB	00H
	DB	00H
	DB	00H
	DB	00H
	DB	00H
	DB	00H
	DB	00H
	DB	00H
	DB	00H
	DB	00H
	DB	00H
	DB	00H
	DB	00H
	DB	00H
	DB	00H
	DB	00H
	DB	00H
	DB	00H
	DB	00H
	DB	00H
	DB	00H
	DB	00H
	DB	00H
	DB	00H
	DB	00H
	DB	00H
	DB	00H
	DB	00H
	DB	00H
	DB	00H
	DB	00H
	DB	00H
	DB	00H
	DB	00H
	DB	00H
	DB	00H
	DB	00H
	DB	00H
	DB	00H
	DB	00H
	DB	00H
	DB	00H
	DB	00H
	DB	00H
	DB	00H
	DB	00H
	DB	00H
	DB	00H
	DB	00H
	DB	00H
	DB	00H
	DB	00H
	DB	00H
	DB	00H
	DB	00H
	DB	00H
	DB	00H
	DB	00H
	DB	00H
	DB	00H
	DB	00H
	DB	00H
	DB	00H
	DB	00H
	DB	00H
	DB	00H
	DB	00H
	DB	00H
	DB	00H
	DB	00H
	DB	00H
	DB	00H
	DB	00H
	DB	00H
	DB	00H
	DB	00H
	DB	00H
	DB	00H
	DB	00H
	DB	00H
	DB	00H
	DB	00H
	DB	00H
	DB	00H
	DB	00H
	DB	00H
	DB	00H
	DB	00H
	DB	00H
	DB	00H
	DB	00H
	DB	00H
	DB	00H
	DB	00H
	DB	00H
	DB	00H
	DB	00H
	DB	00H
	DB	00H
	DB	00H
	DB	00H
	DB	00H
	DB	00H
	DB	00H
	DB	00H
	DB	00H
	DB	00H
	DB	00H
	DB	00H
	DB	00H
	DB	00H
	DB	00H
	DB	00H
	DB	00H
	DB	00H
	DB	00H
	DB	00H
	DB	00H
	DB	00H
	DB	00H
	DB	00H
	DB	00H
	DB	00H
	DB	00H
	DB	00H
	DB	00H
	DB	00H
	DB	00H
	DB	00H
	DB	00H
	DB	00H
	DB	00H
	DB	00H
	DB	00H
	DB	00H
	DB	00H
	DB	00H
	DB	00H
	DB	00H
	DB	00H
	DB	00H
	DB	00H
	DB	00H
	DB	00H
	DB	00H
	DB	00H
	DB	00H
	DB	00H
	DB	00H
	DB	00H
	DB	00H
	DB	00H
	DB	00H
	DB	00H
	DB	00H
	DB	00H
	DB	00H
	DB	00H
	DB	00H
	DB	00H
	DB	00H
	DB	00H
	DB	00H
	DB	00H
	DB	00H
	DB	00H
	DB	00H
	DB	00H
	DB	00H
	DB	00H
	DB	00H
	DB	00H
	DB	00H
	DB	00H
	DB	00H
	DB	00H
	DB	00H
	DB	00H
	DB	00H
	DB	00H
	DB	00H
	DB	00H
	DB	00H
	DB	00H
	DB	00H
	DB	00H
	DB	00H
	DB	00H
	DB	00H
	DB	00H
	DB	00H
	DB	00H
	DB	00H
	DB	00H
	DB	00H
	DB	00H
	DB	00H
	DB	00H
	DB	00H
	DB	00H
	DB	00H
	DB	00H
	DB	00H
	DB	00H
	DB	00H
	DB	00H
	DB	00H
	DB	00H
	DB	00H
	DB	00H
	DB	00H
	DB	00H
	DB	00H
	DB	00H
	DB	00H
	DB	00H
	DB	00H
	DB	00H
	DB	00H
	DB	00H
	DB	00H
	DB	00H
	DB	00H
	DB	00H
	DB	00H
	DB	00H
	DB	00H
	DB	00H
	DB	00H
	DB	00H
	DB	00H
	DB	00H
	DB	00H
	DB	00H
	DB	00H
	DB	00H
	DB	00H
	DB	00H
	DB	00H
	DB	00H
	DB	00H
	DB	00H
	DB	00H
	DB	00H
	DB	00H
	DB	00H
	DB	00H
	DB	00H
	DB	00H
	DB	00H
	DB	00H
	DB	00H
	DB	00H
	DB	00H
	DB	00H
	DB	00H
	DB	00H
	DB	00H
	DB	00H
	DB	00H
	DB	00H
	DB	00H
	DB	00H
	DB	00H
	DB	00H
	DB	00H
	DB	00H
	DB	00H
	DB	00H
	DB	00H
	DB	00H
	DB	00H
	DB	00H
	DB	00H
	DB	00H
	DB	00H
	DB	00H
	DB	00H
	DB	00H
	DB	00H
	DB	00H
	DB	00H
	DB	00H
	DB	00H
	DB	00H
	DB	00H
	DB	00H
	DB	00H
	DB	00H
	DB	00H
	DB	00H
	DB	058H
	DB	058H
	DB	058H
	DB	020H
	DB	056H
	DB	056H
	DB	056H
	DB	088H
	DB	056H
	DB	056H
	DB	056H
	DB	0efH
	DB	056H
	DB	056H
	DB	056H
	DB	0ffH
	DB	056H
	DB	056H
	DB	056H
	DB	0ffH
	DB	04cH
	DB	04cH
	DB	04cH
	DB	0ffH
	DB	02eH
	DB	02eH
	DB	02eH
	DB	0ffH
	DB	011H
	DB	011H
	DB	011H
	DB	0ffH
	DB	0bH
	DB	0bH
	DB	0bH
	DB	0ffH
	DB	0bH
	DB	0bH
	DB	0bH
	DB	0ffH
	DB	0bH
	DB	0bH
	DB	0bH
	DB	0ffH
	DB	0bH
	DB	0bH
	DB	0bH
	DB	0ffH
	DB	0bH
	DB	0bH
	DB	0bH
	DB	0ffH
	DB	0bH
	DB	0bH
	DB	0bH
	DB	0ffH
	DB	0bH
	DB	0bH
	DB	0bH
	DB	0ffH
	DB	0bH
	DB	0bH
	DB	0bH
	DB	0ffH
	DB	0bH
	DB	0bH
	DB	0bH
	DB	0ffH
	DB	0bH
	DB	0bH
	DB	0bH
	DB	0ffH
	DB	0bH
	DB	0bH
	DB	0bH
	DB	0ffH
	DB	0bH
	DB	0bH
	DB	0bH
	DB	0ffH
	DB	0bH
	DB	0bH
	DB	0bH
	DB	0ffH
	DB	0bH
	DB	0bH
	DB	0bH
	DB	0ffH
	DB	0bH
	DB	0bH
	DB	0bH
	DB	0ffH
	DB	0bH
	DB	0bH
	DB	0bH
	DB	0ffH
	DB	0bH
	DB	0bH
	DB	0bH
	DB	0ffH
	DB	0bH
	DB	0bH
	DB	0bH
	DB	0ffH
	DB	0bH
	DB	0bH
	DB	0bH
	DB	0ffH
	DB	0bH
	DB	0bH
	DB	0bH
	DB	0ffH
	DB	0bH
	DB	0bH
	DB	0bH
	DB	0ffH
	DB	0bH
	DB	0bH
	DB	0bH
	DB	0ffH
	DB	0bH
	DB	0bH
	DB	0bH
	DB	0ffH
	DB	0bH
	DB	0bH
	DB	0bH
	DB	0ffH
	DB	0bH
	DB	0bH
	DB	0bH
	DB	0ffH
	DB	0bH
	DB	0bH
	DB	0bH
	DB	0ffH
	DB	0bH
	DB	0bH
	DB	0bH
	DB	0ffH
	DB	0bH
	DB	0bH
	DB	0bH
	DB	0ffH
	DB	0bH
	DB	0bH
	DB	0bH
	DB	0ffH
	DB	0bH
	DB	0bH
	DB	0bH
	DB	0ffH
	DB	0bH
	DB	0bH
	DB	0bH
	DB	0ffH
	DB	0bH
	DB	0bH
	DB	0bH
	DB	0ffH
	DB	0bH
	DB	0bH
	DB	0bH
	DB	0ffH
	DB	0bH
	DB	0bH
	DB	0bH
	DB	0ffH
	DB	0bH
	DB	0bH
	DB	0bH
	DB	0ffH
	DB	0bH
	DB	0bH
	DB	0bH
	DB	0ffH
	DB	0bH
	DB	0bH
	DB	0bH
	DB	0ffH
	DB	0bH
	DB	0bH
	DB	0bH
	DB	0ffH
	DB	0bH
	DB	0bH
	DB	0bH
	DB	0ffH
	DB	0bH
	DB	0bH
	DB	0bH
	DB	0ffH
	DB	0bH
	DB	0bH
	DB	0bH
	DB	0ffH
	DB	0bH
	DB	0bH
	DB	0bH
	DB	0ffH
	DB	0bH
	DB	0bH
	DB	0bH
	DB	0ffH
	DB	0bH
	DB	0bH
	DB	0bH
	DB	0ffH
	DB	0bH
	DB	0bH
	DB	0bH
	DB	0ffH
	DB	0bH
	DB	0bH
	DB	0bH
	DB	0ffH
	DB	0bH
	DB	0bH
	DB	0bH
	DB	0ffH
	DB	0bH
	DB	0bH
	DB	0bH
	DB	0ffH
	DB	0bH
	DB	0bH
	DB	0bH
	DB	0ffH
	DB	0bH
	DB	0bH
	DB	0bH
	DB	0ffH
	DB	0bH
	DB	0bH
	DB	0bH
	DB	0ffH
	DB	0bH
	DB	0bH
	DB	0bH
	DB	0ffH
	DB	0bH
	DB	0bH
	DB	0bH
	DB	0ffH
	DB	0bH
	DB	0bH
	DB	0bH
	DB	0ffH
	DB	0bH
	DB	0bH
	DB	0bH
	DB	0ffH
	DB	0bH
	DB	0bH
	DB	0bH
	DB	0ffH
	DB	0bH
	DB	0bH
	DB	0bH
	DB	0ffH
	DB	0bH
	DB	0bH
	DB	0bH
	DB	0ffH
	DB	0bH
	DB	0bH
	DB	0bH
	DB	0ffH
	DB	0bH
	DB	0bH
	DB	0bH
	DB	0ffH
	DB	0bH
	DB	0bH
	DB	0bH
	DB	0ffH
	DB	0bH
	DB	0bH
	DB	0bH
	DB	0ffH
	DB	0bH
	DB	0bH
	DB	0bH
	DB	0ffH
	DB	0bH
	DB	0bH
	DB	0bH
	DB	0ffH
	DB	010H
	DB	010H
	DB	010H
	DB	0ffH
	DB	029H
	DB	029H
	DB	029H
	DB	0ffH
	DB	049H
	DB	049H
	DB	049H
	DB	0ffH
	DB	056H
	DB	056H
	DB	056H
	DB	0ffH
	DB	056H
	DB	056H
	DB	056H
	DB	0ffH
	DB	056H
	DB	056H
	DB	056H
	DB	0f3H
	DB	057H
	DB	057H
	DB	057H
	DB	099H
	DB	057H
	DB	057H
	DB	057H
	DB	026H
	DB	00H
	DB	00H
	DB	00H
	DB	00H
	DB	00H
	DB	00H
	DB	00H
	DB	00H
	DB	00H
	DB	00H
	DB	00H
	DB	00H
	DB	00H
	DB	00H
	DB	00H
	DB	00H
	DB	00H
	DB	00H
	DB	00H
	DB	00H
	DB	00H
	DB	00H
	DB	00H
	DB	00H
	DB	00H
	DB	00H
	DB	00H
	DB	00H
	DB	00H
	DB	00H
	DB	00H
	DB	00H
	DB	00H
	DB	00H
	DB	00H
	DB	00H
	DB	00H
	DB	00H
	DB	00H
	DB	00H
	DB	00H
	DB	00H
	DB	00H
	DB	00H
	DB	00H
	DB	00H
	DB	00H
	DB	00H
	DB	00H
	DB	00H
	DB	00H
	DB	00H
	DB	00H
	DB	00H
	DB	00H
	DB	00H
	DB	00H
	DB	00H
	DB	00H
	DB	00H
	DB	00H
	DB	00H
	DB	00H
	DB	00H
	DB	00H
	DB	00H
	DB	00H
	DB	00H
	DB	00H
	DB	00H
	DB	00H
	DB	00H
	DB	00H
	DB	00H
	DB	00H
	DB	00H
	DB	00H
	DB	00H
	DB	00H
	DB	00H
	DB	00H
	DB	00H
	DB	00H
	DB	00H
	DB	00H
	DB	00H
	DB	00H
	DB	00H
	DB	00H
	DB	00H
	DB	00H
	DB	00H
	DB	00H
	DB	00H
	DB	00H
	DB	00H
	DB	00H
	DB	00H
	DB	00H
	DB	00H
	DB	00H
	DB	00H
	DB	00H
	DB	00H
	DB	00H
	DB	00H
	DB	00H
	DB	00H
	DB	00H
	DB	00H
	DB	00H
	DB	00H
	DB	00H
	DB	00H
	DB	00H
	DB	00H
	DB	00H
	DB	00H
	DB	00H
	DB	00H
	DB	00H
	DB	00H
	DB	00H
	DB	00H
	DB	00H
	DB	00H
	DB	00H
	DB	00H
	DB	00H
	DB	00H
	DB	00H
	DB	00H
	DB	00H
	DB	00H
	DB	00H
	DB	00H
	DB	00H
	DB	00H
	DB	00H
	DB	00H
	DB	00H
	DB	00H
	DB	00H
	DB	00H
	DB	00H
	DB	00H
	DB	00H
	DB	00H
	DB	00H
	DB	00H
	DB	00H
	DB	00H
	DB	00H
	DB	00H
	DB	00H
	DB	00H
	DB	00H
	DB	00H
	DB	00H
	DB	00H
	DB	00H
	DB	00H
	DB	00H
	DB	00H
	DB	00H
	DB	00H
	DB	00H
	DB	00H
	DB	00H
	DB	00H
	DB	00H
	DB	00H
	DB	00H
	DB	00H
	DB	00H
	DB	00H
	DB	00H
	DB	00H
	DB	00H
	DB	00H
	DB	00H
	DB	00H
	DB	00H
	DB	00H
	DB	00H
	DB	00H
	DB	00H
	DB	00H
	DB	00H
	DB	00H
	DB	00H
	DB	00H
	DB	00H
	DB	00H
	DB	00H
	DB	00H
	DB	00H
	DB	00H
	DB	00H
	DB	00H
	DB	00H
	DB	00H
	DB	00H
	DB	00H
	DB	00H
	DB	00H
	DB	00H
	DB	00H
	DB	00H
	DB	00H
	DB	00H
	DB	00H
	DB	00H
	DB	00H
	DB	00H
	DB	00H
	DB	00H
	DB	00H
	DB	00H
	DB	00H
	DB	00H
	DB	00H
	DB	00H
	DB	00H
	DB	00H
	DB	00H
	DB	00H
	DB	00H
	DB	00H
	DB	00H
	DB	00H
	DB	00H
	DB	00H
	DB	00H
	DB	00H
	DB	00H
	DB	00H
	DB	00H
	DB	00H
	DB	00H
	DB	00H
	DB	00H
	DB	00H
	DB	00H
	DB	00H
	DB	00H
	DB	00H
	DB	00H
	DB	00H
	DB	00H
	DB	00H
	DB	00H
	DB	00H
	DB	00H
	DB	00H
	DB	00H
	DB	00H
	DB	00H
	DB	00H
	DB	00H
	DB	00H
	DB	00H
	DB	00H
	DB	00H
	DB	00H
	DB	00H
	DB	00H
	DB	00H
	DB	00H
	DB	00H
	DB	00H
	DB	00H
	DB	00H
	DB	00H
	DB	00H
	DB	00H
	DB	00H
	DB	00H
	DB	00H
	DB	00H
	DB	00H
	DB	00H
	DB	00H
	DB	00H
	DB	00H
	DB	00H
	DB	00H
	DB	00H
	DB	00H
	DB	00H
	DB	00H
	DB	00H
	DB	00H
	DB	00H
	DB	00H
	DB	00H
	DB	00H
	DB	00H
	DB	00H
	DB	00H
	DB	00H
	DB	00H
	DB	00H
	DB	00H
	DB	00H
	DB	00H
	DB	00H
	DB	00H
	DB	00H
	DB	00H
	DB	00H
	DB	00H
	DB	00H
	DB	00H
	DB	00H
	DB	00H
	DB	00H
	DB	00H
	DB	00H
	DB	00H
	DB	00H
	DB	00H
	DB	00H
	DB	00H
	DB	00H
	DB	00H
	DB	00H
	DB	00H
	DB	00H
	DB	00H
	DB	00H
	DB	00H
	DB	00H
	DB	00H
	DB	00H
	DB	00H
	DB	00H
	DB	00H
	DB	00H
	DB	00H
	DB	00H
	DB	00H
	DB	00H
	DB	00H
	DB	00H
	DB	00H
	DB	00H
	DB	00H
	DB	00H
	DB	00H
	DB	00H
	DB	00H
	DB	00H
	DB	00H
	DB	00H
	DB	00H
	DB	00H
	DB	00H
	DB	00H
	DB	00H
	DB	00H
	DB	00H
	DB	00H
	DB	00H
	DB	00H
	DB	00H
	DB	00H
	DB	00H
	DB	00H
	DB	00H
	DB	00H
	DB	00H
	DB	00H
	DB	00H
	DB	00H
	DB	00H
	DB	00H
	DB	00H
	DB	00H
	DB	00H
	DB	00H
	DB	00H
	DB	00H
	DB	00H
	DB	00H
	DB	00H
	DB	00H
	DB	00H
	DB	00H
	DB	00H
	DB	00H
	DB	00H
	DB	00H
	DB	00H
	DB	00H
	DB	00H
	DB	00H
	DB	00H
	DB	00H
	DB	00H
	DB	00H
	DB	00H
	DB	00H
	DB	00H
	DB	00H
	DB	00H
	DB	00H
	DB	00H
	DB	053H
	DB	053H
	DB	053H
	DB	022H
	DB	056H
	DB	056H
	DB	056H
	DB	0a0H
	DB	056H
	DB	056H
	DB	056H
	DB	0fcH
	DB	056H
	DB	056H
	DB	056H
	DB	0ffH
	DB	056H
	DB	056H
	DB	056H
	DB	0ffH
	DB	041H
	DB	041H
	DB	041H
	DB	0ffH
	DB	020H
	DB	020H
	DB	020H
	DB	0ffH
	DB	0bH
	DB	0bH
	DB	0bH
	DB	0ffH
	DB	0bH
	DB	0bH
	DB	0bH
	DB	0ffH
	DB	0bH
	DB	0bH
	DB	0bH
	DB	0ffH
	DB	0bH
	DB	0bH
	DB	0bH
	DB	0ffH
	DB	0bH
	DB	0bH
	DB	0bH
	DB	0ffH
	DB	0bH
	DB	0bH
	DB	0bH
	DB	0ffH
	DB	0bH
	DB	0bH
	DB	0bH
	DB	0ffH
	DB	0bH
	DB	0bH
	DB	0bH
	DB	0ffH
	DB	0bH
	DB	0bH
	DB	0bH
	DB	0ffH
	DB	0bH
	DB	0bH
	DB	0bH
	DB	0ffH
	DB	0bH
	DB	0bH
	DB	0bH
	DB	0ffH
	DB	0bH
	DB	0bH
	DB	0bH
	DB	0ffH
	DB	0bH
	DB	0bH
	DB	0bH
	DB	0ffH
	DB	0bH
	DB	0bH
	DB	0bH
	DB	0ffH
	DB	0bH
	DB	0bH
	DB	0bH
	DB	0ffH
	DB	0bH
	DB	0bH
	DB	0bH
	DB	0ffH
	DB	0bH
	DB	0bH
	DB	0bH
	DB	0ffH
	DB	0bH
	DB	0bH
	DB	0bH
	DB	0ffH
	DB	0bH
	DB	0bH
	DB	0bH
	DB	0ffH
	DB	0bH
	DB	0bH
	DB	0bH
	DB	0ffH
	DB	0bH
	DB	0bH
	DB	0bH
	DB	0ffH
	DB	0bH
	DB	0bH
	DB	0bH
	DB	0ffH
	DB	0bH
	DB	0bH
	DB	0bH
	DB	0ffH
	DB	0bH
	DB	0bH
	DB	0bH
	DB	0ffH
	DB	0bH
	DB	0bH
	DB	0bH
	DB	0ffH
	DB	0bH
	DB	0bH
	DB	0bH
	DB	0ffH
	DB	0bH
	DB	0bH
	DB	0bH
	DB	0ffH
	DB	0bH
	DB	0bH
	DB	0bH
	DB	0ffH
	DB	0bH
	DB	0bH
	DB	0bH
	DB	0ffH
	DB	0bH
	DB	0bH
	DB	0bH
	DB	0ffH
	DB	0bH
	DB	0bH
	DB	0bH
	DB	0ffH
	DB	0bH
	DB	0bH
	DB	0bH
	DB	0ffH
	DB	0bH
	DB	0bH
	DB	0bH
	DB	0ffH
	DB	0bH
	DB	0bH
	DB	0bH
	DB	0ffH
	DB	0bH
	DB	0bH
	DB	0bH
	DB	0ffH
	DB	0bH
	DB	0bH
	DB	0bH
	DB	0ffH
	DB	0bH
	DB	0bH
	DB	0bH
	DB	0ffH
	DB	0bH
	DB	0bH
	DB	0bH
	DB	0ffH
	DB	0bH
	DB	0bH
	DB	0bH
	DB	0ffH
	DB	0bH
	DB	0bH
	DB	0bH
	DB	0ffH
	DB	0bH
	DB	0bH
	DB	0bH
	DB	0ffH
	DB	0bH
	DB	0bH
	DB	0bH
	DB	0ffH
	DB	0bH
	DB	0bH
	DB	0bH
	DB	0ffH
	DB	0bH
	DB	0bH
	DB	0bH
	DB	0ffH
	DB	0bH
	DB	0bH
	DB	0bH
	DB	0ffH
	DB	0bH
	DB	0bH
	DB	0bH
	DB	0ffH
	DB	0bH
	DB	0bH
	DB	0bH
	DB	0ffH
	DB	0bH
	DB	0bH
	DB	0bH
	DB	0ffH
	DB	0bH
	DB	0bH
	DB	0bH
	DB	0ffH
	DB	0bH
	DB	0bH
	DB	0bH
	DB	0ffH
	DB	0bH
	DB	0bH
	DB	0bH
	DB	0ffH
	DB	0bH
	DB	0bH
	DB	0bH
	DB	0ffH
	DB	0bH
	DB	0bH
	DB	0bH
	DB	0ffH
	DB	0bH
	DB	0bH
	DB	0bH
	DB	0ffH
	DB	0bH
	DB	0bH
	DB	0bH
	DB	0ffH
	DB	0bH
	DB	0bH
	DB	0bH
	DB	0ffH
	DB	0bH
	DB	0bH
	DB	0bH
	DB	0ffH
	DB	0bH
	DB	0bH
	DB	0bH
	DB	0ffH
	DB	0bH
	DB	0bH
	DB	0bH
	DB	0ffH
	DB	0bH
	DB	0bH
	DB	0bH
	DB	0ffH
	DB	0bH
	DB	0bH
	DB	0bH
	DB	0ffH
	DB	0bH
	DB	0bH
	DB	0bH
	DB	0ffH
	DB	0bH
	DB	0bH
	DB	0bH
	DB	0ffH
	DB	0bH
	DB	0bH
	DB	0bH
	DB	0ffH
	DB	0bH
	DB	0bH
	DB	0bH
	DB	0ffH
	DB	0bH
	DB	0bH
	DB	0bH
	DB	0ffH
	DB	0bH
	DB	0bH
	DB	0bH
	DB	0ffH
	DB	0bH
	DB	0bH
	DB	0bH
	DB	0ffH
	DB	0bH
	DB	0bH
	DB	0bH
	DB	0ffH
	DB	0bH
	DB	0bH
	DB	0bH
	DB	0ffH
	DB	020H
	DB	020H
	DB	020H
	DB	0ffH
	DB	042H
	DB	042H
	DB	042H
	DB	0ffH
	DB	056H
	DB	056H
	DB	056H
	DB	0ffH
	DB	056H
	DB	056H
	DB	056H
	DB	0ffH
	DB	056H
	DB	056H
	DB	056H
	DB	0fbH
	DB	057H
	DB	057H
	DB	057H
	DB	09fH
	DB	055H
	DB	055H
	DB	055H
	DB	021H
	DB	00H
	DB	00H
	DB	00H
	DB	00H
	DB	00H
	DB	00H
	DB	00H
	DB	00H
	DB	00H
	DB	00H
	DB	00H
	DB	00H
	DB	00H
	DB	00H
	DB	00H
	DB	00H
	DB	00H
	DB	00H
	DB	00H
	DB	00H
	DB	00H
	DB	00H
	DB	00H
	DB	00H
	DB	00H
	DB	00H
	DB	00H
	DB	00H
	DB	00H
	DB	00H
	DB	00H
	DB	00H
	DB	00H
	DB	00H
	DB	00H
	DB	00H
	DB	00H
	DB	00H
	DB	00H
	DB	00H
	DB	00H
	DB	00H
	DB	00H
	DB	00H
	DB	00H
	DB	00H
	DB	00H
	DB	00H
	DB	00H
	DB	00H
	DB	00H
	DB	00H
	DB	00H
	DB	00H
	DB	00H
	DB	00H
	DB	00H
	DB	00H
	DB	00H
	DB	00H
	DB	00H
	DB	00H
	DB	00H
	DB	00H
	DB	00H
	DB	00H
	DB	00H
	DB	00H
	DB	00H
	DB	00H
	DB	00H
	DB	00H
	DB	00H
	DB	00H
	DB	00H
	DB	00H
	DB	00H
	DB	00H
	DB	00H
	DB	00H
	DB	00H
	DB	00H
	DB	00H
	DB	00H
	DB	00H
	DB	00H
	DB	00H
	DB	00H
	DB	00H
	DB	00H
	DB	00H
	DB	00H
	DB	00H
	DB	00H
	DB	00H
	DB	00H
	DB	00H
	DB	00H
	DB	00H
	DB	00H
	DB	00H
	DB	00H
	DB	00H
	DB	00H
	DB	00H
	DB	00H
	DB	00H
	DB	00H
	DB	00H
	DB	00H
	DB	00H
	DB	00H
	DB	00H
	DB	00H
	DB	00H
	DB	00H
	DB	00H
	DB	00H
	DB	00H
	DB	00H
	DB	00H
	DB	00H
	DB	00H
	DB	00H
	DB	00H
	DB	00H
	DB	00H
	DB	00H
	DB	00H
	DB	00H
	DB	00H
	DB	00H
	DB	00H
	DB	00H
	DB	00H
	DB	00H
	DB	00H
	DB	00H
	DB	00H
	DB	00H
	DB	00H
	DB	00H
	DB	00H
	DB	00H
	DB	00H
	DB	00H
	DB	00H
	DB	00H
	DB	00H
	DB	00H
	DB	00H
	DB	00H
	DB	00H
	DB	00H
	DB	00H
	DB	00H
	DB	00H
	DB	00H
	DB	00H
	DB	00H
	DB	00H
	DB	00H
	DB	00H
	DB	00H
	DB	00H
	DB	00H
	DB	00H
	DB	00H
	DB	00H
	DB	00H
	DB	00H
	DB	00H
	DB	00H
	DB	00H
	DB	00H
	DB	00H
	DB	00H
	DB	00H
	DB	00H
	DB	00H
	DB	00H
	DB	00H
	DB	00H
	DB	00H
	DB	00H
	DB	00H
	DB	00H
	DB	00H
	DB	00H
	DB	00H
	DB	00H
	DB	00H
	DB	00H
	DB	00H
	DB	00H
	DB	00H
	DB	00H
	DB	00H
	DB	00H
	DB	00H
	DB	00H
	DB	00H
	DB	00H
	DB	00H
	DB	00H
	DB	00H
	DB	00H
	DB	00H
	DB	00H
	DB	00H
	DB	00H
	DB	00H
	DB	00H
	DB	00H
	DB	00H
	DB	00H
	DB	00H
	DB	00H
	DB	00H
	DB	00H
	DB	00H
	DB	00H
	DB	00H
	DB	00H
	DB	00H
	DB	00H
	DB	00H
	DB	00H
	DB	00H
	DB	00H
	DB	00H
	DB	00H
	DB	00H
	DB	00H
	DB	00H
	DB	00H
	DB	00H
	DB	00H
	DB	00H
	DB	00H
	DB	00H
	DB	00H
	DB	00H
	DB	00H
	DB	00H
	DB	00H
	DB	00H
	DB	00H
	DB	00H
	DB	00H
	DB	00H
	DB	00H
	DB	00H
	DB	00H
	DB	00H
	DB	00H
	DB	00H
	DB	00H
	DB	00H
	DB	00H
	DB	00H
	DB	00H
	DB	00H
	DB	00H
	DB	00H
	DB	00H
	DB	00H
	DB	00H
	DB	00H
	DB	00H
	DB	00H
	DB	00H
	DB	00H
	DB	00H
	DB	00H
	DB	00H
	DB	00H
	DB	00H
	DB	00H
	DB	00H
	DB	00H
	DB	00H
	DB	00H
	DB	00H
	DB	00H
	DB	00H
	DB	00H
	DB	00H
	DB	00H
	DB	00H
	DB	00H
	DB	00H
	DB	00H
	DB	00H
	DB	00H
	DB	00H
	DB	00H
	DB	00H
	DB	00H
	DB	00H
	DB	00H
	DB	00H
	DB	00H
	DB	00H
	DB	00H
	DB	00H
	DB	00H
	DB	00H
	DB	00H
	DB	00H
	DB	00H
	DB	00H
	DB	00H
	DB	00H
	DB	00H
	DB	00H
	DB	00H
	DB	00H
	DB	00H
	DB	00H
	DB	00H
	DB	00H
	DB	00H
	DB	00H
	DB	00H
	DB	00H
	DB	00H
	DB	00H
	DB	00H
	DB	00H
	DB	00H
	DB	00H
	DB	00H
	DB	00H
	DB	00H
	DB	00H
	DB	00H
	DB	00H
	DB	00H
	DB	00H
	DB	00H
	DB	00H
	DB	00H
	DB	00H
	DB	00H
	DB	00H
	DB	00H
	DB	00H
	DB	00H
	DB	00H
	DB	00H
	DB	00H
	DB	00H
	DB	00H
	DB	00H
	DB	00H
	DB	00H
	DB	00H
	DB	00H
	DB	00H
	DB	00H
	DB	00H
	DB	00H
	DB	00H
	DB	00H
	DB	00H
	DB	00H
	DB	00H
	DB	00H
	DB	00H
	DB	00H
	DB	00H
	DB	00H
	DB	00H
	DB	00H
	DB	00H
	DB	00H
	DB	00H
	DB	00H
	DB	00H
	DB	00H
	DB	00H
	DB	00H
	DB	00H
	DB	00H
	DB	00H
	DB	00H
	DB	00H
	DB	00H
	DB	00H
	DB	00H
	DB	00H
	DB	055H
	DB	055H
	DB	055H
	DB	01eH
	DB	056H
	DB	056H
	DB	056H
	DB	09aH
	DB	056H
	DB	056H
	DB	056H
	DB	0faH
	DB	056H
	DB	056H
	DB	056H
	DB	0ffH
	DB	054H
	DB	054H
	DB	054H
	DB	0ffH
	DB	03aH
	DB	03aH
	DB	03aH
	DB	0ffH
	DB	018H
	DB	018H
	DB	018H
	DB	0ffH
	DB	0bH
	DB	0bH
	DB	0bH
	DB	0ffH
	DB	0bH
	DB	0bH
	DB	0bH
	DB	0ffH
	DB	0bH
	DB	0bH
	DB	0bH
	DB	0ffH
	DB	0bH
	DB	0bH
	DB	0bH
	DB	0ffH
	DB	0bH
	DB	0bH
	DB	0bH
	DB	0ffH
	DB	0bH
	DB	0bH
	DB	0bH
	DB	0ffH
	DB	0bH
	DB	0bH
	DB	0bH
	DB	0ffH
	DB	0bH
	DB	0bH
	DB	0bH
	DB	0ffH
	DB	0bH
	DB	0bH
	DB	0bH
	DB	0ffH
	DB	0bH
	DB	0bH
	DB	0bH
	DB	0ffH
	DB	0bH
	DB	0bH
	DB	0bH
	DB	0ffH
	DB	0bH
	DB	0bH
	DB	0bH
	DB	0ffH
	DB	0bH
	DB	0bH
	DB	0bH
	DB	0ffH
	DB	0bH
	DB	0bH
	DB	0bH
	DB	0ffH
	DB	0bH
	DB	0bH
	DB	0bH
	DB	0ffH
	DB	0bH
	DB	0bH
	DB	0bH
	DB	0ffH
	DB	0bH
	DB	0bH
	DB	0bH
	DB	0ffH
	DB	0bH
	DB	0bH
	DB	0bH
	DB	0ffH
	DB	0bH
	DB	0bH
	DB	0bH
	DB	0ffH
	DB	0bH
	DB	0bH
	DB	0bH
	DB	0ffH
	DB	0bH
	DB	0bH
	DB	0bH
	DB	0ffH
	DB	0bH
	DB	0bH
	DB	0bH
	DB	0ffH
	DB	0bH
	DB	0bH
	DB	0bH
	DB	0ffH
	DB	0bH
	DB	0bH
	DB	0bH
	DB	0ffH
	DB	0bH
	DB	0bH
	DB	0bH
	DB	0ffH
	DB	0bH
	DB	0bH
	DB	0bH
	DB	0ffH
	DB	0bH
	DB	0bH
	DB	0bH
	DB	0ffH
	DB	0bH
	DB	0bH
	DB	0bH
	DB	0ffH
	DB	0bH
	DB	0bH
	DB	0bH
	DB	0ffH
	DB	0bH
	DB	0bH
	DB	0bH
	DB	0ffH
	DB	0bH
	DB	0bH
	DB	0bH
	DB	0ffH
	DB	0bH
	DB	0bH
	DB	0bH
	DB	0ffH
	DB	0bH
	DB	0bH
	DB	0bH
	DB	0ffH
	DB	0bH
	DB	0bH
	DB	0bH
	DB	0ffH
	DB	0bH
	DB	0bH
	DB	0bH
	DB	0ffH
	DB	0bH
	DB	0bH
	DB	0bH
	DB	0ffH
	DB	0bH
	DB	0bH
	DB	0bH
	DB	0ffH
	DB	0bH
	DB	0bH
	DB	0bH
	DB	0ffH
	DB	0bH
	DB	0bH
	DB	0bH
	DB	0ffH
	DB	0bH
	DB	0bH
	DB	0bH
	DB	0ffH
	DB	0bH
	DB	0bH
	DB	0bH
	DB	0ffH
	DB	0bH
	DB	0bH
	DB	0bH
	DB	0ffH
	DB	0bH
	DB	0bH
	DB	0bH
	DB	0ffH
	DB	0bH
	DB	0bH
	DB	0bH
	DB	0ffH
	DB	0bH
	DB	0bH
	DB	0bH
	DB	0ffH
	DB	0bH
	DB	0bH
	DB	0bH
	DB	0ffH
	DB	0bH
	DB	0bH
	DB	0bH
	DB	0ffH
	DB	0bH
	DB	0bH
	DB	0bH
	DB	0ffH
	DB	0bH
	DB	0bH
	DB	0bH
	DB	0ffH
	DB	0bH
	DB	0bH
	DB	0bH
	DB	0ffH
	DB	0bH
	DB	0bH
	DB	0bH
	DB	0ffH
	DB	0bH
	DB	0bH
	DB	0bH
	DB	0ffH
	DB	0bH
	DB	0bH
	DB	0bH
	DB	0ffH
	DB	0bH
	DB	0bH
	DB	0bH
	DB	0ffH
	DB	0bH
	DB	0bH
	DB	0bH
	DB	0ffH
	DB	0bH
	DB	0bH
	DB	0bH
	DB	0ffH
	DB	0bH
	DB	0bH
	DB	0bH
	DB	0ffH
	DB	0bH
	DB	0bH
	DB	0bH
	DB	0ffH
	DB	0bH
	DB	0bH
	DB	0bH
	DB	0ffH
	DB	0bH
	DB	0bH
	DB	0bH
	DB	0ffH
	DB	0bH
	DB	0bH
	DB	0bH
	DB	0ffH
	DB	0bH
	DB	0bH
	DB	0bH
	DB	0ffH
	DB	0bH
	DB	0bH
	DB	0bH
	DB	0ffH
	DB	0bH
	DB	0bH
	DB	0bH
	DB	0ffH
	DB	0bH
	DB	0bH
	DB	0bH
	DB	0ffH
	DB	0bH
	DB	0bH
	DB	0bH
	DB	0ffH
	DB	0bH
	DB	0bH
	DB	0bH
	DB	0ffH
	DB	0bH
	DB	0bH
	DB	0bH
	DB	0ffH
	DB	0bH
	DB	0bH
	DB	0bH
	DB	0ffH
	DB	0bH
	DB	0bH
	DB	0bH
	DB	0ffH
	DB	0bH
	DB	0bH
	DB	0bH
	DB	0ffH
	DB	0bH
	DB	0bH
	DB	0bH
	DB	0ffH
	DB	0bH
	DB	0bH
	DB	0bH
	DB	0ffH
	DB	0bH
	DB	0bH
	DB	0bH
	DB	0ffH
	DB	019H
	DB	019H
	DB	019H
	DB	0ffH
	DB	03aH
	DB	03aH
	DB	03aH
	DB	0ffH
	DB	054H
	DB	054H
	DB	054H
	DB	0ffH
	DB	056H
	DB	056H
	DB	056H
	DB	0ffH
	DB	056H
	DB	056H
	DB	056H
	DB	0faH
	DB	056H
	DB	056H
	DB	056H
	DB	098H
	DB	058H
	DB	058H
	DB	058H
	DB	01dH
	DB	00H
	DB	00H
	DB	00H
	DB	00H
	DB	00H
	DB	00H
	DB	00H
	DB	00H
	DB	00H
	DB	00H
	DB	00H
	DB	00H
	DB	00H
	DB	00H
	DB	00H
	DB	00H
	DB	00H
	DB	00H
	DB	00H
	DB	00H
	DB	00H
	DB	00H
	DB	00H
	DB	00H
	DB	00H
	DB	00H
	DB	00H
	DB	00H
	DB	00H
	DB	00H
	DB	00H
	DB	00H
	DB	00H
	DB	00H
	DB	00H
	DB	00H
	DB	00H
	DB	00H
	DB	00H
	DB	00H
	DB	00H
	DB	00H
	DB	00H
	DB	00H
	DB	00H
	DB	00H
	DB	00H
	DB	00H
	DB	00H
	DB	00H
	DB	00H
	DB	00H
	DB	00H
	DB	00H
	DB	00H
	DB	00H
	DB	00H
	DB	00H
	DB	00H
	DB	00H
	DB	00H
	DB	00H
	DB	00H
	DB	00H
	DB	00H
	DB	00H
	DB	00H
	DB	00H
	DB	00H
	DB	00H
	DB	00H
	DB	00H
	DB	00H
	DB	00H
	DB	00H
	DB	00H
	DB	00H
	DB	00H
	DB	00H
	DB	00H
	DB	00H
	DB	00H
	DB	00H
	DB	00H
	DB	00H
	DB	00H
	DB	00H
	DB	00H
	DB	00H
	DB	00H
	DB	00H
	DB	00H
	DB	00H
	DB	00H
	DB	00H
	DB	00H
	DB	00H
	DB	00H
	DB	00H
	DB	00H
	DB	00H
	DB	00H
	DB	00H
	DB	00H
	DB	00H
	DB	00H
	DB	00H
	DB	00H
	DB	00H
	DB	00H
	DB	00H
	DB	00H
	DB	00H
	DB	00H
	DB	00H
	DB	00H
	DB	00H
	DB	00H
	DB	00H
	DB	00H
	DB	00H
	DB	00H
	DB	00H
	DB	00H
	DB	00H
	DB	00H
	DB	00H
	DB	00H
	DB	00H
	DB	00H
	DB	00H
	DB	00H
	DB	00H
	DB	00H
	DB	00H
	DB	00H
	DB	00H
	DB	00H
	DB	00H
	DB	00H
	DB	00H
	DB	00H
	DB	00H
	DB	00H
	DB	00H
	DB	00H
	DB	00H
	DB	00H
	DB	00H
	DB	00H
	DB	00H
	DB	00H
	DB	00H
	DB	00H
	DB	00H
	DB	00H
	DB	00H
	DB	00H
	DB	00H
	DB	00H
	DB	00H
	DB	00H
	DB	00H
	DB	00H
	DB	00H
	DB	00H
	DB	00H
	DB	00H
	DB	00H
	DB	00H
	DB	00H
	DB	00H
	DB	00H
	DB	00H
	DB	00H
	DB	00H
	DB	00H
	DB	00H
	DB	00H
	DB	00H
	DB	00H
	DB	00H
	DB	00H
	DB	00H
	DB	00H
	DB	00H
	DB	00H
	DB	00H
	DB	00H
	DB	00H
	DB	00H
	DB	00H
	DB	00H
	DB	00H
	DB	00H
	DB	00H
	DB	00H
	DB	00H
	DB	00H
	DB	00H
	DB	00H
	DB	00H
	DB	00H
	DB	00H
	DB	00H
	DB	00H
	DB	00H
	DB	00H
	DB	00H
	DB	00H
	DB	00H
	DB	00H
	DB	00H
	DB	00H
	DB	00H
	DB	00H
	DB	00H
	DB	00H
	DB	00H
	DB	00H
	DB	00H
	DB	00H
	DB	00H
	DB	00H
	DB	00H
	DB	00H
	DB	00H
	DB	00H
	DB	00H
	DB	00H
	DB	00H
	DB	00H
	DB	00H
	DB	00H
	DB	00H
	DB	00H
	DB	00H
	DB	00H
	DB	00H
	DB	00H
	DB	00H
	DB	00H
	DB	00H
	DB	00H
	DB	00H
	DB	00H
	DB	00H
	DB	00H
	DB	00H
	DB	00H
	DB	00H
	DB	00H
	DB	00H
	DB	00H
	DB	00H
	DB	00H
	DB	00H
	DB	00H
	DB	00H
	DB	00H
	DB	00H
	DB	00H
	DB	00H
	DB	00H
	DB	00H
	DB	00H
	DB	00H
	DB	00H
	DB	00H
	DB	00H
	DB	00H
	DB	00H
	DB	00H
	DB	00H
	DB	00H
	DB	00H
	DB	00H
	DB	00H
	DB	00H
	DB	00H
	DB	00H
	DB	00H
	DB	00H
	DB	00H
	DB	00H
	DB	00H
	DB	00H
	DB	00H
	DB	00H
	DB	00H
	DB	00H
	DB	00H
	DB	00H
	DB	00H
	DB	00H
	DB	00H
	DB	00H
	DB	00H
	DB	00H
	DB	00H
	DB	00H
	DB	00H
	DB	00H
	DB	00H
	DB	00H
	DB	00H
	DB	00H
	DB	00H
	DB	00H
	DB	00H
	DB	00H
	DB	00H
	DB	00H
	DB	00H
	DB	00H
	DB	00H
	DB	00H
	DB	00H
	DB	00H
	DB	00H
	DB	00H
	DB	00H
	DB	00H
	DB	00H
	DB	00H
	DB	00H
	DB	00H
	DB	00H
	DB	00H
	DB	00H
	DB	00H
	DB	00H
	DB	00H
	DB	00H
	DB	00H
	DB	00H
	DB	00H
	DB	00H
	DB	00H
	DB	00H
	DB	00H
	DB	00H
	DB	00H
	DB	00H
	DB	00H
	DB	00H
	DB	00H
	DB	00H
	DB	00H
	DB	00H
	DB	00H
	DB	00H
	DB	00H
	DB	00H
	DB	00H
	DB	00H
	DB	00H
	DB	00H
	DB	00H
	DB	00H
	DB	00H
	DB	00H
	DB	00H
	DB	00H
	DB	00H
	DB	00H
	DB	00H
	DB	00H
	DB	00H
	DB	00H
	DB	00H
	DB	00H
	DB	00H
	DB	00H
	DB	00H
	DB	00H
	DB	05bH
	DB	05bH
	DB	05bH
	DB	0eH
	DB	056H
	DB	056H
	DB	056H
	DB	089H
	DB	056H
	DB	056H
	DB	056H
	DB	0f8H
	DB	056H
	DB	056H
	DB	056H
	DB	0ffH
	DB	055H
	DB	055H
	DB	055H
	DB	0ffH
	DB	03dH
	DB	03dH
	DB	03dH
	DB	0ffH
	DB	015H
	DB	015H
	DB	015H
	DB	0ffH
	DB	0bH
	DB	0bH
	DB	0bH
	DB	0ffH
	DB	0bH
	DB	0bH
	DB	0bH
	DB	0ffH
	DB	0bH
	DB	0bH
	DB	0bH
	DB	0ffH
	DB	0bH
	DB	0bH
	DB	0bH
	DB	0ffH
	DB	0bH
	DB	0bH
	DB	0bH
	DB	0ffH
	DB	0bH
	DB	0bH
	DB	0bH
	DB	0ffH
	DB	0bH
	DB	0bH
	DB	0bH
	DB	0ffH
	DB	0bH
	DB	0bH
	DB	0bH
	DB	0ffH
	DB	0bH
	DB	0bH
	DB	0bH
	DB	0ffH
	DB	0bH
	DB	0bH
	DB	0bH
	DB	0ffH
	DB	0bH
	DB	0bH
	DB	0bH
	DB	0ffH
	DB	0bH
	DB	0bH
	DB	0bH
	DB	0ffH
	DB	0bH
	DB	0bH
	DB	0bH
	DB	0ffH
	DB	0bH
	DB	0bH
	DB	0bH
	DB	0ffH
	DB	0bH
	DB	0bH
	DB	0bH
	DB	0ffH
	DB	0bH
	DB	0bH
	DB	0bH
	DB	0ffH
	DB	0bH
	DB	0bH
	DB	0bH
	DB	0ffH
	DB	0bH
	DB	0bH
	DB	0bH
	DB	0ffH
	DB	0bH
	DB	0bH
	DB	0bH
	DB	0ffH
	DB	0bH
	DB	0bH
	DB	0bH
	DB	0ffH
	DB	0bH
	DB	0bH
	DB	0bH
	DB	0ffH
	DB	0bH
	DB	0bH
	DB	0bH
	DB	0ffH
	DB	0bH
	DB	0bH
	DB	0bH
	DB	0ffH
	DB	0bH
	DB	0bH
	DB	0bH
	DB	0ffH
	DB	0bH
	DB	0bH
	DB	0bH
	DB	0ffH
	DB	0bH
	DB	0bH
	DB	0bH
	DB	0ffH
	DB	0bH
	DB	0bH
	DB	0bH
	DB	0ffH
	DB	0bH
	DB	0bH
	DB	0bH
	DB	0ffH
	DB	0bH
	DB	0bH
	DB	0bH
	DB	0ffH
	DB	0bH
	DB	0bH
	DB	0bH
	DB	0ffH
	DB	0bH
	DB	0bH
	DB	0bH
	DB	0ffH
	DB	0bH
	DB	0bH
	DB	0bH
	DB	0ffH
	DB	0bH
	DB	0bH
	DB	0bH
	DB	0ffH
	DB	0bH
	DB	0bH
	DB	0bH
	DB	0ffH
	DB	0bH
	DB	0bH
	DB	0bH
	DB	0ffH
	DB	0bH
	DB	0bH
	DB	0bH
	DB	0ffH
	DB	0bH
	DB	0bH
	DB	0bH
	DB	0ffH
	DB	0bH
	DB	0bH
	DB	0bH
	DB	0ffH
	DB	0bH
	DB	0bH
	DB	0bH
	DB	0ffH
	DB	0bH
	DB	0bH
	DB	0bH
	DB	0ffH
	DB	0bH
	DB	0bH
	DB	0bH
	DB	0ffH
	DB	0bH
	DB	0bH
	DB	0bH
	DB	0ffH
	DB	0bH
	DB	0bH
	DB	0bH
	DB	0ffH
	DB	0bH
	DB	0bH
	DB	0bH
	DB	0ffH
	DB	0bH
	DB	0bH
	DB	0bH
	DB	0ffH
	DB	0bH
	DB	0bH
	DB	0bH
	DB	0ffH
	DB	0bH
	DB	0bH
	DB	0bH
	DB	0ffH
	DB	0bH
	DB	0bH
	DB	0bH
	DB	0ffH
	DB	0bH
	DB	0bH
	DB	0bH
	DB	0ffH
	DB	0bH
	DB	0bH
	DB	0bH
	DB	0ffH
	DB	0bH
	DB	0bH
	DB	0bH
	DB	0ffH
	DB	0bH
	DB	0bH
	DB	0bH
	DB	0ffH
	DB	0bH
	DB	0bH
	DB	0bH
	DB	0ffH
	DB	0bH
	DB	0bH
	DB	0bH
	DB	0ffH
	DB	0bH
	DB	0bH
	DB	0bH
	DB	0ffH
	DB	0bH
	DB	0bH
	DB	0bH
	DB	0ffH
	DB	0bH
	DB	0bH
	DB	0bH
	DB	0ffH
	DB	0bH
	DB	0bH
	DB	0bH
	DB	0ffH
	DB	0bH
	DB	0bH
	DB	0bH
	DB	0ffH
	DB	0bH
	DB	0bH
	DB	0bH
	DB	0ffH
	DB	0bH
	DB	0bH
	DB	0bH
	DB	0ffH
	DB	0bH
	DB	0bH
	DB	0bH
	DB	0ffH
	DB	0bH
	DB	0bH
	DB	0bH
	DB	0ffH
	DB	0bH
	DB	0bH
	DB	0bH
	DB	0ffH
	DB	0bH
	DB	0bH
	DB	0bH
	DB	0ffH
	DB	0bH
	DB	0bH
	DB	0bH
	DB	0ffH
	DB	0bH
	DB	0bH
	DB	0bH
	DB	0ffH
	DB	0bH
	DB	0bH
	DB	0bH
	DB	0ffH
	DB	0bH
	DB	0bH
	DB	0bH
	DB	0ffH
	DB	0bH
	DB	0bH
	DB	0bH
	DB	0ffH
	DB	0bH
	DB	0bH
	DB	0bH
	DB	0ffH
	DB	0bH
	DB	0bH
	DB	0bH
	DB	0ffH
	DB	0bH
	DB	0bH
	DB	0bH
	DB	0ffH
	DB	0bH
	DB	0bH
	DB	0bH
	DB	0ffH
	DB	0bH
	DB	0bH
	DB	0bH
	DB	0ffH
	DB	0bH
	DB	0bH
	DB	0bH
	DB	0ffH
	DB	0bH
	DB	0bH
	DB	0bH
	DB	0ffH
	DB	0bH
	DB	0bH
	DB	0bH
	DB	0ffH
	DB	014H
	DB	014H
	DB	014H
	DB	0ffH
	DB	038H
	DB	038H
	DB	038H
	DB	0ffH
	DB	055H
	DB	055H
	DB	055H
	DB	0ffH
	DB	056H
	DB	056H
	DB	056H
	DB	0ffH
	DB	056H
	DB	056H
	DB	056H
	DB	0f7H
	DB	057H
	DB	057H
	DB	057H
	DB	087H
	DB	04eH
	DB	04eH
	DB	04eH
	DB	0dH
	DB	00H
	DB	00H
	DB	00H
	DB	00H
	DB	00H
	DB	00H
	DB	00H
	DB	00H
	DB	00H
	DB	00H
	DB	00H
	DB	00H
	DB	00H
	DB	00H
	DB	00H
	DB	00H
	DB	00H
	DB	00H
	DB	00H
	DB	00H
	DB	00H
	DB	00H
	DB	00H
	DB	00H
	DB	00H
	DB	00H
	DB	00H
	DB	00H
	DB	00H
	DB	00H
	DB	00H
	DB	00H
	DB	00H
	DB	00H
	DB	00H
	DB	00H
	DB	00H
	DB	00H
	DB	00H
	DB	00H
	DB	00H
	DB	00H
	DB	00H
	DB	00H
	DB	00H
	DB	00H
	DB	00H
	DB	00H
	DB	00H
	DB	00H
	DB	00H
	DB	00H
	DB	00H
	DB	00H
	DB	00H
	DB	00H
	DB	00H
	DB	00H
	DB	00H
	DB	00H
	DB	00H
	DB	00H
	DB	00H
	DB	00H
	DB	00H
	DB	00H
	DB	00H
	DB	00H
	DB	00H
	DB	00H
	DB	00H
	DB	00H
	DB	00H
	DB	00H
	DB	00H
	DB	00H
	DB	00H
	DB	00H
	DB	00H
	DB	00H
	DB	00H
	DB	00H
	DB	00H
	DB	00H
	DB	00H
	DB	00H
	DB	00H
	DB	00H
	DB	00H
	DB	00H
	DB	00H
	DB	00H
	DB	00H
	DB	00H
	DB	00H
	DB	00H
	DB	00H
	DB	00H
	DB	00H
	DB	00H
	DB	00H
	DB	00H
	DB	00H
	DB	00H
	DB	00H
	DB	00H
	DB	00H
	DB	00H
	DB	00H
	DB	00H
	DB	00H
	DB	00H
	DB	00H
	DB	00H
	DB	00H
	DB	00H
	DB	00H
	DB	00H
	DB	00H
	DB	00H
	DB	00H
	DB	00H
	DB	00H
	DB	00H
	DB	00H
	DB	00H
	DB	00H
	DB	00H
	DB	00H
	DB	00H
	DB	00H
	DB	00H
	DB	00H
	DB	00H
	DB	00H
	DB	00H
	DB	00H
	DB	00H
	DB	00H
	DB	00H
	DB	00H
	DB	00H
	DB	00H
	DB	00H
	DB	00H
	DB	00H
	DB	00H
	DB	00H
	DB	00H
	DB	00H
	DB	00H
	DB	00H
	DB	00H
	DB	00H
	DB	00H
	DB	00H
	DB	00H
	DB	00H
	DB	00H
	DB	00H
	DB	00H
	DB	00H
	DB	00H
	DB	00H
	DB	00H
	DB	00H
	DB	00H
	DB	00H
	DB	00H
	DB	00H
	DB	00H
	DB	00H
	DB	00H
	DB	00H
	DB	00H
	DB	00H
	DB	00H
	DB	00H
	DB	00H
	DB	00H
	DB	00H
	DB	00H
	DB	00H
	DB	00H
	DB	00H
	DB	00H
	DB	00H
	DB	00H
	DB	00H
	DB	00H
	DB	00H
	DB	00H
	DB	00H
	DB	00H
	DB	00H
	DB	00H
	DB	00H
	DB	00H
	DB	00H
	DB	00H
	DB	00H
	DB	00H
	DB	00H
	DB	00H
	DB	00H
	DB	00H
	DB	00H
	DB	00H
	DB	00H
	DB	00H
	DB	00H
	DB	00H
	DB	00H
	DB	00H
	DB	00H
	DB	00H
	DB	00H
	DB	00H
	DB	00H
	DB	00H
	DB	00H
	DB	00H
	DB	00H
	DB	00H
	DB	00H
	DB	00H
	DB	00H
	DB	00H
	DB	00H
	DB	00H
	DB	00H
	DB	00H
	DB	00H
	DB	00H
	DB	00H
	DB	00H
	DB	00H
	DB	00H
	DB	00H
	DB	00H
	DB	00H
	DB	00H
	DB	00H
	DB	00H
	DB	00H
	DB	00H
	DB	00H
	DB	00H
	DB	00H
	DB	00H
	DB	00H
	DB	00H
	DB	00H
	DB	00H
	DB	00H
	DB	00H
	DB	00H
	DB	00H
	DB	00H
	DB	00H
	DB	00H
	DB	00H
	DB	00H
	DB	00H
	DB	00H
	DB	00H
	DB	00H
	DB	00H
	DB	00H
	DB	00H
	DB	00H
	DB	00H
	DB	00H
	DB	00H
	DB	00H
	DB	00H
	DB	00H
	DB	00H
	DB	00H
	DB	00H
	DB	00H
	DB	00H
	DB	00H
	DB	00H
	DB	00H
	DB	00H
	DB	00H
	DB	00H
	DB	00H
	DB	00H
	DB	00H
	DB	00H
	DB	00H
	DB	00H
	DB	00H
	DB	00H
	DB	00H
	DB	00H
	DB	00H
	DB	00H
	DB	00H
	DB	00H
	DB	00H
	DB	00H
	DB	00H
	DB	00H
	DB	00H
	DB	00H
	DB	00H
	DB	00H
	DB	00H
	DB	00H
	DB	00H
	DB	00H
	DB	00H
	DB	00H
	DB	00H
	DB	00H
	DB	00H
	DB	00H
	DB	00H
	DB	00H
	DB	00H
	DB	00H
	DB	00H
	DB	00H
	DB	00H
	DB	00H
	DB	00H
	DB	00H
	DB	00H
	DB	00H
	DB	00H
	DB	00H
	DB	00H
	DB	00H
	DB	00H
	DB	00H
	DB	00H
	DB	00H
	DB	00H
	DB	00H
	DB	00H
	DB	00H
	DB	00H
	DB	00H
	DB	00H
	DB	00H
	DB	00H
	DB	00H
	DB	00H
	DB	00H
	DB	00H
	DB	00H
	DB	00H
	DB	00H
	DB	00H
	DB	00H
	DB	00H
	DB	00H
	DB	080H
	DB	080H
	DB	080H
	DB	02H
	DB	057H
	DB	057H
	DB	057H
	DB	064H
	DB	056H
	DB	056H
	DB	056H
	DB	0e8H
	DB	056H
	DB	056H
	DB	056H
	DB	0ffH
	DB	055H
	DB	055H
	DB	055H
	DB	0ffH
	DB	03bH
	DB	03bH
	DB	03bH
	DB	0ffH
	DB	015H
	DB	015H
	DB	015H
	DB	0ffH
	DB	0bH
	DB	0bH
	DB	0bH
	DB	0ffH
	DB	0bH
	DB	0bH
	DB	0bH
	DB	0ffH
	DB	0bH
	DB	0bH
	DB	0bH
	DB	0ffH
	DB	0bH
	DB	0bH
	DB	0bH
	DB	0ffH
	DB	0bH
	DB	0bH
	DB	0bH
	DB	0ffH
	DB	0bH
	DB	0bH
	DB	0bH
	DB	0ffH
	DB	0bH
	DB	0bH
	DB	0bH
	DB	0ffH
	DB	0bH
	DB	0bH
	DB	0bH
	DB	0ffH
	DB	0bH
	DB	0bH
	DB	0bH
	DB	0ffH
	DB	0bH
	DB	0bH
	DB	0bH
	DB	0ffH
	DB	0bH
	DB	0bH
	DB	0bH
	DB	0ffH
	DB	0bH
	DB	0bH
	DB	0bH
	DB	0ffH
	DB	0bH
	DB	0bH
	DB	0bH
	DB	0ffH
	DB	0bH
	DB	0bH
	DB	0bH
	DB	0ffH
	DB	0bH
	DB	0bH
	DB	0bH
	DB	0ffH
	DB	0bH
	DB	0bH
	DB	0bH
	DB	0ffH
	DB	0bH
	DB	0bH
	DB	0bH
	DB	0ffH
	DB	0bH
	DB	0bH
	DB	0bH
	DB	0ffH
	DB	0bH
	DB	0bH
	DB	0bH
	DB	0ffH
	DB	0bH
	DB	0bH
	DB	0bH
	DB	0ffH
	DB	0bH
	DB	0bH
	DB	0bH
	DB	0ffH
	DB	0bH
	DB	0bH
	DB	0bH
	DB	0ffH
	DB	0bH
	DB	0bH
	DB	0bH
	DB	0ffH
	DB	0bH
	DB	0bH
	DB	0bH
	DB	0ffH
	DB	0bH
	DB	0bH
	DB	0bH
	DB	0ffH
	DB	0bH
	DB	0bH
	DB	0bH
	DB	0ffH
	DB	0bH
	DB	0bH
	DB	0bH
	DB	0ffH
	DB	0bH
	DB	0bH
	DB	0bH
	DB	0ffH
	DB	0bH
	DB	0bH
	DB	0bH
	DB	0ffH
	DB	0bH
	DB	0bH
	DB	0bH
	DB	0ffH
	DB	0bH
	DB	0bH
	DB	0bH
	DB	0ffH
	DB	0bH
	DB	0bH
	DB	0bH
	DB	0ffH
	DB	0bH
	DB	0bH
	DB	0bH
	DB	0ffH
	DB	0bH
	DB	0bH
	DB	0bH
	DB	0ffH
	DB	0bH
	DB	0bH
	DB	0bH
	DB	0ffH
	DB	0bH
	DB	0bH
	DB	0bH
	DB	0ffH
	DB	0bH
	DB	0bH
	DB	0bH
	DB	0ffH
	DB	0bH
	DB	0bH
	DB	0bH
	DB	0ffH
	DB	0bH
	DB	0bH
	DB	0bH
	DB	0ffH
	DB	0bH
	DB	0bH
	DB	0bH
	DB	0ffH
	DB	0bH
	DB	0bH
	DB	0bH
	DB	0ffH
	DB	0bH
	DB	0bH
	DB	0bH
	DB	0ffH
	DB	0bH
	DB	0bH
	DB	0bH
	DB	0ffH
	DB	0bH
	DB	0bH
	DB	0bH
	DB	0ffH
	DB	0bH
	DB	0bH
	DB	0bH
	DB	0ffH
	DB	0bH
	DB	0bH
	DB	0bH
	DB	0ffH
	DB	0bH
	DB	0bH
	DB	0bH
	DB	0ffH
	DB	0bH
	DB	0bH
	DB	0bH
	DB	0ffH
	DB	0bH
	DB	0bH
	DB	0bH
	DB	0ffH
	DB	0bH
	DB	0bH
	DB	0bH
	DB	0ffH
	DB	0bH
	DB	0bH
	DB	0bH
	DB	0ffH
	DB	0bH
	DB	0bH
	DB	0bH
	DB	0ffH
	DB	0bH
	DB	0bH
	DB	0bH
	DB	0ffH
	DB	0bH
	DB	0bH
	DB	0bH
	DB	0ffH
	DB	0bH
	DB	0bH
	DB	0bH
	DB	0ffH
	DB	0bH
	DB	0bH
	DB	0bH
	DB	0ffH
	DB	0bH
	DB	0bH
	DB	0bH
	DB	0ffH
	DB	0bH
	DB	0bH
	DB	0bH
	DB	0ffH
	DB	0bH
	DB	0bH
	DB	0bH
	DB	0ffH
	DB	0bH
	DB	0bH
	DB	0bH
	DB	0ffH
	DB	0bH
	DB	0bH
	DB	0bH
	DB	0ffH
	DB	0bH
	DB	0bH
	DB	0bH
	DB	0ffH
	DB	0bH
	DB	0bH
	DB	0bH
	DB	0ffH
	DB	0bH
	DB	0bH
	DB	0bH
	DB	0ffH
	DB	0bH
	DB	0bH
	DB	0bH
	DB	0ffH
	DB	0bH
	DB	0bH
	DB	0bH
	DB	0ffH
	DB	0bH
	DB	0bH
	DB	0bH
	DB	0ffH
	DB	0bH
	DB	0bH
	DB	0bH
	DB	0ffH
	DB	0bH
	DB	0bH
	DB	0bH
	DB	0ffH
	DB	0bH
	DB	0bH
	DB	0bH
	DB	0ffH
	DB	0bH
	DB	0bH
	DB	0bH
	DB	0ffH
	DB	0bH
	DB	0bH
	DB	0bH
	DB	0ffH
	DB	0bH
	DB	0bH
	DB	0bH
	DB	0ffH
	DB	0bH
	DB	0bH
	DB	0bH
	DB	0ffH
	DB	0bH
	DB	0bH
	DB	0bH
	DB	0ffH
	DB	0bH
	DB	0bH
	DB	0bH
	DB	0ffH
	DB	0bH
	DB	0bH
	DB	0bH
	DB	0ffH
	DB	0bH
	DB	0bH
	DB	0bH
	DB	0ffH
	DB	0bH
	DB	0bH
	DB	0bH
	DB	0ffH
	DB	0bH
	DB	0bH
	DB	0bH
	DB	0ffH
	DB	0bH
	DB	0bH
	DB	0bH
	DB	0ffH
	DB	0bH
	DB	0bH
	DB	0bH
	DB	0ffH
	DB	016H
	DB	016H
	DB	016H
	DB	0ffH
	DB	03cH
	DB	03cH
	DB	03cH
	DB	0ffH
	DB	055H
	DB	055H
	DB	055H
	DB	0ffH
	DB	056H
	DB	056H
	DB	056H
	DB	0ffH
	DB	056H
	DB	056H
	DB	056H
	DB	0e6H
	DB	055H
	DB	055H
	DB	055H
	DB	060H
	DB	080H
	DB	080H
	DB	080H
	DB	02H
	DB	00H
	DB	00H
	DB	00H
	DB	00H
	DB	00H
	DB	00H
	DB	00H
	DB	00H
	DB	00H
	DB	00H
	DB	00H
	DB	00H
	DB	00H
	DB	00H
	DB	00H
	DB	00H
	DB	00H
	DB	00H
	DB	00H
	DB	00H
	DB	00H
	DB	00H
	DB	00H
	DB	00H
	DB	00H
	DB	00H
	DB	00H
	DB	00H
	DB	00H
	DB	00H
	DB	00H
	DB	00H
	DB	00H
	DB	00H
	DB	00H
	DB	00H
	DB	00H
	DB	00H
	DB	00H
	DB	00H
	DB	00H
	DB	00H
	DB	00H
	DB	00H
	DB	00H
	DB	00H
	DB	00H
	DB	00H
	DB	00H
	DB	00H
	DB	00H
	DB	00H
	DB	00H
	DB	00H
	DB	00H
	DB	00H
	DB	00H
	DB	00H
	DB	00H
	DB	00H
	DB	00H
	DB	00H
	DB	00H
	DB	00H
	DB	00H
	DB	00H
	DB	00H
	DB	00H
	DB	00H
	DB	00H
	DB	00H
	DB	00H
	DB	00H
	DB	00H
	DB	00H
	DB	00H
	DB	00H
	DB	00H
	DB	00H
	DB	00H
	DB	00H
	DB	00H
	DB	00H
	DB	00H
	DB	00H
	DB	00H
	DB	00H
	DB	00H
	DB	00H
	DB	00H
	DB	00H
	DB	00H
	DB	00H
	DB	00H
	DB	00H
	DB	00H
	DB	00H
	DB	00H
	DB	00H
	DB	00H
	DB	00H
	DB	00H
	DB	00H
	DB	00H
	DB	00H
	DB	00H
	DB	00H
	DB	00H
	DB	00H
	DB	00H
	DB	00H
	DB	00H
	DB	00H
	DB	00H
	DB	00H
	DB	00H
	DB	00H
	DB	00H
	DB	00H
	DB	00H
	DB	00H
	DB	00H
	DB	00H
	DB	00H
	DB	00H
	DB	00H
	DB	00H
	DB	00H
	DB	00H
	DB	00H
	DB	00H
	DB	00H
	DB	00H
	DB	00H
	DB	00H
	DB	00H
	DB	00H
	DB	00H
	DB	00H
	DB	00H
	DB	00H
	DB	00H
	DB	00H
	DB	00H
	DB	00H
	DB	00H
	DB	00H
	DB	00H
	DB	00H
	DB	00H
	DB	00H
	DB	00H
	DB	00H
	DB	00H
	DB	00H
	DB	00H
	DB	00H
	DB	00H
	DB	00H
	DB	00H
	DB	00H
	DB	00H
	DB	00H
	DB	00H
	DB	00H
	DB	00H
	DB	00H
	DB	00H
	DB	00H
	DB	00H
	DB	00H
	DB	00H
	DB	00H
	DB	00H
	DB	00H
	DB	00H
	DB	00H
	DB	00H
	DB	00H
	DB	00H
	DB	00H
	DB	00H
	DB	00H
	DB	00H
	DB	00H
	DB	00H
	DB	00H
	DB	00H
	DB	00H
	DB	00H
	DB	00H
	DB	00H
	DB	00H
	DB	00H
	DB	00H
	DB	00H
	DB	00H
	DB	00H
	DB	00H
	DB	00H
	DB	00H
	DB	00H
	DB	00H
	DB	00H
	DB	00H
	DB	00H
	DB	00H
	DB	00H
	DB	00H
	DB	00H
	DB	00H
	DB	00H
	DB	00H
	DB	00H
	DB	00H
	DB	00H
	DB	00H
	DB	00H
	DB	00H
	DB	00H
	DB	00H
	DB	00H
	DB	00H
	DB	00H
	DB	00H
	DB	00H
	DB	00H
	DB	00H
	DB	00H
	DB	00H
	DB	00H
	DB	00H
	DB	00H
	DB	00H
	DB	00H
	DB	00H
	DB	00H
	DB	00H
	DB	00H
	DB	00H
	DB	00H
	DB	00H
	DB	00H
	DB	00H
	DB	00H
	DB	00H
	DB	00H
	DB	00H
	DB	00H
	DB	00H
	DB	00H
	DB	00H
	DB	00H
	DB	00H
	DB	00H
	DB	00H
	DB	00H
	DB	00H
	DB	00H
	DB	00H
	DB	00H
	DB	00H
	DB	00H
	DB	00H
	DB	00H
	DB	00H
	DB	00H
	DB	00H
	DB	00H
	DB	00H
	DB	00H
	DB	00H
	DB	00H
	DB	00H
	DB	00H
	DB	00H
	DB	00H
	DB	00H
	DB	00H
	DB	00H
	DB	00H
	DB	00H
	DB	00H
	DB	00H
	DB	00H
	DB	00H
	DB	00H
	DB	00H
	DB	00H
	DB	00H
	DB	00H
	DB	00H
	DB	00H
	DB	00H
	DB	00H
	DB	00H
	DB	00H
	DB	00H
	DB	00H
	DB	00H
	DB	00H
	DB	00H
	DB	00H
	DB	00H
	DB	00H
	DB	00H
	DB	00H
	DB	00H
	DB	00H
	DB	00H
	DB	00H
	DB	00H
	DB	00H
	DB	00H
	DB	00H
	DB	00H
	DB	00H
	DB	00H
	DB	00H
	DB	00H
	DB	00H
	DB	00H
	DB	00H
	DB	00H
	DB	00H
	DB	00H
	DB	00H
	DB	00H
	DB	00H
	DB	00H
	DB	00H
	DB	00H
	DB	00H
	DB	00H
	DB	00H
	DB	00H
	DB	00H
	DB	00H
	DB	00H
	DB	00H
	DB	00H
	DB	00H
	DB	00H
	DB	00H
	DB	00H
	DB	00H
	DB	00H
	DB	00H
	DB	055H
	DB	055H
	DB	055H
	DB	033H
	DB	056H
	DB	056H
	DB	056H
	DB	0cdH
	DB	056H
	DB	056H
	DB	056H
	DB	0ffH
	DB	056H
	DB	056H
	DB	056H
	DB	0ffH
	DB	046H
	DB	046H
	DB	046H
	DB	0ffH
	DB	01cH
	DB	01cH
	DB	01cH
	DB	0ffH
	DB	0bH
	DB	0bH
	DB	0bH
	DB	0ffH
	DB	0bH
	DB	0bH
	DB	0bH
	DB	0ffH
	DB	0bH
	DB	0bH
	DB	0bH
	DB	0ffH
	DB	0bH
	DB	0bH
	DB	0bH
	DB	0ffH
	DB	0bH
	DB	0bH
	DB	0bH
	DB	0ffH
	DB	0bH
	DB	0bH
	DB	0bH
	DB	0ffH
	DB	0bH
	DB	0bH
	DB	0bH
	DB	0ffH
	DB	0bH
	DB	0bH
	DB	0bH
	DB	0ffH
	DB	0bH
	DB	0bH
	DB	0bH
	DB	0ffH
	DB	0bH
	DB	0bH
	DB	0bH
	DB	0ffH
	DB	0bH
	DB	0bH
	DB	0bH
	DB	0ffH
	DB	0bH
	DB	0bH
	DB	0bH
	DB	0ffH
	DB	0bH
	DB	0bH
	DB	0bH
	DB	0ffH
	DB	0bH
	DB	0bH
	DB	0bH
	DB	0ffH
	DB	0bH
	DB	0bH
	DB	0bH
	DB	0ffH
	DB	0bH
	DB	0bH
	DB	0bH
	DB	0ffH
	DB	0bH
	DB	0bH
	DB	0bH
	DB	0ffH
	DB	0bH
	DB	0bH
	DB	0bH
	DB	0ffH
	DB	0bH
	DB	0bH
	DB	0bH
	DB	0ffH
	DB	0bH
	DB	0bH
	DB	0bH
	DB	0ffH
	DB	0bH
	DB	0bH
	DB	0bH
	DB	0ffH
	DB	0bH
	DB	0bH
	DB	0bH
	DB	0ffH
	DB	0bH
	DB	0bH
	DB	0bH
	DB	0ffH
	DB	0bH
	DB	0bH
	DB	0bH
	DB	0ffH
	DB	0bH
	DB	0bH
	DB	0bH
	DB	0ffH
	DB	0bH
	DB	0bH
	DB	0bH
	DB	0ffH
	DB	0bH
	DB	0bH
	DB	0bH
	DB	0ffH
	DB	0bH
	DB	0bH
	DB	0bH
	DB	0ffH
	DB	0bH
	DB	0bH
	DB	0bH
	DB	0ffH
	DB	0bH
	DB	0bH
	DB	0bH
	DB	0ffH
	DB	0bH
	DB	0bH
	DB	0bH
	DB	0ffH
	DB	0bH
	DB	0bH
	DB	0bH
	DB	0ffH
	DB	0bH
	DB	0bH
	DB	0bH
	DB	0ffH
	DB	0bH
	DB	0bH
	DB	0bH
	DB	0ffH
	DB	0bH
	DB	0bH
	DB	0bH
	DB	0ffH
	DB	0bH
	DB	0bH
	DB	0bH
	DB	0ffH
	DB	0bH
	DB	0bH
	DB	0bH
	DB	0ffH
	DB	0bH
	DB	0bH
	DB	0bH
	DB	0ffH
	DB	0bH
	DB	0bH
	DB	0bH
	DB	0ffH
	DB	0bH
	DB	0bH
	DB	0bH
	DB	0ffH
	DB	0bH
	DB	0bH
	DB	0bH
	DB	0ffH
	DB	0bH
	DB	0bH
	DB	0bH
	DB	0ffH
	DB	0bH
	DB	0bH
	DB	0bH
	DB	0ffH
	DB	0bH
	DB	0bH
	DB	0bH
	DB	0ffH
	DB	0bH
	DB	0bH
	DB	0bH
	DB	0ffH
	DB	0bH
	DB	0bH
	DB	0bH
	DB	0ffH
	DB	0bH
	DB	0bH
	DB	0bH
	DB	0ffH
	DB	0bH
	DB	0bH
	DB	0bH
	DB	0ffH
	DB	0bH
	DB	0bH
	DB	0bH
	DB	0ffH
	DB	0bH
	DB	0bH
	DB	0bH
	DB	0ffH
	DB	0bH
	DB	0bH
	DB	0bH
	DB	0ffH
	DB	0bH
	DB	0bH
	DB	0bH
	DB	0ffH
	DB	0bH
	DB	0bH
	DB	0bH
	DB	0ffH
	DB	0bH
	DB	0bH
	DB	0bH
	DB	0ffH
	DB	0bH
	DB	0bH
	DB	0bH
	DB	0ffH
	DB	0bH
	DB	0bH
	DB	0bH
	DB	0ffH
	DB	0bH
	DB	0bH
	DB	0bH
	DB	0ffH
	DB	0bH
	DB	0bH
	DB	0bH
	DB	0ffH
	DB	0bH
	DB	0bH
	DB	0bH
	DB	0ffH
	DB	0bH
	DB	0bH
	DB	0bH
	DB	0ffH
	DB	0bH
	DB	0bH
	DB	0bH
	DB	0ffH
	DB	0bH
	DB	0bH
	DB	0bH
	DB	0ffH
	DB	0bH
	DB	0bH
	DB	0bH
	DB	0ffH
	DB	0bH
	DB	0bH
	DB	0bH
	DB	0ffH
	DB	0bH
	DB	0bH
	DB	0bH
	DB	0ffH
	DB	0bH
	DB	0bH
	DB	0bH
	DB	0ffH
	DB	0bH
	DB	0bH
	DB	0bH
	DB	0ffH
	DB	0bH
	DB	0bH
	DB	0bH
	DB	0ffH
	DB	0bH
	DB	0bH
	DB	0bH
	DB	0ffH
	DB	0bH
	DB	0bH
	DB	0bH
	DB	0ffH
	DB	0bH
	DB	0bH
	DB	0bH
	DB	0ffH
	DB	0bH
	DB	0bH
	DB	0bH
	DB	0ffH
	DB	0bH
	DB	0bH
	DB	0bH
	DB	0ffH
	DB	0bH
	DB	0bH
	DB	0bH
	DB	0ffH
	DB	0bH
	DB	0bH
	DB	0bH
	DB	0ffH
	DB	0bH
	DB	0bH
	DB	0bH
	DB	0ffH
	DB	0bH
	DB	0bH
	DB	0bH
	DB	0ffH
	DB	0bH
	DB	0bH
	DB	0bH
	DB	0ffH
	DB	0bH
	DB	0bH
	DB	0bH
	DB	0ffH
	DB	0bH
	DB	0bH
	DB	0bH
	DB	0ffH
	DB	0bH
	DB	0bH
	DB	0bH
	DB	0ffH
	DB	0bH
	DB	0bH
	DB	0bH
	DB	0ffH
	DB	0bH
	DB	0bH
	DB	0bH
	DB	0ffH
	DB	0bH
	DB	0bH
	DB	0bH
	DB	0ffH
	DB	0bH
	DB	0bH
	DB	0bH
	DB	0ffH
	DB	0bH
	DB	0bH
	DB	0bH
	DB	0ffH
	DB	01aH
	DB	01aH
	DB	01aH
	DB	0ffH
	DB	045H
	DB	045H
	DB	045H
	DB	0ffH
	DB	056H
	DB	056H
	DB	056H
	DB	0ffH
	DB	056H
	DB	056H
	DB	056H
	DB	0ffH
	DB	056H
	DB	056H
	DB	056H
	DB	0caH
	DB	058H
	DB	058H
	DB	058H
	DB	031H
	DB	00H
	DB	00H
	DB	00H
	DB	00H
	DB	00H
	DB	00H
	DB	00H
	DB	00H
	DB	00H
	DB	00H
	DB	00H
	DB	00H
	DB	00H
	DB	00H
	DB	00H
	DB	00H
	DB	00H
	DB	00H
	DB	00H
	DB	00H
	DB	00H
	DB	00H
	DB	00H
	DB	00H
	DB	00H
	DB	00H
	DB	00H
	DB	00H
	DB	00H
	DB	00H
	DB	00H
	DB	00H
	DB	00H
	DB	00H
	DB	00H
	DB	00H
	DB	00H
	DB	00H
	DB	00H
	DB	00H
	DB	00H
	DB	00H
	DB	00H
	DB	00H
	DB	00H
	DB	00H
	DB	00H
	DB	00H
	DB	00H
	DB	00H
	DB	00H
	DB	00H
	DB	00H
	DB	00H
	DB	00H
	DB	00H
	DB	00H
	DB	00H
	DB	00H
	DB	00H
	DB	00H
	DB	00H
	DB	00H
	DB	00H
	DB	00H
	DB	00H
	DB	00H
	DB	00H
	DB	00H
	DB	00H
	DB	00H
	DB	00H
	DB	00H
	DB	00H
	DB	00H
	DB	00H
	DB	00H
	DB	00H
	DB	00H
	DB	00H
	DB	00H
	DB	00H
	DB	00H
	DB	00H
	DB	00H
	DB	00H
	DB	00H
	DB	00H
	DB	00H
	DB	00H
	DB	00H
	DB	00H
	DB	00H
	DB	00H
	DB	00H
	DB	00H
	DB	00H
	DB	00H
	DB	00H
	DB	00H
	DB	00H
	DB	00H
	DB	00H
	DB	00H
	DB	00H
	DB	00H
	DB	00H
	DB	00H
	DB	00H
	DB	00H
	DB	00H
	DB	00H
	DB	00H
	DB	00H
	DB	00H
	DB	00H
	DB	00H
	DB	00H
	DB	00H
	DB	00H
	DB	00H
	DB	00H
	DB	00H
	DB	00H
	DB	00H
	DB	00H
	DB	00H
	DB	00H
	DB	00H
	DB	00H
	DB	00H
	DB	00H
	DB	00H
	DB	00H
	DB	00H
	DB	00H
	DB	00H
	DB	00H
	DB	00H
	DB	00H
	DB	00H
	DB	00H
	DB	00H
	DB	00H
	DB	00H
	DB	00H
	DB	00H
	DB	00H
	DB	00H
	DB	00H
	DB	00H
	DB	00H
	DB	00H
	DB	00H
	DB	00H
	DB	00H
	DB	00H
	DB	00H
	DB	00H
	DB	00H
	DB	00H
	DB	00H
	DB	00H
	DB	00H
	DB	00H
	DB	00H
	DB	00H
	DB	00H
	DB	00H
	DB	00H
	DB	00H
	DB	00H
	DB	00H
	DB	00H
	DB	00H
	DB	00H
	DB	00H
	DB	00H
	DB	00H
	DB	00H
	DB	00H
	DB	00H
	DB	00H
	DB	00H
	DB	00H
	DB	00H
	DB	00H
	DB	00H
	DB	00H
	DB	00H
	DB	00H
	DB	00H
	DB	00H
	DB	00H
	DB	00H
	DB	00H
	DB	00H
	DB	00H
	DB	00H
	DB	00H
	DB	00H
	DB	00H
	DB	00H
	DB	00H
	DB	00H
	DB	00H
	DB	00H
	DB	00H
	DB	00H
	DB	00H
	DB	00H
	DB	00H
	DB	00H
	DB	00H
	DB	00H
	DB	00H
	DB	00H
	DB	00H
	DB	00H
	DB	00H
	DB	00H
	DB	00H
	DB	00H
	DB	00H
	DB	00H
	DB	00H
	DB	00H
	DB	00H
	DB	00H
	DB	00H
	DB	00H
	DB	00H
	DB	00H
	DB	00H
	DB	00H
	DB	00H
	DB	00H
	DB	00H
	DB	00H
	DB	00H
	DB	00H
	DB	00H
	DB	00H
	DB	00H
	DB	00H
	DB	00H
	DB	00H
	DB	00H
	DB	00H
	DB	00H
	DB	00H
	DB	00H
	DB	00H
	DB	00H
	DB	00H
	DB	00H
	DB	00H
	DB	00H
	DB	00H
	DB	00H
	DB	00H
	DB	00H
	DB	00H
	DB	00H
	DB	00H
	DB	00H
	DB	00H
	DB	00H
	DB	00H
	DB	00H
	DB	00H
	DB	00H
	DB	00H
	DB	00H
	DB	00H
	DB	00H
	DB	00H
	DB	00H
	DB	00H
	DB	00H
	DB	00H
	DB	00H
	DB	00H
	DB	00H
	DB	00H
	DB	00H
	DB	00H
	DB	00H
	DB	00H
	DB	00H
	DB	00H
	DB	00H
	DB	00H
	DB	00H
	DB	00H
	DB	00H
	DB	00H
	DB	00H
	DB	00H
	DB	00H
	DB	00H
	DB	00H
	DB	00H
	DB	00H
	DB	00H
	DB	00H
	DB	00H
	DB	00H
	DB	00H
	DB	00H
	DB	00H
	DB	00H
	DB	00H
	DB	00H
	DB	00H
	DB	00H
	DB	00H
	DB	00H
	DB	00H
	DB	00H
	DB	00H
	DB	00H
	DB	00H
	DB	00H
	DB	00H
	DB	00H
	DB	00H
	DB	00H
	DB	00H
	DB	00H
	DB	00H
	DB	00H
	DB	00H
	DB	00H
	DB	00H
	DB	00H
	DB	04dH
	DB	04dH
	DB	04dH
	DB	0aH
	DB	056H
	DB	056H
	DB	056H
	DB	08bH
	DB	056H
	DB	056H
	DB	056H
	DB	0fbH
	DB	056H
	DB	056H
	DB	056H
	DB	0ffH
	DB	04eH
	DB	04eH
	DB	04eH
	DB	0ffH
	DB	026H
	DB	026H
	DB	026H
	DB	0ffH
	DB	0bH
	DB	0bH
	DB	0bH
	DB	0ffH
	DB	0bH
	DB	0bH
	DB	0bH
	DB	0ffH
	DB	0bH
	DB	0bH
	DB	0bH
	DB	0ffH
	DB	0bH
	DB	0bH
	DB	0bH
	DB	0ffH
	DB	0bH
	DB	0bH
	DB	0bH
	DB	0ffH
	DB	0bH
	DB	0bH
	DB	0bH
	DB	0ffH
	DB	0bH
	DB	0bH
	DB	0bH
	DB	0ffH
	DB	0bH
	DB	0bH
	DB	0bH
	DB	0ffH
	DB	0bH
	DB	0bH
	DB	0bH
	DB	0ffH
	DB	0bH
	DB	0bH
	DB	0bH
	DB	0ffH
	DB	0bH
	DB	0bH
	DB	0bH
	DB	0ffH
	DB	0bH
	DB	0bH
	DB	0bH
	DB	0ffH
	DB	0bH
	DB	0bH
	DB	0bH
	DB	0ffH
	DB	0bH
	DB	0bH
	DB	0bH
	DB	0ffH
	DB	0bH
	DB	0bH
	DB	0bH
	DB	0ffH
	DB	0bH
	DB	0bH
	DB	0bH
	DB	0ffH
	DB	0bH
	DB	0bH
	DB	0bH
	DB	0ffH
	DB	0bH
	DB	0bH
	DB	0bH
	DB	0ffH
	DB	0bH
	DB	0bH
	DB	0bH
	DB	0ffH
	DB	0bH
	DB	0bH
	DB	0bH
	DB	0ffH
	DB	0bH
	DB	0bH
	DB	0bH
	DB	0ffH
	DB	0bH
	DB	0bH
	DB	0bH
	DB	0ffH
	DB	0bH
	DB	0bH
	DB	0bH
	DB	0ffH
	DB	0bH
	DB	0bH
	DB	0bH
	DB	0ffH
	DB	0bH
	DB	0bH
	DB	0bH
	DB	0ffH
	DB	0bH
	DB	0bH
	DB	0bH
	DB	0ffH
	DB	0bH
	DB	0bH
	DB	0bH
	DB	0ffH
	DB	0bH
	DB	0bH
	DB	0bH
	DB	0ffH
	DB	0bH
	DB	0bH
	DB	0bH
	DB	0ffH
	DB	0bH
	DB	0bH
	DB	0bH
	DB	0ffH
	DB	0bH
	DB	0bH
	DB	0bH
	DB	0ffH
	DB	0bH
	DB	0bH
	DB	0bH
	DB	0ffH
	DB	0bH
	DB	0bH
	DB	0bH
	DB	0ffH
	DB	0bH
	DB	0bH
	DB	0bH
	DB	0ffH
	DB	0bH
	DB	0bH
	DB	0bH
	DB	0ffH
	DB	0bH
	DB	0bH
	DB	0bH
	DB	0ffH
	DB	0bH
	DB	0bH
	DB	0bH
	DB	0ffH
	DB	0bH
	DB	0bH
	DB	0bH
	DB	0ffH
	DB	0bH
	DB	0bH
	DB	0bH
	DB	0ffH
	DB	0bH
	DB	0bH
	DB	0bH
	DB	0ffH
	DB	0bH
	DB	0bH
	DB	0bH
	DB	0ffH
	DB	0bH
	DB	0bH
	DB	0bH
	DB	0ffH
	DB	0bH
	DB	0bH
	DB	0bH
	DB	0ffH
	DB	0bH
	DB	0bH
	DB	0bH
	DB	0ffH
	DB	0bH
	DB	0bH
	DB	0bH
	DB	0ffH
	DB	0bH
	DB	0bH
	DB	0bH
	DB	0ffH
	DB	0bH
	DB	0bH
	DB	0bH
	DB	0ffH
	DB	0bH
	DB	0bH
	DB	0bH
	DB	0ffH
	DB	0bH
	DB	0bH
	DB	0bH
	DB	0ffH
	DB	0bH
	DB	0bH
	DB	0bH
	DB	0ffH
	DB	0bH
	DB	0bH
	DB	0bH
	DB	0ffH
	DB	0bH
	DB	0bH
	DB	0bH
	DB	0ffH
	DB	0bH
	DB	0bH
	DB	0bH
	DB	0ffH
	DB	0bH
	DB	0bH
	DB	0bH
	DB	0ffH
	DB	0bH
	DB	0bH
	DB	0bH
	DB	0ffH
	DB	0bH
	DB	0bH
	DB	0bH
	DB	0ffH
	DB	0bH
	DB	0bH
	DB	0bH
	DB	0ffH
	DB	0bH
	DB	0bH
	DB	0bH
	DB	0ffH
	DB	0bH
	DB	0bH
	DB	0bH
	DB	0ffH
	DB	0bH
	DB	0bH
	DB	0bH
	DB	0ffH
	DB	0bH
	DB	0bH
	DB	0bH
	DB	0ffH
	DB	0bH
	DB	0bH
	DB	0bH
	DB	0ffH
	DB	0bH
	DB	0bH
	DB	0bH
	DB	0ffH
	DB	0bH
	DB	0bH
	DB	0bH
	DB	0ffH
	DB	0bH
	DB	0bH
	DB	0bH
	DB	0ffH
	DB	0bH
	DB	0bH
	DB	0bH
	DB	0ffH
	DB	0bH
	DB	0bH
	DB	0bH
	DB	0ffH
	DB	0bH
	DB	0bH
	DB	0bH
	DB	0ffH
	DB	0bH
	DB	0bH
	DB	0bH
	DB	0ffH
	DB	0bH
	DB	0bH
	DB	0bH
	DB	0ffH
	DB	0bH
	DB	0bH
	DB	0bH
	DB	0ffH
	DB	0bH
	DB	0bH
	DB	0bH
	DB	0ffH
	DB	0bH
	DB	0bH
	DB	0bH
	DB	0ffH
	DB	0bH
	DB	0bH
	DB	0bH
	DB	0ffH
	DB	0bH
	DB	0bH
	DB	0bH
	DB	0ffH
	DB	0bH
	DB	0bH
	DB	0bH
	DB	0ffH
	DB	0bH
	DB	0bH
	DB	0bH
	DB	0ffH
	DB	0bH
	DB	0bH
	DB	0bH
	DB	0ffH
	DB	0bH
	DB	0bH
	DB	0bH
	DB	0ffH
	DB	0bH
	DB	0bH
	DB	0bH
	DB	0ffH
	DB	0bH
	DB	0bH
	DB	0bH
	DB	0ffH
	DB	0bH
	DB	0bH
	DB	0bH
	DB	0ffH
	DB	0bH
	DB	0bH
	DB	0bH
	DB	0ffH
	DB	0bH
	DB	0bH
	DB	0bH
	DB	0ffH
	DB	0bH
	DB	0bH
	DB	0bH
	DB	0ffH
	DB	0bH
	DB	0bH
	DB	0bH
	DB	0ffH
	DB	0bH
	DB	0bH
	DB	0bH
	DB	0ffH
	DB	0bH
	DB	0bH
	DB	0bH
	DB	0ffH
	DB	0bH
	DB	0bH
	DB	0bH
	DB	0ffH
	DB	0bH
	DB	0bH
	DB	0bH
	DB	0ffH
	DB	022H
	DB	022H
	DB	022H
	DB	0ffH
	DB	04cH
	DB	04cH
	DB	04cH
	DB	0ffH
	DB	056H
	DB	056H
	DB	056H
	DB	0ffH
	DB	056H
	DB	056H
	DB	056H
	DB	0fbH
	DB	056H
	DB	056H
	DB	056H
	DB	088H
	DB	055H
	DB	055H
	DB	055H
	DB	09H
	DB	00H
	DB	00H
	DB	00H
	DB	00H
	DB	00H
	DB	00H
	DB	00H
	DB	00H
	DB	00H
	DB	00H
	DB	00H
	DB	00H
	DB	00H
	DB	00H
	DB	00H
	DB	00H
	DB	00H
	DB	00H
	DB	00H
	DB	00H
	DB	00H
	DB	00H
	DB	00H
	DB	00H
	DB	00H
	DB	00H
	DB	00H
	DB	00H
	DB	00H
	DB	00H
	DB	00H
	DB	00H
	DB	00H
	DB	00H
	DB	00H
	DB	00H
	DB	00H
	DB	00H
	DB	00H
	DB	00H
	DB	00H
	DB	00H
	DB	00H
	DB	00H
	DB	00H
	DB	00H
	DB	00H
	DB	00H
	DB	00H
	DB	00H
	DB	00H
	DB	00H
	DB	00H
	DB	00H
	DB	00H
	DB	00H
	DB	00H
	DB	00H
	DB	00H
	DB	00H
	DB	00H
	DB	00H
	DB	00H
	DB	00H
	DB	00H
	DB	00H
	DB	00H
	DB	00H
	DB	00H
	DB	00H
	DB	00H
	DB	00H
	DB	00H
	DB	00H
	DB	00H
	DB	00H
	DB	00H
	DB	00H
	DB	00H
	DB	00H
	DB	00H
	DB	00H
	DB	00H
	DB	00H
	DB	00H
	DB	00H
	DB	00H
	DB	00H
	DB	00H
	DB	00H
	DB	00H
	DB	00H
	DB	00H
	DB	00H
	DB	00H
	DB	00H
	DB	00H
	DB	00H
	DB	00H
	DB	00H
	DB	00H
	DB	00H
	DB	00H
	DB	00H
	DB	00H
	DB	00H
	DB	00H
	DB	00H
	DB	00H
	DB	00H
	DB	00H
	DB	00H
	DB	00H
	DB	00H
	DB	00H
	DB	00H
	DB	00H
	DB	00H
	DB	00H
	DB	00H
	DB	00H
	DB	00H
	DB	00H
	DB	00H
	DB	00H
	DB	00H
	DB	00H
	DB	00H
	DB	00H
	DB	00H
	DB	00H
	DB	00H
	DB	00H
	DB	00H
	DB	00H
	DB	00H
	DB	00H
	DB	00H
	DB	00H
	DB	00H
	DB	00H
	DB	00H
	DB	00H
	DB	00H
	DB	00H
	DB	00H
	DB	00H
	DB	00H
	DB	00H
	DB	00H
	DB	00H
	DB	00H
	DB	00H
	DB	00H
	DB	00H
	DB	00H
	DB	00H
	DB	00H
	DB	00H
	DB	00H
	DB	00H
	DB	00H
	DB	00H
	DB	00H
	DB	00H
	DB	00H
	DB	00H
	DB	00H
	DB	00H
	DB	00H
	DB	00H
	DB	00H
	DB	00H
	DB	00H
	DB	00H
	DB	00H
	DB	00H
	DB	00H
	DB	00H
	DB	00H
	DB	00H
	DB	00H
	DB	00H
	DB	00H
	DB	00H
	DB	00H
	DB	00H
	DB	00H
	DB	00H
	DB	00H
	DB	00H
	DB	00H
	DB	00H
	DB	00H
	DB	00H
	DB	00H
	DB	00H
	DB	00H
	DB	00H
	DB	00H
	DB	00H
	DB	00H
	DB	00H
	DB	00H
	DB	00H
	DB	00H
	DB	00H
	DB	00H
	DB	00H
	DB	00H
	DB	00H
	DB	00H
	DB	00H
	DB	00H
	DB	00H
	DB	00H
	DB	00H
	DB	00H
	DB	00H
	DB	00H
	DB	00H
	DB	00H
	DB	00H
	DB	00H
	DB	00H
	DB	00H
	DB	00H
	DB	00H
	DB	00H
	DB	00H
	DB	00H
	DB	00H
	DB	00H
	DB	00H
	DB	00H
	DB	00H
	DB	00H
	DB	00H
	DB	00H
	DB	00H
	DB	00H
	DB	00H
	DB	00H
	DB	00H
	DB	00H
	DB	00H
	DB	00H
	DB	00H
	DB	00H
	DB	00H
	DB	00H
	DB	00H
	DB	00H
	DB	00H
	DB	00H
	DB	00H
	DB	00H
	DB	00H
	DB	00H
	DB	00H
	DB	00H
	DB	00H
	DB	00H
	DB	00H
	DB	00H
	DB	00H
	DB	00H
	DB	00H
	DB	00H
	DB	00H
	DB	00H
	DB	00H
	DB	00H
	DB	00H
	DB	00H
	DB	00H
	DB	00H
	DB	00H
	DB	00H
	DB	00H
	DB	00H
	DB	00H
	DB	00H
	DB	00H
	DB	00H
	DB	00H
	DB	00H
	DB	00H
	DB	00H
	DB	00H
	DB	00H
	DB	00H
	DB	00H
	DB	00H
	DB	00H
	DB	00H
	DB	00H
	DB	00H
	DB	00H
	DB	00H
	DB	00H
	DB	00H
	DB	00H
	DB	00H
	DB	00H
	DB	00H
	DB	00H
	DB	00H
	DB	00H
	DB	00H
	DB	00H
	DB	00H
	DB	00H
	DB	00H
	DB	00H
	DB	00H
	DB	00H
	DB	00H
	DB	00H
	DB	00H
	DB	00H
	DB	00H
	DB	00H
	DB	00H
	DB	055H
	DB	055H
	DB	055H
	DB	042H
	DB	057H
	DB	057H
	DB	057H
	DB	0ddH
	DB	056H
	DB	056H
	DB	056H
	DB	0ffH
	DB	055H
	DB	055H
	DB	055H
	DB	0ffH
	DB	038H
	DB	038H
	DB	038H
	DB	0ffH
	DB	0eH
	DB	0eH
	DB	0eH
	DB	0ffH
	DB	0bH
	DB	0bH
	DB	0bH
	DB	0ffH
	DB	0bH
	DB	0bH
	DB	0bH
	DB	0ffH
	DB	0bH
	DB	0bH
	DB	0bH
	DB	0ffH
	DB	0bH
	DB	0bH
	DB	0bH
	DB	0ffH
	DB	0bH
	DB	0bH
	DB	0bH
	DB	0ffH
	DB	0bH
	DB	0bH
	DB	0bH
	DB	0ffH
	DB	0bH
	DB	0bH
	DB	0bH
	DB	0ffH
	DB	0bH
	DB	0bH
	DB	0bH
	DB	0ffH
	DB	0bH
	DB	0bH
	DB	0bH
	DB	0ffH
	DB	0bH
	DB	0bH
	DB	0bH
	DB	0ffH
	DB	0bH
	DB	0bH
	DB	0bH
	DB	0ffH
	DB	0bH
	DB	0bH
	DB	0bH
	DB	0ffH
	DB	0bH
	DB	0bH
	DB	0bH
	DB	0ffH
	DB	0bH
	DB	0bH
	DB	0bH
	DB	0ffH
	DB	0bH
	DB	0bH
	DB	0bH
	DB	0ffH
	DB	0bH
	DB	0bH
	DB	0bH
	DB	0ffH
	DB	0bH
	DB	0bH
	DB	0bH
	DB	0ffH
	DB	0bH
	DB	0bH
	DB	0bH
	DB	0ffH
	DB	0bH
	DB	0bH
	DB	0bH
	DB	0ffH
	DB	0bH
	DB	0bH
	DB	0bH
	DB	0ffH
	DB	0bH
	DB	0bH
	DB	0bH
	DB	0ffH
	DB	0bH
	DB	0bH
	DB	0bH
	DB	0ffH
	DB	0bH
	DB	0bH
	DB	0bH
	DB	0ffH
	DB	0bH
	DB	0bH
	DB	0bH
	DB	0ffH
	DB	0bH
	DB	0bH
	DB	0bH
	DB	0ffH
	DB	0bH
	DB	0bH
	DB	0bH
	DB	0ffH
	DB	0bH
	DB	0bH
	DB	0bH
	DB	0ffH
	DB	0bH
	DB	0bH
	DB	0bH
	DB	0ffH
	DB	0bH
	DB	0bH
	DB	0bH
	DB	0ffH
	DB	0bH
	DB	0bH
	DB	0bH
	DB	0ffH
	DB	0bH
	DB	0bH
	DB	0bH
	DB	0ffH
	DB	0bH
	DB	0bH
	DB	0bH
	DB	0ffH
	DB	0bH
	DB	0bH
	DB	0bH
	DB	0ffH
	DB	0bH
	DB	0bH
	DB	0bH
	DB	0ffH
	DB	0bH
	DB	0bH
	DB	0bH
	DB	0ffH
	DB	0bH
	DB	0bH
	DB	0bH
	DB	0ffH
	DB	0bH
	DB	0bH
	DB	0bH
	DB	0ffH
	DB	0bH
	DB	0bH
	DB	0bH
	DB	0ffH
	DB	0bH
	DB	0bH
	DB	0bH
	DB	0ffH
	DB	0bH
	DB	0bH
	DB	0bH
	DB	0ffH
	DB	0bH
	DB	0bH
	DB	0bH
	DB	0ffH
	DB	0bH
	DB	0bH
	DB	0bH
	DB	0ffH
	DB	0bH
	DB	0bH
	DB	0bH
	DB	0ffH
	DB	0bH
	DB	0bH
	DB	0bH
	DB	0ffH
	DB	0bH
	DB	0bH
	DB	0bH
	DB	0ffH
	DB	0bH
	DB	0bH
	DB	0bH
	DB	0ffH
	DB	0bH
	DB	0bH
	DB	0bH
	DB	0ffH
	DB	0bH
	DB	0bH
	DB	0bH
	DB	0ffH
	DB	0bH
	DB	0bH
	DB	0bH
	DB	0ffH
	DB	0bH
	DB	0bH
	DB	0bH
	DB	0ffH
	DB	0bH
	DB	0bH
	DB	0bH
	DB	0ffH
	DB	0bH
	DB	0bH
	DB	0bH
	DB	0ffH
	DB	0bH
	DB	0bH
	DB	0bH
	DB	0ffH
	DB	0bH
	DB	0bH
	DB	0bH
	DB	0ffH
	DB	0bH
	DB	0bH
	DB	0bH
	DB	0ffH
	DB	0bH
	DB	0bH
	DB	0bH
	DB	0ffH
	DB	0bH
	DB	0bH
	DB	0bH
	DB	0ffH
	DB	0bH
	DB	0bH
	DB	0bH
	DB	0ffH
	DB	0bH
	DB	0bH
	DB	0bH
	DB	0ffH
	DB	0bH
	DB	0bH
	DB	0bH
	DB	0ffH
	DB	0bH
	DB	0bH
	DB	0bH
	DB	0ffH
	DB	0bH
	DB	0bH
	DB	0bH
	DB	0ffH
	DB	0bH
	DB	0bH
	DB	0bH
	DB	0ffH
	DB	0bH
	DB	0bH
	DB	0bH
	DB	0ffH
	DB	0bH
	DB	0bH
	DB	0bH
	DB	0ffH
	DB	0bH
	DB	0bH
	DB	0bH
	DB	0ffH
	DB	0bH
	DB	0bH
	DB	0bH
	DB	0ffH
	DB	0bH
	DB	0bH
	DB	0bH
	DB	0ffH
	DB	0bH
	DB	0bH
	DB	0bH
	DB	0ffH
	DB	0bH
	DB	0bH
	DB	0bH
	DB	0ffH
	DB	0bH
	DB	0bH
	DB	0bH
	DB	0ffH
	DB	0bH
	DB	0bH
	DB	0bH
	DB	0ffH
	DB	0bH
	DB	0bH
	DB	0bH
	DB	0ffH
	DB	0bH
	DB	0bH
	DB	0bH
	DB	0ffH
	DB	0bH
	DB	0bH
	DB	0bH
	DB	0ffH
	DB	0bH
	DB	0bH
	DB	0bH
	DB	0ffH
	DB	0bH
	DB	0bH
	DB	0bH
	DB	0ffH
	DB	0bH
	DB	0bH
	DB	0bH
	DB	0ffH
	DB	0bH
	DB	0bH
	DB	0bH
	DB	0ffH
	DB	0bH
	DB	0bH
	DB	0bH
	DB	0ffH
	DB	0bH
	DB	0bH
	DB	0bH
	DB	0ffH
	DB	0bH
	DB	0bH
	DB	0bH
	DB	0ffH
	DB	0bH
	DB	0bH
	DB	0bH
	DB	0ffH
	DB	0bH
	DB	0bH
	DB	0bH
	DB	0ffH
	DB	0bH
	DB	0bH
	DB	0bH
	DB	0ffH
	DB	0bH
	DB	0bH
	DB	0bH
	DB	0ffH
	DB	0bH
	DB	0bH
	DB	0bH
	DB	0ffH
	DB	0bH
	DB	0bH
	DB	0bH
	DB	0ffH
	DB	0bH
	DB	0bH
	DB	0bH
	DB	0ffH
	DB	0bH
	DB	0bH
	DB	0bH
	DB	0ffH
	DB	0bH
	DB	0bH
	DB	0bH
	DB	0ffH
	DB	0bH
	DB	0bH
	DB	0bH
	DB	0ffH
	DB	0eH
	DB	0eH
	DB	0eH
	DB	0ffH
	DB	033H
	DB	033H
	DB	033H
	DB	0ffH
	DB	055H
	DB	055H
	DB	055H
	DB	0ffH
	DB	056H
	DB	056H
	DB	056H
	DB	0ffH
	DB	056H
	DB	056H
	DB	056H
	DB	0dbH
	DB	055H
	DB	055H
	DB	055H
	DB	03fH
	DB	00H
	DB	00H
	DB	00H
	DB	00H
	DB	00H
	DB	00H
	DB	00H
	DB	00H
	DB	00H
	DB	00H
	DB	00H
	DB	00H
	DB	00H
	DB	00H
	DB	00H
	DB	00H
	DB	00H
	DB	00H
	DB	00H
	DB	00H
	DB	00H
	DB	00H
	DB	00H
	DB	00H
	DB	00H
	DB	00H
	DB	00H
	DB	00H
	DB	00H
	DB	00H
	DB	00H
	DB	00H
	DB	00H
	DB	00H
	DB	00H
	DB	00H
	DB	00H
	DB	00H
	DB	00H
	DB	00H
	DB	00H
	DB	00H
	DB	00H
	DB	00H
	DB	00H
	DB	00H
	DB	00H
	DB	00H
	DB	00H
	DB	00H
	DB	00H
	DB	00H
	DB	00H
	DB	00H
	DB	00H
	DB	00H
	DB	00H
	DB	00H
	DB	00H
	DB	00H
	DB	00H
	DB	00H
	DB	00H
	DB	00H
	DB	00H
	DB	00H
	DB	00H
	DB	00H
	DB	00H
	DB	00H
	DB	00H
	DB	00H
	DB	00H
	DB	00H
	DB	00H
	DB	00H
	DB	00H
	DB	00H
	DB	00H
	DB	00H
	DB	00H
	DB	00H
	DB	00H
	DB	00H
	DB	00H
	DB	00H
	DB	00H
	DB	00H
	DB	00H
	DB	00H
	DB	00H
	DB	00H
	DB	00H
	DB	00H
	DB	00H
	DB	00H
	DB	00H
	DB	00H
	DB	00H
	DB	00H
	DB	00H
	DB	00H
	DB	00H
	DB	00H
	DB	00H
	DB	00H
	DB	00H
	DB	00H
	DB	00H
	DB	00H
	DB	00H
	DB	00H
	DB	00H
	DB	00H
	DB	00H
	DB	00H
	DB	00H
	DB	00H
	DB	00H
	DB	00H
	DB	00H
	DB	00H
	DB	00H
	DB	00H
	DB	00H
	DB	00H
	DB	00H
	DB	00H
	DB	00H
	DB	00H
	DB	00H
	DB	00H
	DB	00H
	DB	00H
	DB	00H
	DB	00H
	DB	00H
	DB	00H
	DB	00H
	DB	00H
	DB	00H
	DB	00H
	DB	00H
	DB	00H
	DB	00H
	DB	00H
	DB	00H
	DB	00H
	DB	00H
	DB	00H
	DB	00H
	DB	00H
	DB	00H
	DB	00H
	DB	00H
	DB	00H
	DB	00H
	DB	00H
	DB	00H
	DB	00H
	DB	00H
	DB	00H
	DB	00H
	DB	00H
	DB	00H
	DB	00H
	DB	00H
	DB	00H
	DB	00H
	DB	00H
	DB	00H
	DB	00H
	DB	00H
	DB	00H
	DB	00H
	DB	00H
	DB	00H
	DB	00H
	DB	00H
	DB	00H
	DB	00H
	DB	00H
	DB	00H
	DB	00H
	DB	00H
	DB	00H
	DB	00H
	DB	00H
	DB	00H
	DB	00H
	DB	00H
	DB	00H
	DB	00H
	DB	00H
	DB	00H
	DB	00H
	DB	00H
	DB	00H
	DB	00H
	DB	00H
	DB	00H
	DB	00H
	DB	00H
	DB	00H
	DB	00H
	DB	00H
	DB	00H
	DB	00H
	DB	00H
	DB	00H
	DB	00H
	DB	00H
	DB	00H
	DB	00H
	DB	00H
	DB	00H
	DB	00H
	DB	00H
	DB	00H
	DB	00H
	DB	00H
	DB	00H
	DB	00H
	DB	00H
	DB	00H
	DB	00H
	DB	00H
	DB	00H
	DB	00H
	DB	00H
	DB	00H
	DB	00H
	DB	00H
	DB	00H
	DB	00H
	DB	00H
	DB	00H
	DB	00H
	DB	00H
	DB	00H
	DB	00H
	DB	00H
	DB	00H
	DB	00H
	DB	00H
	DB	00H
	DB	00H
	DB	00H
	DB	00H
	DB	00H
	DB	00H
	DB	00H
	DB	00H
	DB	00H
	DB	00H
	DB	00H
	DB	00H
	DB	00H
	DB	00H
	DB	00H
	DB	00H
	DB	00H
	DB	00H
	DB	00H
	DB	00H
	DB	00H
	DB	00H
	DB	00H
	DB	00H
	DB	00H
	DB	00H
	DB	00H
	DB	00H
	DB	00H
	DB	00H
	DB	00H
	DB	00H
	DB	00H
	DB	00H
	DB	00H
	DB	00H
	DB	00H
	DB	00H
	DB	00H
	DB	00H
	DB	00H
	DB	00H
	DB	00H
	DB	00H
	DB	00H
	DB	00H
	DB	00H
	DB	00H
	DB	00H
	DB	00H
	DB	00H
	DB	00H
	DB	00H
	DB	00H
	DB	00H
	DB	00H
	DB	00H
	DB	00H
	DB	00H
	DB	00H
	DB	00H
	DB	00H
	DB	00H
	DB	00H
	DB	00H
	DB	00H
	DB	00H
	DB	049H
	DB	049H
	DB	049H
	DB	07H
	DB	056H
	DB	056H
	DB	056H
	DB	08bH
	DB	056H
	DB	056H
	DB	056H
	DB	0fdH
	DB	056H
	DB	056H
	DB	056H
	DB	0ffH
	DB	048H
	DB	048H
	DB	048H
	DB	0ffH
	DB	01bH
	DB	01bH
	DB	01bH
	DB	0ffH
	DB	0bH
	DB	0bH
	DB	0bH
	DB	0ffH
	DB	0bH
	DB	0bH
	DB	0bH
	DB	0ffH
	DB	0bH
	DB	0bH
	DB	0bH
	DB	0ffH
	DB	0bH
	DB	0bH
	DB	0bH
	DB	0ffH
	DB	0bH
	DB	0bH
	DB	0bH
	DB	0ffH
	DB	0bH
	DB	0bH
	DB	0bH
	DB	0ffH
	DB	0bH
	DB	0bH
	DB	0bH
	DB	0ffH
	DB	0bH
	DB	0bH
	DB	0bH
	DB	0ffH
	DB	0bH
	DB	0bH
	DB	0bH
	DB	0ffH
	DB	0bH
	DB	0bH
	DB	0bH
	DB	0ffH
	DB	0bH
	DB	0bH
	DB	0bH
	DB	0ffH
	DB	0bH
	DB	0bH
	DB	0bH
	DB	0ffH
	DB	0bH
	DB	0bH
	DB	0bH
	DB	0ffH
	DB	0bH
	DB	0bH
	DB	0bH
	DB	0ffH
	DB	0bH
	DB	0bH
	DB	0bH
	DB	0ffH
	DB	0bH
	DB	0bH
	DB	0bH
	DB	0ffH
	DB	0bH
	DB	0bH
	DB	0bH
	DB	0ffH
	DB	0bH
	DB	0bH
	DB	0bH
	DB	0ffH
	DB	0bH
	DB	0bH
	DB	0bH
	DB	0ffH
	DB	0bH
	DB	0bH
	DB	0bH
	DB	0ffH
	DB	0bH
	DB	0bH
	DB	0bH
	DB	0ffH
	DB	0bH
	DB	0bH
	DB	0bH
	DB	0ffH
	DB	0bH
	DB	0bH
	DB	0bH
	DB	0ffH
	DB	0bH
	DB	0bH
	DB	0bH
	DB	0ffH
	DB	0bH
	DB	0bH
	DB	0bH
	DB	0ffH
	DB	0bH
	DB	0bH
	DB	0bH
	DB	0ffH
	DB	0bH
	DB	0bH
	DB	0bH
	DB	0ffH
	DB	0bH
	DB	0bH
	DB	0bH
	DB	0ffH
	DB	0bH
	DB	0bH
	DB	0bH
	DB	0ffH
	DB	0bH
	DB	0bH
	DB	0bH
	DB	0ffH
	DB	0bH
	DB	0bH
	DB	0bH
	DB	0ffH
	DB	0bH
	DB	0bH
	DB	0bH
	DB	0ffH
	DB	0bH
	DB	0bH
	DB	0bH
	DB	0ffH
	DB	0bH
	DB	0bH
	DB	0bH
	DB	0ffH
	DB	0bH
	DB	0bH
	DB	0bH
	DB	0ffH
	DB	0bH
	DB	0bH
	DB	0bH
	DB	0ffH
	DB	0bH
	DB	0bH
	DB	0bH
	DB	0ffH
	DB	0bH
	DB	0bH
	DB	0bH
	DB	0ffH
	DB	0bH
	DB	0bH
	DB	0bH
	DB	0ffH
	DB	0bH
	DB	0bH
	DB	0bH
	DB	0ffH
	DB	0bH
	DB	0bH
	DB	0bH
	DB	0ffH
	DB	0bH
	DB	0bH
	DB	0bH
	DB	0ffH
	DB	0bH
	DB	0bH
	DB	0bH
	DB	0ffH
	DB	0bH
	DB	0bH
	DB	0bH
	DB	0ffH
	DB	0bH
	DB	0bH
	DB	0bH
	DB	0ffH
	DB	0bH
	DB	0bH
	DB	0bH
	DB	0ffH
	DB	0bH
	DB	0bH
	DB	0bH
	DB	0ffH
	DB	0bH
	DB	0bH
	DB	0bH
	DB	0ffH
	DB	0bH
	DB	0bH
	DB	0bH
	DB	0ffH
	DB	0bH
	DB	0bH
	DB	0bH
	DB	0ffH
	DB	0bH
	DB	0bH
	DB	0bH
	DB	0ffH
	DB	0bH
	DB	0bH
	DB	0bH
	DB	0ffH
	DB	0bH
	DB	0bH
	DB	0bH
	DB	0ffH
	DB	0bH
	DB	0bH
	DB	0bH
	DB	0ffH
	DB	0bH
	DB	0bH
	DB	0bH
	DB	0ffH
	DB	0bH
	DB	0bH
	DB	0bH
	DB	0ffH
	DB	0bH
	DB	0bH
	DB	0bH
	DB	0ffH
	DB	0bH
	DB	0bH
	DB	0bH
	DB	0ffH
	DB	0bH
	DB	0bH
	DB	0bH
	DB	0ffH
	DB	0bH
	DB	0bH
	DB	0bH
	DB	0ffH
	DB	0bH
	DB	0bH
	DB	0bH
	DB	0ffH
	DB	0bH
	DB	0bH
	DB	0bH
	DB	0ffH
	DB	0bH
	DB	0bH
	DB	0bH
	DB	0ffH
	DB	0bH
	DB	0bH
	DB	0bH
	DB	0ffH
	DB	0bH
	DB	0bH
	DB	0bH
	DB	0ffH
	DB	0bH
	DB	0bH
	DB	0bH
	DB	0ffH
	DB	0bH
	DB	0bH
	DB	0bH
	DB	0ffH
	DB	0bH
	DB	0bH
	DB	0bH
	DB	0ffH
	DB	0bH
	DB	0bH
	DB	0bH
	DB	0ffH
	DB	0bH
	DB	0bH
	DB	0bH
	DB	0ffH
	DB	0bH
	DB	0bH
	DB	0bH
	DB	0ffH
	DB	0bH
	DB	0bH
	DB	0bH
	DB	0ffH
	DB	0bH
	DB	0bH
	DB	0bH
	DB	0ffH
	DB	0bH
	DB	0bH
	DB	0bH
	DB	0ffH
	DB	0bH
	DB	0bH
	DB	0bH
	DB	0ffH
	DB	0bH
	DB	0bH
	DB	0bH
	DB	0ffH
	DB	0bH
	DB	0bH
	DB	0bH
	DB	0ffH
	DB	0bH
	DB	0bH
	DB	0bH
	DB	0ffH
	DB	0bH
	DB	0bH
	DB	0bH
	DB	0ffH
	DB	0bH
	DB	0bH
	DB	0bH
	DB	0ffH
	DB	0bH
	DB	0bH
	DB	0bH
	DB	0ffH
	DB	0bH
	DB	0bH
	DB	0bH
	DB	0ffH
	DB	0bH
	DB	0bH
	DB	0bH
	DB	0ffH
	DB	0bH
	DB	0bH
	DB	0bH
	DB	0ffH
	DB	0bH
	DB	0bH
	DB	0bH
	DB	0ffH
	DB	0bH
	DB	0bH
	DB	0bH
	DB	0ffH
	DB	0bH
	DB	0bH
	DB	0bH
	DB	0ffH
	DB	0bH
	DB	0bH
	DB	0bH
	DB	0ffH
	DB	0bH
	DB	0bH
	DB	0bH
	DB	0ffH
	DB	0bH
	DB	0bH
	DB	0bH
	DB	0ffH
	DB	0bH
	DB	0bH
	DB	0bH
	DB	0ffH
	DB	0bH
	DB	0bH
	DB	0bH
	DB	0ffH
	DB	0bH
	DB	0bH
	DB	0bH
	DB	0ffH
	DB	0bH
	DB	0bH
	DB	0bH
	DB	0ffH
	DB	0bH
	DB	0bH
	DB	0bH
	DB	0ffH
	DB	0bH
	DB	0bH
	DB	0bH
	DB	0ffH
	DB	01aH
	DB	01aH
	DB	01aH
	DB	0ffH
	DB	047H
	DB	047H
	DB	047H
	DB	0ffH
	DB	056H
	DB	056H
	DB	056H
	DB	0ffH
	DB	056H
	DB	056H
	DB	056H
	DB	0fdH
	DB	056H
	DB	056H
	DB	056H
	DB	089H
	DB	055H
	DB	055H
	DB	055H
	DB	06H
	DB	00H
	DB	00H
	DB	00H
	DB	00H
	DB	00H
	DB	00H
	DB	00H
	DB	00H
	DB	00H
	DB	00H
	DB	00H
	DB	00H
	DB	00H
	DB	00H
	DB	00H
	DB	00H
	DB	00H
	DB	00H
	DB	00H
	DB	00H
	DB	00H
	DB	00H
	DB	00H
	DB	00H
	DB	00H
	DB	00H
	DB	00H
	DB	00H
	DB	00H
	DB	00H
	DB	00H
	DB	00H
	DB	00H
	DB	00H
	DB	00H
	DB	00H
	DB	00H
	DB	00H
	DB	00H
	DB	00H
	DB	00H
	DB	00H
	DB	00H
	DB	00H
	DB	00H
	DB	00H
	DB	00H
	DB	00H
	DB	00H
	DB	00H
	DB	00H
	DB	00H
	DB	00H
	DB	00H
	DB	00H
	DB	00H
	DB	00H
	DB	00H
	DB	00H
	DB	00H
	DB	00H
	DB	00H
	DB	00H
	DB	00H
	DB	00H
	DB	00H
	DB	00H
	DB	00H
	DB	00H
	DB	00H
	DB	00H
	DB	00H
	DB	00H
	DB	00H
	DB	00H
	DB	00H
	DB	00H
	DB	00H
	DB	00H
	DB	00H
	DB	00H
	DB	00H
	DB	00H
	DB	00H
	DB	00H
	DB	00H
	DB	00H
	DB	00H
	DB	00H
	DB	00H
	DB	00H
	DB	00H
	DB	00H
	DB	00H
	DB	00H
	DB	00H
	DB	00H
	DB	00H
	DB	00H
	DB	00H
	DB	00H
	DB	00H
	DB	00H
	DB	00H
	DB	00H
	DB	00H
	DB	00H
	DB	00H
	DB	00H
	DB	00H
	DB	00H
	DB	00H
	DB	00H
	DB	00H
	DB	00H
	DB	00H
	DB	00H
	DB	00H
	DB	00H
	DB	00H
	DB	00H
	DB	00H
	DB	00H
	DB	00H
	DB	00H
	DB	00H
	DB	00H
	DB	00H
	DB	00H
	DB	00H
	DB	00H
	DB	00H
	DB	00H
	DB	00H
	DB	00H
	DB	00H
	DB	00H
	DB	00H
	DB	00H
	DB	00H
	DB	00H
	DB	00H
	DB	00H
	DB	00H
	DB	00H
	DB	00H
	DB	00H
	DB	00H
	DB	00H
	DB	00H
	DB	00H
	DB	00H
	DB	00H
	DB	00H
	DB	00H
	DB	00H
	DB	00H
	DB	00H
	DB	00H
	DB	00H
	DB	00H
	DB	00H
	DB	00H
	DB	00H
	DB	00H
	DB	00H
	DB	00H
	DB	00H
	DB	00H
	DB	00H
	DB	00H
	DB	00H
	DB	00H
	DB	00H
	DB	00H
	DB	00H
	DB	00H
	DB	00H
	DB	00H
	DB	00H
	DB	00H
	DB	00H
	DB	00H
	DB	00H
	DB	00H
	DB	00H
	DB	00H
	DB	00H
	DB	00H
	DB	00H
	DB	00H
	DB	00H
	DB	00H
	DB	00H
	DB	00H
	DB	00H
	DB	00H
	DB	00H
	DB	00H
	DB	00H
	DB	00H
	DB	00H
	DB	00H
	DB	00H
	DB	00H
	DB	00H
	DB	00H
	DB	00H
	DB	00H
	DB	00H
	DB	00H
	DB	00H
	DB	00H
	DB	00H
	DB	00H
	DB	00H
	DB	00H
	DB	00H
	DB	00H
	DB	00H
	DB	00H
	DB	00H
	DB	00H
	DB	00H
	DB	00H
	DB	00H
	DB	00H
	DB	00H
	DB	00H
	DB	00H
	DB	00H
	DB	00H
	DB	00H
	DB	00H
	DB	00H
	DB	00H
	DB	00H
	DB	00H
	DB	00H
	DB	00H
	DB	00H
	DB	00H
	DB	00H
	DB	00H
	DB	00H
	DB	00H
	DB	00H
	DB	00H
	DB	00H
	DB	00H
	DB	00H
	DB	00H
	DB	00H
	DB	00H
	DB	00H
	DB	00H
	DB	00H
	DB	00H
	DB	00H
	DB	00H
	DB	00H
	DB	00H
	DB	00H
	DB	00H
	DB	00H
	DB	00H
	DB	00H
	DB	00H
	DB	00H
	DB	00H
	DB	00H
	DB	00H
	DB	00H
	DB	00H
	DB	00H
	DB	00H
	DB	00H
	DB	00H
	DB	00H
	DB	00H
	DB	00H
	DB	00H
	DB	00H
	DB	00H
	DB	00H
	DB	00H
	DB	00H
	DB	00H
	DB	00H
	DB	00H
	DB	00H
	DB	00H
	DB	00H
	DB	00H
	DB	00H
	DB	00H
	DB	00H
	DB	00H
	DB	00H
	DB	00H
	DB	055H
	DB	055H
	DB	055H
	DB	02aH
	DB	056H
	DB	056H
	DB	056H
	DB	0cfH
	DB	056H
	DB	056H
	DB	056H
	DB	0ffH
	DB	054H
	DB	054H
	DB	054H
	DB	0ffH
	DB	030H
	DB	030H
	DB	030H
	DB	0ffH
	DB	0dH
	DB	0dH
	DB	0dH
	DB	0ffH
	DB	0bH
	DB	0bH
	DB	0bH
	DB	0ffH
	DB	0bH
	DB	0bH
	DB	0bH
	DB	0ffH
	DB	0bH
	DB	0bH
	DB	0bH
	DB	0ffH
	DB	0bH
	DB	0bH
	DB	0bH
	DB	0ffH
	DB	0bH
	DB	0bH
	DB	0bH
	DB	0ffH
	DB	0bH
	DB	0bH
	DB	0bH
	DB	0ffH
	DB	0bH
	DB	0bH
	DB	0bH
	DB	0ffH
	DB	0bH
	DB	0bH
	DB	0bH
	DB	0ffH
	DB	0bH
	DB	0bH
	DB	0bH
	DB	0ffH
	DB	0bH
	DB	0bH
	DB	0bH
	DB	0ffH
	DB	0bH
	DB	0bH
	DB	0bH
	DB	0ffH
	DB	0bH
	DB	0bH
	DB	0bH
	DB	0ffH
	DB	0bH
	DB	0bH
	DB	0bH
	DB	0ffH
	DB	0bH
	DB	0bH
	DB	0bH
	DB	0ffH
	DB	0bH
	DB	0bH
	DB	0bH
	DB	0ffH
	DB	0bH
	DB	0bH
	DB	0bH
	DB	0ffH
	DB	0bH
	DB	0bH
	DB	0bH
	DB	0ffH
	DB	0bH
	DB	0bH
	DB	0bH
	DB	0ffH
	DB	0bH
	DB	0bH
	DB	0bH
	DB	0ffH
	DB	0bH
	DB	0bH
	DB	0bH
	DB	0ffH
	DB	0bH
	DB	0bH
	DB	0bH
	DB	0ffH
	DB	0bH
	DB	0bH
	DB	0bH
	DB	0ffH
	DB	0bH
	DB	0bH
	DB	0bH
	DB	0ffH
	DB	0bH
	DB	0bH
	DB	0bH
	DB	0ffH
	DB	0bH
	DB	0bH
	DB	0bH
	DB	0ffH
	DB	0bH
	DB	0bH
	DB	0bH
	DB	0ffH
	DB	0bH
	DB	0bH
	DB	0bH
	DB	0ffH
	DB	0bH
	DB	0bH
	DB	0bH
	DB	0ffH
	DB	0bH
	DB	0bH
	DB	0bH
	DB	0ffH
	DB	0bH
	DB	0bH
	DB	0bH
	DB	0ffH
	DB	0bH
	DB	0bH
	DB	0bH
	DB	0ffH
	DB	0bH
	DB	0bH
	DB	0bH
	DB	0ffH
	DB	0bH
	DB	0bH
	DB	0bH
	DB	0ffH
	DB	0bH
	DB	0bH
	DB	0bH
	DB	0ffH
	DB	0bH
	DB	0bH
	DB	0bH
	DB	0ffH
	DB	0bH
	DB	0bH
	DB	0bH
	DB	0ffH
	DB	0bH
	DB	0bH
	DB	0bH
	DB	0ffH
	DB	015H
	DB	015H
	DB	015H
	DB	0ffH
	DB	01eH
	DB	01eH
	DB	01eH
	DB	0ffH
	DB	028H
	DB	028H
	DB	028H
	DB	0ffH
	DB	031H
	DB	031H
	DB	031H
	DB	0ffH
	DB	03aH
	DB	03aH
	DB	03aH
	DB	0ffH
	DB	040H
	DB	040H
	DB	040H
	DB	0ffH
	DB	045H
	DB	045H
	DB	045H
	DB	0ffH
	DB	04cH
	DB	04cH
	DB	04cH
	DB	0ffH
	DB	051H
	DB	051H
	DB	051H
	DB	0ffH
	DB	051H
	DB	051H
	DB	051H
	DB	0ffH
	DB	052H
	DB	052H
	DB	052H
	DB	0ffH
	DB	056H
	DB	056H
	DB	056H
	DB	0ffH
	DB	056H
	DB	056H
	DB	056H
	DB	0ffH
	DB	052H
	DB	052H
	DB	052H
	DB	0ffH
	DB	051H
	DB	051H
	DB	051H
	DB	0ffH
	DB	051H
	DB	051H
	DB	051H
	DB	0ffH
	DB	04cH
	DB	04cH
	DB	04cH
	DB	0ffH
	DB	045H
	DB	045H
	DB	045H
	DB	0ffH
	DB	040H
	DB	040H
	DB	040H
	DB	0ffH
	DB	03aH
	DB	03aH
	DB	03aH
	DB	0ffH
	DB	031H
	DB	031H
	DB	031H
	DB	0ffH
	DB	028H
	DB	028H
	DB	028H
	DB	0ffH
	DB	01eH
	DB	01eH
	DB	01eH
	DB	0ffH
	DB	015H
	DB	015H
	DB	015H
	DB	0ffH
	DB	0bH
	DB	0bH
	DB	0bH
	DB	0ffH
	DB	0bH
	DB	0bH
	DB	0bH
	DB	0ffH
	DB	0bH
	DB	0bH
	DB	0bH
	DB	0ffH
	DB	0bH
	DB	0bH
	DB	0bH
	DB	0ffH
	DB	0bH
	DB	0bH
	DB	0bH
	DB	0ffH
	DB	0bH
	DB	0bH
	DB	0bH
	DB	0ffH
	DB	0bH
	DB	0bH
	DB	0bH
	DB	0ffH
	DB	0bH
	DB	0bH
	DB	0bH
	DB	0ffH
	DB	0bH
	DB	0bH
	DB	0bH
	DB	0ffH
	DB	0bH
	DB	0bH
	DB	0bH
	DB	0ffH
	DB	0bH
	DB	0bH
	DB	0bH
	DB	0ffH
	DB	0bH
	DB	0bH
	DB	0bH
	DB	0ffH
	DB	0bH
	DB	0bH
	DB	0bH
	DB	0ffH
	DB	0bH
	DB	0bH
	DB	0bH
	DB	0ffH
	DB	0bH
	DB	0bH
	DB	0bH
	DB	0ffH
	DB	0bH
	DB	0bH
	DB	0bH
	DB	0ffH
	DB	0bH
	DB	0bH
	DB	0bH
	DB	0ffH
	DB	0bH
	DB	0bH
	DB	0bH
	DB	0ffH
	DB	0bH
	DB	0bH
	DB	0bH
	DB	0ffH
	DB	0bH
	DB	0bH
	DB	0bH
	DB	0ffH
	DB	0bH
	DB	0bH
	DB	0bH
	DB	0ffH
	DB	0bH
	DB	0bH
	DB	0bH
	DB	0ffH
	DB	0bH
	DB	0bH
	DB	0bH
	DB	0ffH
	DB	0bH
	DB	0bH
	DB	0bH
	DB	0ffH
	DB	0bH
	DB	0bH
	DB	0bH
	DB	0ffH
	DB	0bH
	DB	0bH
	DB	0bH
	DB	0ffH
	DB	0bH
	DB	0bH
	DB	0bH
	DB	0ffH
	DB	0bH
	DB	0bH
	DB	0bH
	DB	0ffH
	DB	0bH
	DB	0bH
	DB	0bH
	DB	0ffH
	DB	0bH
	DB	0bH
	DB	0bH
	DB	0ffH
	DB	0bH
	DB	0bH
	DB	0bH
	DB	0ffH
	DB	0bH
	DB	0bH
	DB	0bH
	DB	0ffH
	DB	0bH
	DB	0bH
	DB	0bH
	DB	0ffH
	DB	0bH
	DB	0bH
	DB	0bH
	DB	0ffH
	DB	0bH
	DB	0bH
	DB	0bH
	DB	0ffH
	DB	0bH
	DB	0bH
	DB	0bH
	DB	0ffH
	DB	0bH
	DB	0bH
	DB	0bH
	DB	0ffH
	DB	0dH
	DB	0dH
	DB	0dH
	DB	0ffH
	DB	030H
	DB	030H
	DB	030H
	DB	0ffH
	DB	055H
	DB	055H
	DB	055H
	DB	0ffH
	DB	056H
	DB	056H
	DB	056H
	DB	0ffH
	DB	056H
	DB	056H
	DB	056H
	DB	0cdH
	DB	053H
	DB	053H
	DB	053H
	DB	028H
	DB	00H
	DB	00H
	DB	00H
	DB	00H
	DB	00H
	DB	00H
	DB	00H
	DB	00H
	DB	00H
	DB	00H
	DB	00H
	DB	00H
	DB	00H
	DB	00H
	DB	00H
	DB	00H
	DB	00H
	DB	00H
	DB	00H
	DB	00H
	DB	00H
	DB	00H
	DB	00H
	DB	00H
	DB	00H
	DB	00H
	DB	00H
	DB	00H
	DB	00H
	DB	00H
	DB	00H
	DB	00H
	DB	00H
	DB	00H
	DB	00H
	DB	00H
	DB	00H
	DB	00H
	DB	00H
	DB	00H
	DB	00H
	DB	00H
	DB	00H
	DB	00H
	DB	00H
	DB	00H
	DB	00H
	DB	00H
	DB	00H
	DB	00H
	DB	00H
	DB	00H
	DB	00H
	DB	00H
	DB	00H
	DB	00H
	DB	00H
	DB	00H
	DB	00H
	DB	00H
	DB	00H
	DB	00H
	DB	00H
	DB	00H
	DB	00H
	DB	00H
	DB	00H
	DB	00H
	DB	00H
	DB	00H
	DB	00H
	DB	00H
	DB	00H
	DB	00H
	DB	00H
	DB	00H
	DB	00H
	DB	00H
	DB	00H
	DB	00H
	DB	00H
	DB	00H
	DB	00H
	DB	00H
	DB	00H
	DB	00H
	DB	00H
	DB	00H
	DB	00H
	DB	00H
	DB	00H
	DB	00H
	DB	00H
	DB	00H
	DB	00H
	DB	00H
	DB	00H
	DB	00H
	DB	00H
	DB	00H
	DB	00H
	DB	00H
	DB	00H
	DB	00H
	DB	00H
	DB	00H
	DB	00H
	DB	00H
	DB	00H
	DB	00H
	DB	00H
	DB	00H
	DB	00H
	DB	00H
	DB	00H
	DB	00H
	DB	00H
	DB	00H
	DB	00H
	DB	00H
	DB	00H
	DB	00H
	DB	00H
	DB	00H
	DB	00H
	DB	00H
	DB	00H
	DB	00H
	DB	00H
	DB	00H
	DB	00H
	DB	00H
	DB	00H
	DB	00H
	DB	00H
	DB	00H
	DB	00H
	DB	00H
	DB	00H
	DB	00H
	DB	00H
	DB	00H
	DB	00H
	DB	00H
	DB	00H
	DB	00H
	DB	00H
	DB	00H
	DB	00H
	DB	00H
	DB	00H
	DB	00H
	DB	00H
	DB	00H
	DB	00H
	DB	00H
	DB	00H
	DB	00H
	DB	00H
	DB	00H
	DB	00H
	DB	00H
	DB	00H
	DB	00H
	DB	00H
	DB	00H
	DB	00H
	DB	00H
	DB	00H
	DB	00H
	DB	00H
	DB	00H
	DB	00H
	DB	00H
	DB	00H
	DB	00H
	DB	00H
	DB	00H
	DB	00H
	DB	00H
	DB	00H
	DB	00H
	DB	00H
	DB	00H
	DB	00H
	DB	00H
	DB	00H
	DB	00H
	DB	00H
	DB	00H
	DB	00H
	DB	00H
	DB	00H
	DB	00H
	DB	00H
	DB	00H
	DB	00H
	DB	00H
	DB	00H
	DB	00H
	DB	00H
	DB	00H
	DB	00H
	DB	00H
	DB	00H
	DB	00H
	DB	00H
	DB	00H
	DB	00H
	DB	00H
	DB	00H
	DB	00H
	DB	00H
	DB	00H
	DB	00H
	DB	00H
	DB	00H
	DB	00H
	DB	00H
	DB	00H
	DB	00H
	DB	00H
	DB	00H
	DB	00H
	DB	00H
	DB	00H
	DB	00H
	DB	00H
	DB	00H
	DB	00H
	DB	00H
	DB	00H
	DB	00H
	DB	00H
	DB	00H
	DB	00H
	DB	00H
	DB	00H
	DB	00H
	DB	00H
	DB	00H
	DB	00H
	DB	00H
	DB	00H
	DB	00H
	DB	00H
	DB	00H
	DB	00H
	DB	00H
	DB	00H
	DB	00H
	DB	00H
	DB	00H
	DB	00H
	DB	00H
	DB	00H
	DB	00H
	DB	00H
	DB	00H
	DB	00H
	DB	00H
	DB	00H
	DB	00H
	DB	00H
	DB	00H
	DB	00H
	DB	00H
	DB	00H
	DB	00H
	DB	00H
	DB	00H
	DB	00H
	DB	00H
	DB	00H
	DB	00H
	DB	00H
	DB	00H
	DB	00H
	DB	00H
	DB	00H
	DB	00H
	DB	00H
	DB	00H
	DB	00H
	DB	00H
	DB	00H
	DB	00H
	DB	00H
	DB	00H
	DB	00H
	DB	00H
	DB	00H
	DB	056H
	DB	056H
	DB	056H
	DB	062H
	DB	056H
	DB	056H
	DB	056H
	DB	0f6H
	DB	056H
	DB	056H
	DB	056H
	DB	0ffH
	DB	04cH
	DB	04cH
	DB	04cH
	DB	0ffH
	DB	01bH
	DB	01bH
	DB	01bH
	DB	0ffH
	DB	0bH
	DB	0bH
	DB	0bH
	DB	0ffH
	DB	0bH
	DB	0bH
	DB	0bH
	DB	0ffH
	DB	0bH
	DB	0bH
	DB	0bH
	DB	0ffH
	DB	0bH
	DB	0bH
	DB	0bH
	DB	0ffH
	DB	0bH
	DB	0bH
	DB	0bH
	DB	0ffH
	DB	0bH
	DB	0bH
	DB	0bH
	DB	0ffH
	DB	0bH
	DB	0bH
	DB	0bH
	DB	0ffH
	DB	0bH
	DB	0bH
	DB	0bH
	DB	0ffH
	DB	0bH
	DB	0bH
	DB	0bH
	DB	0ffH
	DB	0bH
	DB	0bH
	DB	0bH
	DB	0ffH
	DB	0bH
	DB	0bH
	DB	0bH
	DB	0ffH
	DB	0bH
	DB	0bH
	DB	0bH
	DB	0ffH
	DB	0bH
	DB	0bH
	DB	0bH
	DB	0ffH
	DB	0bH
	DB	0bH
	DB	0bH
	DB	0ffH
	DB	0bH
	DB	0bH
	DB	0bH
	DB	0ffH
	DB	0bH
	DB	0bH
	DB	0bH
	DB	0ffH
	DB	0bH
	DB	0bH
	DB	0bH
	DB	0ffH
	DB	0bH
	DB	0bH
	DB	0bH
	DB	0ffH
	DB	0bH
	DB	0bH
	DB	0bH
	DB	0ffH
	DB	0bH
	DB	0bH
	DB	0bH
	DB	0ffH
	DB	0bH
	DB	0bH
	DB	0bH
	DB	0ffH
	DB	0bH
	DB	0bH
	DB	0bH
	DB	0ffH
	DB	0bH
	DB	0bH
	DB	0bH
	DB	0ffH
	DB	0bH
	DB	0bH
	DB	0bH
	DB	0ffH
	DB	0bH
	DB	0bH
	DB	0bH
	DB	0ffH
	DB	0bH
	DB	0bH
	DB	0bH
	DB	0ffH
	DB	0bH
	DB	0bH
	DB	0bH
	DB	0ffH
	DB	0bH
	DB	0bH
	DB	0bH
	DB	0ffH
	DB	0bH
	DB	0bH
	DB	0bH
	DB	0ffH
	DB	0bH
	DB	0bH
	DB	0bH
	DB	0ffH
	DB	0bH
	DB	0bH
	DB	0bH
	DB	0ffH
	DB	0bH
	DB	0bH
	DB	0bH
	DB	0ffH
	DB	0bH
	DB	0bH
	DB	0bH
	DB	0ffH
	DB	0bH
	DB	0bH
	DB	0bH
	DB	0ffH
	DB	017H
	DB	017H
	DB	017H
	DB	0ffH
	DB	028H
	DB	028H
	DB	028H
	DB	0ffH
	DB	037H
	DB	037H
	DB	037H
	DB	0ffH
	DB	044H
	DB	044H
	DB	044H
	DB	0ffH
	DB	052H
	DB	052H
	DB	052H
	DB	0ffH
	DB	056H
	DB	056H
	DB	056H
	DB	0ffH
	DB	056H
	DB	056H
	DB	056H
	DB	0ffH
	DB	056H
	DB	056H
	DB	056H
	DB	0ffH
	DB	056H
	DB	056H
	DB	056H
	DB	0ffH
	DB	056H
	DB	056H
	DB	056H
	DB	0ffH
	DB	056H
	DB	056H
	DB	056H
	DB	0ffH
	DB	056H
	DB	056H
	DB	056H
	DB	0ffH
	DB	056H
	DB	056H
	DB	056H
	DB	0ffH
	DB	056H
	DB	056H
	DB	056H
	DB	0ffH
	DB	056H
	DB	056H
	DB	056H
	DB	0ffH
	DB	056H
	DB	056H
	DB	056H
	DB	0ffH
	DB	056H
	DB	056H
	DB	056H
	DB	0ffH
	DB	056H
	DB	056H
	DB	056H
	DB	0ffH
	DB	056H
	DB	056H
	DB	056H
	DB	0ffH
	DB	056H
	DB	056H
	DB	056H
	DB	0ffH
	DB	056H
	DB	056H
	DB	056H
	DB	0ffH
	DB	056H
	DB	056H
	DB	056H
	DB	0ffH
	DB	056H
	DB	056H
	DB	056H
	DB	0ffH
	DB	056H
	DB	056H
	DB	056H
	DB	0ffH
	DB	056H
	DB	056H
	DB	056H
	DB	0ffH
	DB	056H
	DB	056H
	DB	056H
	DB	0ffH
	DB	056H
	DB	056H
	DB	056H
	DB	0ffH
	DB	056H
	DB	056H
	DB	056H
	DB	0ffH
	DB	056H
	DB	056H
	DB	056H
	DB	0ffH
	DB	052H
	DB	052H
	DB	052H
	DB	0ffH
	DB	045H
	DB	045H
	DB	045H
	DB	0ffH
	DB	037H
	DB	037H
	DB	037H
	DB	0ffH
	DB	028H
	DB	028H
	DB	028H
	DB	0ffH
	DB	017H
	DB	017H
	DB	017H
	DB	0ffH
	DB	0bH
	DB	0bH
	DB	0bH
	DB	0ffH
	DB	0bH
	DB	0bH
	DB	0bH
	DB	0ffH
	DB	0bH
	DB	0bH
	DB	0bH
	DB	0ffH
	DB	0bH
	DB	0bH
	DB	0bH
	DB	0ffH
	DB	0bH
	DB	0bH
	DB	0bH
	DB	0ffH
	DB	0bH
	DB	0bH
	DB	0bH
	DB	0ffH
	DB	0bH
	DB	0bH
	DB	0bH
	DB	0ffH
	DB	0bH
	DB	0bH
	DB	0bH
	DB	0ffH
	DB	0bH
	DB	0bH
	DB	0bH
	DB	0ffH
	DB	0bH
	DB	0bH
	DB	0bH
	DB	0ffH
	DB	0bH
	DB	0bH
	DB	0bH
	DB	0ffH
	DB	0bH
	DB	0bH
	DB	0bH
	DB	0ffH
	DB	0bH
	DB	0bH
	DB	0bH
	DB	0ffH
	DB	0bH
	DB	0bH
	DB	0bH
	DB	0ffH
	DB	0bH
	DB	0bH
	DB	0bH
	DB	0ffH
	DB	0bH
	DB	0bH
	DB	0bH
	DB	0ffH
	DB	0bH
	DB	0bH
	DB	0bH
	DB	0ffH
	DB	0bH
	DB	0bH
	DB	0bH
	DB	0ffH
	DB	0bH
	DB	0bH
	DB	0bH
	DB	0ffH
	DB	0bH
	DB	0bH
	DB	0bH
	DB	0ffH
	DB	0bH
	DB	0bH
	DB	0bH
	DB	0ffH
	DB	0bH
	DB	0bH
	DB	0bH
	DB	0ffH
	DB	0bH
	DB	0bH
	DB	0bH
	DB	0ffH
	DB	0bH
	DB	0bH
	DB	0bH
	DB	0ffH
	DB	0bH
	DB	0bH
	DB	0bH
	DB	0ffH
	DB	0bH
	DB	0bH
	DB	0bH
	DB	0ffH
	DB	0bH
	DB	0bH
	DB	0bH
	DB	0ffH
	DB	0bH
	DB	0bH
	DB	0bH
	DB	0ffH
	DB	0bH
	DB	0bH
	DB	0bH
	DB	0ffH
	DB	0bH
	DB	0bH
	DB	0bH
	DB	0ffH
	DB	0bH
	DB	0bH
	DB	0bH
	DB	0ffH
	DB	0bH
	DB	0bH
	DB	0bH
	DB	0ffH
	DB	0bH
	DB	0bH
	DB	0bH
	DB	0ffH
	DB	0bH
	DB	0bH
	DB	0bH
	DB	0ffH
	DB	01cH
	DB	01cH
	DB	01cH
	DB	0ffH
	DB	04cH
	DB	04cH
	DB	04cH
	DB	0ffH
	DB	056H
	DB	056H
	DB	056H
	DB	0ffH
	DB	056H
	DB	056H
	DB	056H
	DB	0f5H
	DB	057H
	DB	057H
	DB	057H
	DB	05eH
	DB	00H
	DB	00H
	DB	00H
	DB	00H
	DB	00H
	DB	00H
	DB	00H
	DB	00H
	DB	00H
	DB	00H
	DB	00H
	DB	00H
	DB	00H
	DB	00H
	DB	00H
	DB	00H
	DB	00H
	DB	00H
	DB	00H
	DB	00H
	DB	00H
	DB	00H
	DB	00H
	DB	00H
	DB	00H
	DB	00H
	DB	00H
	DB	00H
	DB	00H
	DB	00H
	DB	00H
	DB	00H
	DB	00H
	DB	00H
	DB	00H
	DB	00H
	DB	00H
	DB	00H
	DB	00H
	DB	00H
	DB	00H
	DB	00H
	DB	00H
	DB	00H
	DB	00H
	DB	00H
	DB	00H
	DB	00H
	DB	00H
	DB	00H
	DB	00H
	DB	00H
	DB	00H
	DB	00H
	DB	00H
	DB	00H
	DB	00H
	DB	00H
	DB	00H
	DB	00H
	DB	00H
	DB	00H
	DB	00H
	DB	00H
	DB	00H
	DB	00H
	DB	00H
	DB	00H
	DB	00H
	DB	00H
	DB	00H
	DB	00H
	DB	00H
	DB	00H
	DB	00H
	DB	00H
	DB	00H
	DB	00H
	DB	00H
	DB	00H
	DB	00H
	DB	00H
	DB	00H
	DB	00H
	DB	00H
	DB	00H
	DB	00H
	DB	00H
	DB	00H
	DB	00H
	DB	00H
	DB	00H
	DB	00H
	DB	00H
	DB	00H
	DB	00H
	DB	00H
	DB	00H
	DB	00H
	DB	00H
	DB	00H
	DB	00H
	DB	00H
	DB	00H
	DB	00H
	DB	00H
	DB	00H
	DB	00H
	DB	00H
	DB	00H
	DB	00H
	DB	00H
	DB	00H
	DB	00H
	DB	00H
	DB	00H
	DB	00H
	DB	00H
	DB	00H
	DB	00H
	DB	00H
	DB	00H
	DB	00H
	DB	00H
	DB	00H
	DB	00H
	DB	00H
	DB	00H
	DB	00H
	DB	00H
	DB	00H
	DB	00H
	DB	00H
	DB	00H
	DB	00H
	DB	00H
	DB	00H
	DB	00H
	DB	00H
	DB	00H
	DB	00H
	DB	00H
	DB	00H
	DB	00H
	DB	00H
	DB	00H
	DB	00H
	DB	00H
	DB	00H
	DB	00H
	DB	00H
	DB	00H
	DB	00H
	DB	00H
	DB	00H
	DB	00H
	DB	00H
	DB	00H
	DB	00H
	DB	00H
	DB	00H
	DB	00H
	DB	00H
	DB	00H
	DB	00H
	DB	00H
	DB	00H
	DB	00H
	DB	00H
	DB	00H
	DB	00H
	DB	00H
	DB	00H
	DB	00H
	DB	00H
	DB	00H
	DB	00H
	DB	00H
	DB	00H
	DB	00H
	DB	00H
	DB	00H
	DB	00H
	DB	00H
	DB	00H
	DB	00H
	DB	00H
	DB	00H
	DB	00H
	DB	00H
	DB	00H
	DB	00H
	DB	00H
	DB	00H
	DB	00H
	DB	00H
	DB	00H
	DB	00H
	DB	00H
	DB	00H
	DB	00H
	DB	00H
	DB	00H
	DB	00H
	DB	00H
	DB	00H
	DB	00H
	DB	00H
	DB	00H
	DB	00H
	DB	00H
	DB	00H
	DB	00H
	DB	00H
	DB	00H
	DB	00H
	DB	00H
	DB	00H
	DB	00H
	DB	00H
	DB	00H
	DB	00H
	DB	00H
	DB	00H
	DB	00H
	DB	00H
	DB	00H
	DB	00H
	DB	00H
	DB	00H
	DB	00H
	DB	00H
	DB	00H
	DB	00H
	DB	00H
	DB	00H
	DB	00H
	DB	00H
	DB	00H
	DB	00H
	DB	00H
	DB	00H
	DB	00H
	DB	00H
	DB	00H
	DB	00H
	DB	00H
	DB	00H
	DB	00H
	DB	00H
	DB	00H
	DB	00H
	DB	00H
	DB	00H
	DB	00H
	DB	00H
	DB	00H
	DB	00H
	DB	00H
	DB	00H
	DB	00H
	DB	00H
	DB	00H
	DB	00H
	DB	00H
	DB	00H
	DB	00H
	DB	00H
	DB	00H
	DB	00H
	DB	00H
	DB	00H
	DB	00H
	DB	00H
	DB	00H
	DB	00H
	DB	00H
	DB	00H
	DB	00H
	DB	00H
	DB	049H
	DB	049H
	DB	049H
	DB	07H
	DB	056H
	DB	056H
	DB	056H
	DB	098H
	DB	056H
	DB	056H
	DB	056H
	DB	0ffH
	DB	056H
	DB	056H
	DB	056H
	DB	0ffH
	DB	039H
	DB	039H
	DB	039H
	DB	0ffH
	DB	0eH
	DB	0eH
	DB	0eH
	DB	0ffH
	DB	0bH
	DB	0bH
	DB	0bH
	DB	0ffH
	DB	0bH
	DB	0bH
	DB	0bH
	DB	0ffH
	DB	0bH
	DB	0bH
	DB	0bH
	DB	0ffH
	DB	0bH
	DB	0bH
	DB	0bH
	DB	0ffH
	DB	0bH
	DB	0bH
	DB	0bH
	DB	0ffH
	DB	0bH
	DB	0bH
	DB	0bH
	DB	0ffH
	DB	0bH
	DB	0bH
	DB	0bH
	DB	0ffH
	DB	0bH
	DB	0bH
	DB	0bH
	DB	0ffH
	DB	0bH
	DB	0bH
	DB	0bH
	DB	0ffH
	DB	0bH
	DB	0bH
	DB	0bH
	DB	0ffH
	DB	0bH
	DB	0bH
	DB	0bH
	DB	0ffH
	DB	0bH
	DB	0bH
	DB	0bH
	DB	0ffH
	DB	0bH
	DB	0bH
	DB	0bH
	DB	0ffH
	DB	0bH
	DB	0bH
	DB	0bH
	DB	0ffH
	DB	0bH
	DB	0bH
	DB	0bH
	DB	0ffH
	DB	0bH
	DB	0bH
	DB	0bH
	DB	0ffH
	DB	0bH
	DB	0bH
	DB	0bH
	DB	0ffH
	DB	0bH
	DB	0bH
	DB	0bH
	DB	0ffH
	DB	0bH
	DB	0bH
	DB	0bH
	DB	0ffH
	DB	0bH
	DB	0bH
	DB	0bH
	DB	0ffH
	DB	0bH
	DB	0bH
	DB	0bH
	DB	0ffH
	DB	0bH
	DB	0bH
	DB	0bH
	DB	0ffH
	DB	0bH
	DB	0bH
	DB	0bH
	DB	0ffH
	DB	0bH
	DB	0bH
	DB	0bH
	DB	0ffH
	DB	0bH
	DB	0bH
	DB	0bH
	DB	0ffH
	DB	0bH
	DB	0bH
	DB	0bH
	DB	0ffH
	DB	0bH
	DB	0bH
	DB	0bH
	DB	0ffH
	DB	0bH
	DB	0bH
	DB	0bH
	DB	0ffH
	DB	0bH
	DB	0bH
	DB	0bH
	DB	0ffH
	DB	0bH
	DB	0bH
	DB	0bH
	DB	0ffH
	DB	0bH
	DB	0bH
	DB	0bH
	DB	0ffH
	DB	015H
	DB	015H
	DB	015H
	DB	0ffH
	DB	02bH
	DB	02bH
	DB	02bH
	DB	0ffH
	DB	03fH
	DB	03fH
	DB	03fH
	DB	0ffH
	DB	051H
	DB	051H
	DB	051H
	DB	0ffH
	DB	056H
	DB	056H
	DB	056H
	DB	0ffH
	DB	056H
	DB	056H
	DB	056H
	DB	0ffH
	DB	056H
	DB	056H
	DB	056H
	DB	0ffH
	DB	056H
	DB	056H
	DB	056H
	DB	0ffH
	DB	056H
	DB	056H
	DB	056H
	DB	0ffH
	DB	056H
	DB	056H
	DB	056H
	DB	0e5H
	DB	056H
	DB	056H
	DB	056H
	DB	0c0H
	DB	056H
	DB	056H
	DB	056H
	DB	0a0H
	DB	056H
	DB	056H
	DB	056H
	DB	080H
	DB	055H
	DB	055H
	DB	055H
	DB	060H
	DB	057H
	DB	057H
	DB	057H
	DB	04cH
	DB	055H
	DB	055H
	DB	055H
	DB	039H
	DB	057H
	DB	057H
	DB	057H
	DB	026H
	DB	051H
	DB	051H
	DB	051H
	DB	013H
	DB	05aH
	DB	05aH
	DB	05aH
	DB	011H
	DB	04dH
	DB	04dH
	DB	04dH
	DB	0aH
	DB	00H
	DB	00H
	DB	00H
	DB	00H
	DB	00H
	DB	00H
	DB	00H
	DB	00H
	DB	04dH
	DB	04dH
	DB	04dH
	DB	0aH
	DB	05aH
	DB	05aH
	DB	05aH
	DB	011H
	DB	051H
	DB	051H
	DB	051H
	DB	013H
	DB	057H
	DB	057H
	DB	057H
	DB	026H
	DB	055H
	DB	055H
	DB	055H
	DB	039H
	DB	057H
	DB	057H
	DB	057H
	DB	04cH
	DB	055H
	DB	055H
	DB	055H
	DB	060H
	DB	056H
	DB	056H
	DB	056H
	DB	080H
	DB	056H
	DB	056H
	DB	056H
	DB	0a1H
	DB	056H
	DB	056H
	DB	056H
	DB	0c1H
	DB	056H
	DB	056H
	DB	056H
	DB	0e6H
	DB	056H
	DB	056H
	DB	056H
	DB	0ffH
	DB	056H
	DB	056H
	DB	056H
	DB	0ffH
	DB	056H
	DB	056H
	DB	056H
	DB	0ffH
	DB	056H
	DB	056H
	DB	056H
	DB	0ffH
	DB	056H
	DB	056H
	DB	056H
	DB	0ffH
	DB	051H
	DB	051H
	DB	051H
	DB	0ffH
	DB	03fH
	DB	03fH
	DB	03fH
	DB	0ffH
	DB	02bH
	DB	02bH
	DB	02bH
	DB	0ffH
	DB	015H
	DB	015H
	DB	015H
	DB	0ffH
	DB	0bH
	DB	0bH
	DB	0bH
	DB	0ffH
	DB	0bH
	DB	0bH
	DB	0bH
	DB	0ffH
	DB	0bH
	DB	0bH
	DB	0bH
	DB	0ffH
	DB	0bH
	DB	0bH
	DB	0bH
	DB	0ffH
	DB	0bH
	DB	0bH
	DB	0bH
	DB	0ffH
	DB	0bH
	DB	0bH
	DB	0bH
	DB	0ffH
	DB	0bH
	DB	0bH
	DB	0bH
	DB	0ffH
	DB	0bH
	DB	0bH
	DB	0bH
	DB	0ffH
	DB	0bH
	DB	0bH
	DB	0bH
	DB	0ffH
	DB	0bH
	DB	0bH
	DB	0bH
	DB	0ffH
	DB	0bH
	DB	0bH
	DB	0bH
	DB	0ffH
	DB	0bH
	DB	0bH
	DB	0bH
	DB	0ffH
	DB	0bH
	DB	0bH
	DB	0bH
	DB	0ffH
	DB	0bH
	DB	0bH
	DB	0bH
	DB	0ffH
	DB	0bH
	DB	0bH
	DB	0bH
	DB	0ffH
	DB	0bH
	DB	0bH
	DB	0bH
	DB	0ffH
	DB	0bH
	DB	0bH
	DB	0bH
	DB	0ffH
	DB	0bH
	DB	0bH
	DB	0bH
	DB	0ffH
	DB	0bH
	DB	0bH
	DB	0bH
	DB	0ffH
	DB	0bH
	DB	0bH
	DB	0bH
	DB	0ffH
	DB	0bH
	DB	0bH
	DB	0bH
	DB	0ffH
	DB	0bH
	DB	0bH
	DB	0bH
	DB	0ffH
	DB	0bH
	DB	0bH
	DB	0bH
	DB	0ffH
	DB	0bH
	DB	0bH
	DB	0bH
	DB	0ffH
	DB	0bH
	DB	0bH
	DB	0bH
	DB	0ffH
	DB	0bH
	DB	0bH
	DB	0bH
	DB	0ffH
	DB	0bH
	DB	0bH
	DB	0bH
	DB	0ffH
	DB	0bH
	DB	0bH
	DB	0bH
	DB	0ffH
	DB	0bH
	DB	0bH
	DB	0bH
	DB	0ffH
	DB	0bH
	DB	0bH
	DB	0bH
	DB	0ffH
	DB	0bH
	DB	0bH
	DB	0bH
	DB	0ffH
	DB	0eH
	DB	0eH
	DB	0eH
	DB	0ffH
	DB	03aH
	DB	03aH
	DB	03aH
	DB	0ffH
	DB	056H
	DB	056H
	DB	056H
	DB	0ffH
	DB	056H
	DB	056H
	DB	056H
	DB	0ffH
	DB	056H
	DB	056H
	DB	056H
	DB	095H
	DB	055H
	DB	055H
	DB	055H
	DB	06H
	DB	00H
	DB	00H
	DB	00H
	DB	00H
	DB	00H
	DB	00H
	DB	00H
	DB	00H
	DB	00H
	DB	00H
	DB	00H
	DB	00H
	DB	00H
	DB	00H
	DB	00H
	DB	00H
	DB	00H
	DB	00H
	DB	00H
	DB	00H
	DB	00H
	DB	00H
	DB	00H
	DB	00H
	DB	00H
	DB	00H
	DB	00H
	DB	00H
	DB	00H
	DB	00H
	DB	00H
	DB	00H
	DB	00H
	DB	00H
	DB	00H
	DB	00H
	DB	00H
	DB	00H
	DB	00H
	DB	00H
	DB	00H
	DB	00H
	DB	00H
	DB	00H
	DB	00H
	DB	00H
	DB	00H
	DB	00H
	DB	00H
	DB	00H
	DB	00H
	DB	00H
	DB	00H
	DB	00H
	DB	00H
	DB	00H
	DB	00H
	DB	00H
	DB	00H
	DB	00H
	DB	00H
	DB	00H
	DB	00H
	DB	00H
	DB	00H
	DB	00H
	DB	00H
	DB	00H
	DB	00H
	DB	00H
	DB	00H
	DB	00H
	DB	00H
	DB	00H
	DB	00H
	DB	00H
	DB	00H
	DB	00H
	DB	00H
	DB	00H
	DB	00H
	DB	00H
	DB	00H
	DB	00H
	DB	00H
	DB	00H
	DB	00H
	DB	00H
	DB	00H
	DB	00H
	DB	00H
	DB	00H
	DB	00H
	DB	00H
	DB	00H
	DB	00H
	DB	00H
	DB	00H
	DB	00H
	DB	00H
	DB	00H
	DB	00H
	DB	00H
	DB	00H
	DB	00H
	DB	00H
	DB	00H
	DB	00H
	DB	00H
	DB	00H
	DB	00H
	DB	00H
	DB	00H
	DB	00H
	DB	00H
	DB	00H
	DB	00H
	DB	00H
	DB	00H
	DB	00H
	DB	00H
	DB	00H
	DB	00H
	DB	00H
	DB	00H
	DB	00H
	DB	00H
	DB	00H
	DB	00H
	DB	00H
	DB	00H
	DB	00H
	DB	00H
	DB	00H
	DB	00H
	DB	00H
	DB	00H
	DB	00H
	DB	00H
	DB	00H
	DB	00H
	DB	00H
	DB	00H
	DB	00H
	DB	00H
	DB	00H
	DB	00H
	DB	00H
	DB	00H
	DB	00H
	DB	00H
	DB	00H
	DB	00H
	DB	00H
	DB	00H
	DB	00H
	DB	00H
	DB	00H
	DB	00H
	DB	00H
	DB	00H
	DB	00H
	DB	00H
	DB	00H
	DB	00H
	DB	00H
	DB	00H
	DB	00H
	DB	00H
	DB	00H
	DB	00H
	DB	00H
	DB	00H
	DB	00H
	DB	00H
	DB	00H
	DB	00H
	DB	00H
	DB	00H
	DB	00H
	DB	00H
	DB	00H
	DB	00H
	DB	00H
	DB	00H
	DB	00H
	DB	00H
	DB	00H
	DB	00H
	DB	00H
	DB	00H
	DB	00H
	DB	00H
	DB	00H
	DB	00H
	DB	00H
	DB	00H
	DB	00H
	DB	00H
	DB	00H
	DB	00H
	DB	00H
	DB	00H
	DB	00H
	DB	00H
	DB	00H
	DB	00H
	DB	00H
	DB	00H
	DB	00H
	DB	00H
	DB	00H
	DB	00H
	DB	00H
	DB	00H
	DB	00H
	DB	00H
	DB	00H
	DB	00H
	DB	00H
	DB	00H
	DB	00H
	DB	00H
	DB	00H
	DB	00H
	DB	00H
	DB	00H
	DB	00H
	DB	00H
	DB	00H
	DB	00H
	DB	00H
	DB	00H
	DB	00H
	DB	00H
	DB	00H
	DB	00H
	DB	00H
	DB	00H
	DB	00H
	DB	00H
	DB	00H
	DB	00H
	DB	00H
	DB	00H
	DB	00H
	DB	00H
	DB	00H
	DB	00H
	DB	00H
	DB	00H
	DB	00H
	DB	00H
	DB	00H
	DB	00H
	DB	00H
	DB	00H
	DB	00H
	DB	00H
	DB	00H
	DB	00H
	DB	00H
	DB	00H
	DB	00H
	DB	00H
	DB	00H
	DB	00H
	DB	00H
	DB	052H
	DB	052H
	DB	052H
	DB	01cH
	DB	055H
	DB	055H
	DB	055H
	DB	0c8H
	DB	056H
	DB	056H
	DB	056H
	DB	0ffH
	DB	053H
	DB	053H
	DB	053H
	DB	0ffH
	DB	027H
	DB	027H
	DB	027H
	DB	0ffH
	DB	0bH
	DB	0bH
	DB	0bH
	DB	0ffH
	DB	0bH
	DB	0bH
	DB	0bH
	DB	0ffH
	DB	0bH
	DB	0bH
	DB	0bH
	DB	0ffH
	DB	0bH
	DB	0bH
	DB	0bH
	DB	0ffH
	DB	0bH
	DB	0bH
	DB	0bH
	DB	0ffH
	DB	0bH
	DB	0bH
	DB	0bH
	DB	0ffH
	DB	0bH
	DB	0bH
	DB	0bH
	DB	0ffH
	DB	0bH
	DB	0bH
	DB	0bH
	DB	0ffH
	DB	0bH
	DB	0bH
	DB	0bH
	DB	0ffH
	DB	0bH
	DB	0bH
	DB	0bH
	DB	0ffH
	DB	0bH
	DB	0bH
	DB	0bH
	DB	0ffH
	DB	0bH
	DB	0bH
	DB	0bH
	DB	0ffH
	DB	0bH
	DB	0bH
	DB	0bH
	DB	0ffH
	DB	0bH
	DB	0bH
	DB	0bH
	DB	0ffH
	DB	0bH
	DB	0bH
	DB	0bH
	DB	0ffH
	DB	0bH
	DB	0bH
	DB	0bH
	DB	0ffH
	DB	0bH
	DB	0bH
	DB	0bH
	DB	0ffH
	DB	0bH
	DB	0bH
	DB	0bH
	DB	0ffH
	DB	0bH
	DB	0bH
	DB	0bH
	DB	0ffH
	DB	0bH
	DB	0bH
	DB	0bH
	DB	0ffH
	DB	0bH
	DB	0bH
	DB	0bH
	DB	0ffH
	DB	0bH
	DB	0bH
	DB	0bH
	DB	0ffH
	DB	0bH
	DB	0bH
	DB	0bH
	DB	0ffH
	DB	0bH
	DB	0bH
	DB	0bH
	DB	0ffH
	DB	0bH
	DB	0bH
	DB	0bH
	DB	0ffH
	DB	0bH
	DB	0bH
	DB	0bH
	DB	0ffH
	DB	0bH
	DB	0bH
	DB	0bH
	DB	0ffH
	DB	0bH
	DB	0bH
	DB	0bH
	DB	0ffH
	DB	0bH
	DB	0bH
	DB	0bH
	DB	0ffH
	DB	0bH
	DB	0bH
	DB	0bH
	DB	0ffH
	DB	01cH
	DB	01cH
	DB	01cH
	DB	0ffH
	DB	036H
	DB	036H
	DB	036H
	DB	0ffH
	DB	04cH
	DB	04cH
	DB	04cH
	DB	0ffH
	DB	056H
	DB	056H
	DB	056H
	DB	0ffH
	DB	056H
	DB	056H
	DB	056H
	DB	0ffH
	DB	056H
	DB	056H
	DB	056H
	DB	0ffH
	DB	056H
	DB	056H
	DB	056H
	DB	0ffH
	DB	056H
	DB	056H
	DB	056H
	DB	0e3H
	DB	057H
	DB	057H
	DB	057H
	DB	0a8H
	DB	056H
	DB	056H
	DB	056H
	DB	071H
	DB	058H
	DB	058H
	DB	058H
	DB	043H
	DB	059H
	DB	059H
	DB	059H
	DB	014H
	DB	00H
	DB	00H
	DB	00H
	DB	00H
	DB	00H
	DB	00H
	DB	00H
	DB	00H
	DB	00H
	DB	00H
	DB	00H
	DB	00H
	DB	00H
	DB	00H
	DB	00H
	DB	00H
	DB	00H
	DB	00H
	DB	00H
	DB	00H
	DB	00H
	DB	00H
	DB	00H
	DB	00H
	DB	00H
	DB	00H
	DB	00H
	DB	00H
	DB	00H
	DB	00H
	DB	00H
	DB	00H
	DB	00H
	DB	00H
	DB	00H
	DB	00H
	DB	00H
	DB	00H
	DB	00H
	DB	00H
	DB	00H
	DB	00H
	DB	00H
	DB	00H
	DB	00H
	DB	00H
	DB	00H
	DB	00H
	DB	00H
	DB	00H
	DB	00H
	DB	00H
	DB	00H
	DB	00H
	DB	00H
	DB	00H
	DB	00H
	DB	00H
	DB	00H
	DB	00H
	DB	00H
	DB	00H
	DB	00H
	DB	00H
	DB	00H
	DB	00H
	DB	00H
	DB	00H
	DB	00H
	DB	00H
	DB	00H
	DB	00H
	DB	00H
	DB	00H
	DB	00H
	DB	00H
	DB	00H
	DB	00H
	DB	00H
	DB	00H
	DB	00H
	DB	00H
	DB	00H
	DB	00H
	DB	00H
	DB	00H
	DB	00H
	DB	00H
	DB	00H
	DB	00H
	DB	00H
	DB	00H
	DB	00H
	DB	00H
	DB	00H
	DB	00H
	DB	055H
	DB	055H
	DB	055H
	DB	015H
	DB	058H
	DB	058H
	DB	058H
	DB	043H
	DB	055H
	DB	055H
	DB	055H
	DB	072H
	DB	056H
	DB	056H
	DB	056H
	DB	0a9H
	DB	056H
	DB	056H
	DB	056H
	DB	0e4H
	DB	056H
	DB	056H
	DB	056H
	DB	0ffH
	DB	056H
	DB	056H
	DB	056H
	DB	0ffH
	DB	056H
	DB	056H
	DB	056H
	DB	0ffH
	DB	056H
	DB	056H
	DB	056H
	DB	0ffH
	DB	04cH
	DB	04cH
	DB	04cH
	DB	0ffH
	DB	035H
	DB	035H
	DB	035H
	DB	0ffH
	DB	01cH
	DB	01cH
	DB	01cH
	DB	0ffH
	DB	0bH
	DB	0bH
	DB	0bH
	DB	0ffH
	DB	0bH
	DB	0bH
	DB	0bH
	DB	0ffH
	DB	0bH
	DB	0bH
	DB	0bH
	DB	0ffH
	DB	0bH
	DB	0bH
	DB	0bH
	DB	0ffH
	DB	0bH
	DB	0bH
	DB	0bH
	DB	0ffH
	DB	0bH
	DB	0bH
	DB	0bH
	DB	0ffH
	DB	0bH
	DB	0bH
	DB	0bH
	DB	0ffH
	DB	0bH
	DB	0bH
	DB	0bH
	DB	0ffH
	DB	0bH
	DB	0bH
	DB	0bH
	DB	0ffH
	DB	0bH
	DB	0bH
	DB	0bH
	DB	0ffH
	DB	0bH
	DB	0bH
	DB	0bH
	DB	0ffH
	DB	0bH
	DB	0bH
	DB	0bH
	DB	0ffH
	DB	0bH
	DB	0bH
	DB	0bH
	DB	0ffH
	DB	0bH
	DB	0bH
	DB	0bH
	DB	0ffH
	DB	0bH
	DB	0bH
	DB	0bH
	DB	0ffH
	DB	0bH
	DB	0bH
	DB	0bH
	DB	0ffH
	DB	0bH
	DB	0bH
	DB	0bH
	DB	0ffH
	DB	0bH
	DB	0bH
	DB	0bH
	DB	0ffH
	DB	0bH
	DB	0bH
	DB	0bH
	DB	0ffH
	DB	0bH
	DB	0bH
	DB	0bH
	DB	0ffH
	DB	0bH
	DB	0bH
	DB	0bH
	DB	0ffH
	DB	0bH
	DB	0bH
	DB	0bH
	DB	0ffH
	DB	0bH
	DB	0bH
	DB	0bH
	DB	0ffH
	DB	0bH
	DB	0bH
	DB	0bH
	DB	0ffH
	DB	0bH
	DB	0bH
	DB	0bH
	DB	0ffH
	DB	0bH
	DB	0bH
	DB	0bH
	DB	0ffH
	DB	0bH
	DB	0bH
	DB	0bH
	DB	0ffH
	DB	0bH
	DB	0bH
	DB	0bH
	DB	0ffH
	DB	0bH
	DB	0bH
	DB	0bH
	DB	0ffH
	DB	0bH
	DB	0bH
	DB	0bH
	DB	0ffH
	DB	028H
	DB	028H
	DB	028H
	DB	0ffH
	DB	053H
	DB	053H
	DB	053H
	DB	0ffH
	DB	056H
	DB	056H
	DB	056H
	DB	0ffH
	DB	056H
	DB	056H
	DB	056H
	DB	0c6H
	DB	055H
	DB	055H
	DB	055H
	DB	01bH
	DB	00H
	DB	00H
	DB	00H
	DB	00H
	DB	00H
	DB	00H
	DB	00H
	DB	00H
	DB	00H
	DB	00H
	DB	00H
	DB	00H
	DB	00H
	DB	00H
	DB	00H
	DB	00H
	DB	00H
	DB	00H
	DB	00H
	DB	00H
	DB	00H
	DB	00H
	DB	00H
	DB	00H
	DB	00H
	DB	00H
	DB	00H
	DB	00H
	DB	00H
	DB	00H
	DB	00H
	DB	00H
	DB	00H
	DB	00H
	DB	00H
	DB	00H
	DB	00H
	DB	00H
	DB	00H
	DB	00H
	DB	00H
	DB	00H
	DB	00H
	DB	00H
	DB	00H
	DB	00H
	DB	00H
	DB	00H
	DB	00H
	DB	00H
	DB	00H
	DB	00H
	DB	00H
	DB	00H
	DB	00H
	DB	00H
	DB	00H
	DB	00H
	DB	00H
	DB	00H
	DB	00H
	DB	00H
	DB	00H
	DB	00H
	DB	00H
	DB	00H
	DB	00H
	DB	00H
	DB	00H
	DB	00H
	DB	00H
	DB	00H
	DB	00H
	DB	00H
	DB	00H
	DB	00H
	DB	00H
	DB	00H
	DB	00H
	DB	00H
	DB	00H
	DB	00H
	DB	00H
	DB	00H
	DB	00H
	DB	00H
	DB	00H
	DB	00H
	DB	00H
	DB	00H
	DB	00H
	DB	00H
	DB	00H
	DB	00H
	DB	00H
	DB	00H
	DB	00H
	DB	00H
	DB	00H
	DB	00H
	DB	00H
	DB	00H
	DB	00H
	DB	00H
	DB	00H
	DB	00H
	DB	00H
	DB	00H
	DB	00H
	DB	00H
	DB	00H
	DB	00H
	DB	00H
	DB	00H
	DB	00H
	DB	00H
	DB	00H
	DB	00H
	DB	00H
	DB	00H
	DB	00H
	DB	00H
	DB	00H
	DB	00H
	DB	00H
	DB	00H
	DB	00H
	DB	00H
	DB	00H
	DB	00H
	DB	00H
	DB	00H
	DB	00H
	DB	00H
	DB	00H
	DB	00H
	DB	00H
	DB	00H
	DB	00H
	DB	00H
	DB	00H
	DB	00H
	DB	00H
	DB	00H
	DB	00H
	DB	00H
	DB	00H
	DB	00H
	DB	00H
	DB	00H
	DB	00H
	DB	00H
	DB	00H
	DB	00H
	DB	00H
	DB	00H
	DB	00H
	DB	00H
	DB	00H
	DB	00H
	DB	00H
	DB	00H
	DB	00H
	DB	00H
	DB	00H
	DB	00H
	DB	00H
	DB	00H
	DB	00H
	DB	00H
	DB	00H
	DB	00H
	DB	00H
	DB	00H
	DB	00H
	DB	00H
	DB	00H
	DB	00H
	DB	00H
	DB	00H
	DB	00H
	DB	00H
	DB	00H
	DB	00H
	DB	00H
	DB	00H
	DB	00H
	DB	00H
	DB	00H
	DB	00H
	DB	00H
	DB	00H
	DB	00H
	DB	00H
	DB	00H
	DB	00H
	DB	00H
	DB	00H
	DB	00H
	DB	00H
	DB	00H
	DB	00H
	DB	00H
	DB	00H
	DB	00H
	DB	00H
	DB	00H
	DB	00H
	DB	00H
	DB	00H
	DB	00H
	DB	00H
	DB	00H
	DB	00H
	DB	00H
	DB	00H
	DB	00H
	DB	00H
	DB	00H
	DB	00H
	DB	00H
	DB	00H
	DB	00H
	DB	00H
	DB	00H
	DB	00H
	DB	00H
	DB	00H
	DB	00H
	DB	00H
	DB	00H
	DB	00H
	DB	00H
	DB	00H
	DB	00H
	DB	00H
	DB	00H
	DB	00H
	DB	00H
	DB	00H
	DB	00H
	DB	00H
	DB	00H
	DB	00H
	DB	00H
	DB	00H
	DB	00H
	DB	00H
	DB	00H
	DB	00H
	DB	00H
	DB	00H
	DB	00H
	DB	00H
	DB	00H
	DB	00H
	DB	00H
	DB	00H
	DB	00H
	DB	00H
	DB	058H
	DB	058H
	DB	058H
	DB	034H
	DB	056H
	DB	056H
	DB	056H
	DB	0e7H
	DB	056H
	DB	056H
	DB	056H
	DB	0ffH
	DB	04cH
	DB	04cH
	DB	04cH
	DB	0ffH
	DB	01aH
	DB	01aH
	DB	01aH
	DB	0ffH
	DB	0bH
	DB	0bH
	DB	0bH
	DB	0ffH
	DB	0bH
	DB	0bH
	DB	0bH
	DB	0ffH
	DB	0bH
	DB	0bH
	DB	0bH
	DB	0ffH
	DB	0bH
	DB	0bH
	DB	0bH
	DB	0ffH
	DB	0bH
	DB	0bH
	DB	0bH
	DB	0ffH
	DB	0bH
	DB	0bH
	DB	0bH
	DB	0ffH
	DB	0bH
	DB	0bH
	DB	0bH
	DB	0ffH
	DB	0bH
	DB	0bH
	DB	0bH
	DB	0ffH
	DB	0bH
	DB	0bH
	DB	0bH
	DB	0ffH
	DB	0bH
	DB	0bH
	DB	0bH
	DB	0ffH
	DB	0bH
	DB	0bH
	DB	0bH
	DB	0ffH
	DB	0bH
	DB	0bH
	DB	0bH
	DB	0ffH
	DB	0bH
	DB	0bH
	DB	0bH
	DB	0ffH
	DB	0bH
	DB	0bH
	DB	0bH
	DB	0ffH
	DB	0bH
	DB	0bH
	DB	0bH
	DB	0ffH
	DB	0bH
	DB	0bH
	DB	0bH
	DB	0ffH
	DB	0bH
	DB	0bH
	DB	0bH
	DB	0ffH
	DB	0bH
	DB	0bH
	DB	0bH
	DB	0ffH
	DB	0bH
	DB	0bH
	DB	0bH
	DB	0ffH
	DB	0bH
	DB	0bH
	DB	0bH
	DB	0ffH
	DB	0bH
	DB	0bH
	DB	0bH
	DB	0ffH
	DB	0bH
	DB	0bH
	DB	0bH
	DB	0ffH
	DB	0bH
	DB	0bH
	DB	0bH
	DB	0ffH
	DB	0bH
	DB	0bH
	DB	0bH
	DB	0ffH
	DB	0bH
	DB	0bH
	DB	0bH
	DB	0ffH
	DB	0bH
	DB	0bH
	DB	0bH
	DB	0ffH
	DB	0bH
	DB	0bH
	DB	0bH
	DB	0ffH
	DB	0bH
	DB	0bH
	DB	0bH
	DB	0ffH
	DB	018H
	DB	018H
	DB	018H
	DB	0ffH
	DB	035H
	DB	035H
	DB	035H
	DB	0ffH
	DB	04dH
	DB	04dH
	DB	04dH
	DB	0ffH
	DB	056H
	DB	056H
	DB	056H
	DB	0ffH
	DB	056H
	DB	056H
	DB	056H
	DB	0ffH
	DB	056H
	DB	056H
	DB	056H
	DB	0ffH
	DB	056H
	DB	056H
	DB	056H
	DB	0ebH
	DB	056H
	DB	056H
	DB	056H
	DB	0a6H
	DB	057H
	DB	057H
	DB	057H
	DB	05eH
	DB	055H
	DB	055H
	DB	055H
	DB	01eH
	DB	00H
	DB	00H
	DB	00H
	DB	00H
	DB	00H
	DB	00H
	DB	00H
	DB	00H
	DB	00H
	DB	00H
	DB	00H
	DB	00H
	DB	00H
	DB	00H
	DB	00H
	DB	00H
	DB	00H
	DB	00H
	DB	00H
	DB	00H
	DB	00H
	DB	00H
	DB	00H
	DB	00H
	DB	00H
	DB	00H
	DB	00H
	DB	00H
	DB	00H
	DB	00H
	DB	00H
	DB	00H
	DB	00H
	DB	00H
	DB	00H
	DB	00H
	DB	00H
	DB	00H
	DB	00H
	DB	00H
	DB	00H
	DB	00H
	DB	00H
	DB	00H
	DB	00H
	DB	00H
	DB	00H
	DB	00H
	DB	00H
	DB	00H
	DB	00H
	DB	00H
	DB	00H
	DB	00H
	DB	00H
	DB	00H
	DB	00H
	DB	00H
	DB	00H
	DB	00H
	DB	00H
	DB	00H
	DB	00H
	DB	00H
	DB	00H
	DB	00H
	DB	00H
	DB	00H
	DB	00H
	DB	00H
	DB	00H
	DB	00H
	DB	00H
	DB	00H
	DB	00H
	DB	00H
	DB	00H
	DB	00H
	DB	00H
	DB	00H
	DB	00H
	DB	00H
	DB	00H
	DB	00H
	DB	00H
	DB	00H
	DB	00H
	DB	00H
	DB	00H
	DB	00H
	DB	00H
	DB	00H
	DB	00H
	DB	00H
	DB	00H
	DB	00H
	DB	00H
	DB	00H
	DB	00H
	DB	00H
	DB	00H
	DB	00H
	DB	00H
	DB	00H
	DB	00H
	DB	00H
	DB	00H
	DB	00H
	DB	00H
	DB	00H
	DB	00H
	DB	00H
	DB	00H
	DB	00H
	DB	00H
	DB	00H
	DB	00H
	DB	00H
	DB	00H
	DB	00H
	DB	00H
	DB	00H
	DB	00H
	DB	00H
	DB	00H
	DB	00H
	DB	00H
	DB	00H
	DB	00H
	DB	00H
	DB	00H
	DB	00H
	DB	00H
	DB	00H
	DB	00H
	DB	00H
	DB	052H
	DB	052H
	DB	052H
	DB	01fH
	DB	057H
	DB	057H
	DB	057H
	DB	05eH
	DB	056H
	DB	056H
	DB	056H
	DB	0a7H
	DB	056H
	DB	056H
	DB	056H
	DB	0ecH
	DB	056H
	DB	056H
	DB	056H
	DB	0ffH
	DB	056H
	DB	056H
	DB	056H
	DB	0ffH
	DB	056H
	DB	056H
	DB	056H
	DB	0ffH
	DB	04dH
	DB	04dH
	DB	04dH
	DB	0ffH
	DB	034H
	DB	034H
	DB	034H
	DB	0ffH
	DB	018H
	DB	018H
	DB	018H
	DB	0ffH
	DB	0bH
	DB	0bH
	DB	0bH
	DB	0ffH
	DB	0bH
	DB	0bH
	DB	0bH
	DB	0ffH
	DB	0bH
	DB	0bH
	DB	0bH
	DB	0ffH
	DB	0bH
	DB	0bH
	DB	0bH
	DB	0ffH
	DB	0bH
	DB	0bH
	DB	0bH
	DB	0ffH
	DB	0bH
	DB	0bH
	DB	0bH
	DB	0ffH
	DB	0bH
	DB	0bH
	DB	0bH
	DB	0ffH
	DB	0bH
	DB	0bH
	DB	0bH
	DB	0ffH
	DB	0bH
	DB	0bH
	DB	0bH
	DB	0ffH
	DB	0bH
	DB	0bH
	DB	0bH
	DB	0ffH
	DB	0bH
	DB	0bH
	DB	0bH
	DB	0ffH
	DB	0bH
	DB	0bH
	DB	0bH
	DB	0ffH
	DB	0bH
	DB	0bH
	DB	0bH
	DB	0ffH
	DB	0bH
	DB	0bH
	DB	0bH
	DB	0ffH
	DB	0bH
	DB	0bH
	DB	0bH
	DB	0ffH
	DB	0bH
	DB	0bH
	DB	0bH
	DB	0ffH
	DB	0bH
	DB	0bH
	DB	0bH
	DB	0ffH
	DB	0bH
	DB	0bH
	DB	0bH
	DB	0ffH
	DB	0bH
	DB	0bH
	DB	0bH
	DB	0ffH
	DB	0bH
	DB	0bH
	DB	0bH
	DB	0ffH
	DB	0bH
	DB	0bH
	DB	0bH
	DB	0ffH
	DB	0bH
	DB	0bH
	DB	0bH
	DB	0ffH
	DB	0bH
	DB	0bH
	DB	0bH
	DB	0ffH
	DB	0bH
	DB	0bH
	DB	0bH
	DB	0ffH
	DB	0bH
	DB	0bH
	DB	0bH
	DB	0ffH
	DB	0bH
	DB	0bH
	DB	0bH
	DB	0ffH
	DB	0bH
	DB	0bH
	DB	0bH
	DB	0ffH
	DB	0bH
	DB	0bH
	DB	0bH
	DB	0ffH
	DB	01aH
	DB	01aH
	DB	01aH
	DB	0ffH
	DB	04dH
	DB	04dH
	DB	04dH
	DB	0ffH
	DB	056H
	DB	056H
	DB	056H
	DB	0ffH
	DB	056H
	DB	056H
	DB	056H
	DB	0e6H
	DB	057H
	DB	057H
	DB	057H
	DB	032H
	DB	00H
	DB	00H
	DB	00H
	DB	00H
	DB	00H
	DB	00H
	DB	00H
	DB	00H
	DB	00H
	DB	00H
	DB	00H
	DB	00H
	DB	00H
	DB	00H
	DB	00H
	DB	00H
	DB	00H
	DB	00H
	DB	00H
	DB	00H
	DB	00H
	DB	00H
	DB	00H
	DB	00H
	DB	00H
	DB	00H
	DB	00H
	DB	00H
	DB	00H
	DB	00H
	DB	00H
	DB	00H
	DB	00H
	DB	00H
	DB	00H
	DB	00H
	DB	00H
	DB	00H
	DB	00H
	DB	00H
	DB	00H
	DB	00H
	DB	00H
	DB	00H
	DB	00H
	DB	00H
	DB	00H
	DB	00H
	DB	00H
	DB	00H
	DB	00H
	DB	00H
	DB	00H
	DB	00H
	DB	00H
	DB	00H
	DB	00H
	DB	00H
	DB	00H
	DB	00H
	DB	00H
	DB	00H
	DB	00H
	DB	00H
	DB	00H
	DB	00H
	DB	00H
	DB	00H
	DB	00H
	DB	00H
	DB	00H
	DB	00H
	DB	00H
	DB	00H
	DB	00H
	DB	00H
	DB	00H
	DB	00H
	DB	00H
	DB	00H
	DB	00H
	DB	00H
	DB	00H
	DB	00H
	DB	00H
	DB	00H
	DB	00H
	DB	00H
	DB	00H
	DB	00H
	DB	00H
	DB	00H
	DB	00H
	DB	00H
	DB	00H
	DB	00H
	DB	00H
	DB	00H
	DB	00H
	DB	00H
	DB	00H
	DB	00H
	DB	00H
	DB	00H
	DB	00H
	DB	00H
	DB	00H
	DB	00H
	DB	00H
	DB	00H
	DB	00H
	DB	00H
	DB	00H
	DB	00H
	DB	00H
	DB	00H
	DB	00H
	DB	00H
	DB	00H
	DB	00H
	DB	00H
	DB	00H
	DB	00H
	DB	00H
	DB	00H
	DB	00H
	DB	00H
	DB	00H
	DB	00H
	DB	00H
	DB	00H
	DB	00H
	DB	00H
	DB	00H
	DB	00H
	DB	00H
	DB	00H
	DB	00H
	DB	00H
	DB	00H
	DB	00H
	DB	00H
	DB	00H
	DB	00H
	DB	00H
	DB	00H
	DB	00H
	DB	00H
	DB	00H
	DB	00H
	DB	00H
	DB	00H
	DB	00H
	DB	00H
	DB	00H
	DB	00H
	DB	00H
	DB	00H
	DB	00H
	DB	00H
	DB	00H
	DB	00H
	DB	00H
	DB	00H
	DB	00H
	DB	00H
	DB	00H
	DB	00H
	DB	00H
	DB	00H
	DB	00H
	DB	00H
	DB	00H
	DB	00H
	DB	00H
	DB	00H
	DB	00H
	DB	00H
	DB	00H
	DB	00H
	DB	00H
	DB	00H
	DB	00H
	DB	00H
	DB	00H
	DB	00H
	DB	00H
	DB	00H
	DB	00H
	DB	00H
	DB	00H
	DB	00H
	DB	00H
	DB	00H
	DB	00H
	DB	00H
	DB	00H
	DB	00H
	DB	00H
	DB	00H
	DB	00H
	DB	00H
	DB	00H
	DB	00H
	DB	00H
	DB	00H
	DB	00H
	DB	00H
	DB	00H
	DB	00H
	DB	00H
	DB	00H
	DB	00H
	DB	00H
	DB	00H
	DB	00H
	DB	00H
	DB	00H
	DB	00H
	DB	00H
	DB	00H
	DB	00H
	DB	00H
	DB	00H
	DB	00H
	DB	00H
	DB	00H
	DB	00H
	DB	00H
	DB	00H
	DB	00H
	DB	00H
	DB	00H
	DB	00H
	DB	00H
	DB	00H
	DB	00H
	DB	00H
	DB	00H
	DB	00H
	DB	00H
	DB	00H
	DB	00H
	DB	00H
	DB	00H
	DB	00H
	DB	00H
	DB	00H
	DB	00H
	DB	00H
	DB	00H
	DB	00H
	DB	057H
	DB	057H
	DB	057H
	DB	04fH
	DB	056H
	DB	056H
	DB	056H
	DB	0f4H
	DB	056H
	DB	056H
	DB	056H
	DB	0ffH
	DB	042H
	DB	042H
	DB	042H
	DB	0ffH
	DB	010H
	DB	010H
	DB	010H
	DB	0ffH
	DB	0bH
	DB	0bH
	DB	0bH
	DB	0ffH
	DB	0bH
	DB	0bH
	DB	0bH
	DB	0ffH
	DB	0bH
	DB	0bH
	DB	0bH
	DB	0ffH
	DB	0bH
	DB	0bH
	DB	0bH
	DB	0ffH
	DB	0bH
	DB	0bH
	DB	0bH
	DB	0ffH
	DB	0bH
	DB	0bH
	DB	0bH
	DB	0ffH
	DB	0bH
	DB	0bH
	DB	0bH
	DB	0ffH
	DB	0bH
	DB	0bH
	DB	0bH
	DB	0ffH
	DB	0bH
	DB	0bH
	DB	0bH
	DB	0ffH
	DB	0bH
	DB	0bH
	DB	0bH
	DB	0ffH
	DB	0bH
	DB	0bH
	DB	0bH
	DB	0ffH
	DB	0bH
	DB	0bH
	DB	0bH
	DB	0ffH
	DB	0bH
	DB	0bH
	DB	0bH
	DB	0ffH
	DB	0bH
	DB	0bH
	DB	0bH
	DB	0ffH
	DB	0bH
	DB	0bH
	DB	0bH
	DB	0ffH
	DB	0bH
	DB	0bH
	DB	0bH
	DB	0ffH
	DB	0bH
	DB	0bH
	DB	0bH
	DB	0ffH
	DB	0bH
	DB	0bH
	DB	0bH
	DB	0ffH
	DB	0bH
	DB	0bH
	DB	0bH
	DB	0ffH
	DB	0bH
	DB	0bH
	DB	0bH
	DB	0ffH
	DB	0bH
	DB	0bH
	DB	0bH
	DB	0ffH
	DB	0bH
	DB	0bH
	DB	0bH
	DB	0ffH
	DB	0bH
	DB	0bH
	DB	0bH
	DB	0ffH
	DB	0bH
	DB	0bH
	DB	0bH
	DB	0ffH
	DB	0bH
	DB	0bH
	DB	0bH
	DB	0ffH
	DB	0bH
	DB	0bH
	DB	0bH
	DB	0ffH
	DB	0fH
	DB	0fH
	DB	0fH
	DB	0ffH
	DB	028H
	DB	028H
	DB	028H
	DB	0ffH
	DB	045H
	DB	045H
	DB	045H
	DB	0ffH
	DB	056H
	DB	056H
	DB	056H
	DB	0ffH
	DB	056H
	DB	056H
	DB	056H
	DB	0ffH
	DB	056H
	DB	056H
	DB	056H
	DB	0ffH
	DB	057H
	DB	057H
	DB	057H
	DB	0e0H
	DB	056H
	DB	056H
	DB	056H
	DB	08bH
	DB	057H
	DB	057H
	DB	057H
	DB	038H
	DB	055H
	DB	055H
	DB	055H
	DB	03H
	DB	00H
	DB	00H
	DB	00H
	DB	00H
	DB	00H
	DB	00H
	DB	00H
	DB	00H
	DB	00H
	DB	00H
	DB	00H
	DB	00H
	DB	00H
	DB	00H
	DB	00H
	DB	00H
	DB	00H
	DB	00H
	DB	00H
	DB	00H
	DB	00H
	DB	00H
	DB	00H
	DB	00H
	DB	00H
	DB	00H
	DB	00H
	DB	00H
	DB	00H
	DB	00H
	DB	00H
	DB	00H
	DB	00H
	DB	00H
	DB	00H
	DB	00H
	DB	00H
	DB	00H
	DB	00H
	DB	00H
	DB	00H
	DB	00H
	DB	00H
	DB	00H
	DB	00H
	DB	00H
	DB	00H
	DB	00H
	DB	00H
	DB	00H
	DB	00H
	DB	00H
	DB	00H
	DB	00H
	DB	00H
	DB	00H
	DB	00H
	DB	00H
	DB	00H
	DB	00H
	DB	00H
	DB	00H
	DB	00H
	DB	00H
	DB	00H
	DB	00H
	DB	00H
	DB	00H
	DB	00H
	DB	00H
	DB	00H
	DB	00H
	DB	00H
	DB	00H
	DB	00H
	DB	00H
	DB	00H
	DB	00H
	DB	00H
	DB	00H
	DB	00H
	DB	00H
	DB	00H
	DB	00H
	DB	00H
	DB	00H
	DB	00H
	DB	00H
	DB	00H
	DB	00H
	DB	00H
	DB	00H
	DB	00H
	DB	00H
	DB	00H
	DB	00H
	DB	00H
	DB	00H
	DB	00H
	DB	00H
	DB	00H
	DB	00H
	DB	00H
	DB	00H
	DB	00H
	DB	00H
	DB	00H
	DB	00H
	DB	00H
	DB	00H
	DB	00H
	DB	00H
	DB	00H
	DB	00H
	DB	00H
	DB	00H
	DB	00H
	DB	00H
	DB	00H
	DB	00H
	DB	00H
	DB	00H
	DB	00H
	DB	00H
	DB	00H
	DB	00H
	DB	00H
	DB	00H
	DB	00H
	DB	00H
	DB	00H
	DB	00H
	DB	00H
	DB	00H
	DB	00H
	DB	00H
	DB	00H
	DB	00H
	DB	00H
	DB	00H
	DB	00H
	DB	00H
	DB	00H
	DB	00H
	DB	00H
	DB	00H
	DB	00H
	DB	00H
	DB	00H
	DB	00H
	DB	00H
	DB	00H
	DB	00H
	DB	00H
	DB	00H
	DB	00H
	DB	00H
	DB	00H
	DB	00H
	DB	00H
	DB	055H
	DB	055H
	DB	055H
	DB	03H
	DB	055H
	DB	055H
	DB	055H
	DB	039H
	DB	056H
	DB	056H
	DB	056H
	DB	08bH
	DB	056H
	DB	056H
	DB	056H
	DB	0e1H
	DB	056H
	DB	056H
	DB	056H
	DB	0ffH
	DB	056H
	DB	056H
	DB	056H
	DB	0ffH
	DB	056H
	DB	056H
	DB	056H
	DB	0ffH
	DB	045H
	DB	045H
	DB	045H
	DB	0ffH
	DB	028H
	DB	028H
	DB	028H
	DB	0ffH
	DB	0eH
	DB	0eH
	DB	0eH
	DB	0ffH
	DB	0bH
	DB	0bH
	DB	0bH
	DB	0ffH
	DB	0bH
	DB	0bH
	DB	0bH
	DB	0ffH
	DB	0bH
	DB	0bH
	DB	0bH
	DB	0ffH
	DB	0bH
	DB	0bH
	DB	0bH
	DB	0ffH
	DB	0bH
	DB	0bH
	DB	0bH
	DB	0ffH
	DB	0bH
	DB	0bH
	DB	0bH
	DB	0ffH
	DB	0bH
	DB	0bH
	DB	0bH
	DB	0ffH
	DB	0bH
	DB	0bH
	DB	0bH
	DB	0ffH
	DB	0bH
	DB	0bH
	DB	0bH
	DB	0ffH
	DB	0bH
	DB	0bH
	DB	0bH
	DB	0ffH
	DB	0bH
	DB	0bH
	DB	0bH
	DB	0ffH
	DB	0bH
	DB	0bH
	DB	0bH
	DB	0ffH
	DB	0bH
	DB	0bH
	DB	0bH
	DB	0ffH
	DB	0bH
	DB	0bH
	DB	0bH
	DB	0ffH
	DB	0bH
	DB	0bH
	DB	0bH
	DB	0ffH
	DB	0bH
	DB	0bH
	DB	0bH
	DB	0ffH
	DB	0bH
	DB	0bH
	DB	0bH
	DB	0ffH
	DB	0bH
	DB	0bH
	DB	0bH
	DB	0ffH
	DB	0bH
	DB	0bH
	DB	0bH
	DB	0ffH
	DB	0bH
	DB	0bH
	DB	0bH
	DB	0ffH
	DB	0bH
	DB	0bH
	DB	0bH
	DB	0ffH
	DB	0bH
	DB	0bH
	DB	0bH
	DB	0ffH
	DB	0bH
	DB	0bH
	DB	0bH
	DB	0ffH
	DB	0bH
	DB	0bH
	DB	0bH
	DB	0ffH
	DB	0bH
	DB	0bH
	DB	0bH
	DB	0ffH
	DB	0bH
	DB	0bH
	DB	0bH
	DB	0ffH
	DB	011H
	DB	011H
	DB	011H
	DB	0ffH
	DB	043H
	DB	043H
	DB	043H
	DB	0ffH
	DB	056H
	DB	056H
	DB	056H
	DB	0ffH
	DB	056H
	DB	056H
	DB	056H
	DB	0f3H
	DB	057H
	DB	057H
	DB	057H
	DB	04cH
	DB	00H
	DB	00H
	DB	00H
	DB	00H
	DB	00H
	DB	00H
	DB	00H
	DB	00H
	DB	00H
	DB	00H
	DB	00H
	DB	00H
	DB	00H
	DB	00H
	DB	00H
	DB	00H
	DB	00H
	DB	00H
	DB	00H
	DB	00H
	DB	00H
	DB	00H
	DB	00H
	DB	00H
	DB	00H
	DB	00H
	DB	00H
	DB	00H
	DB	00H
	DB	00H
	DB	00H
	DB	00H
	DB	00H
	DB	00H
	DB	00H
	DB	00H
	DB	00H
	DB	00H
	DB	00H
	DB	00H
	DB	00H
	DB	00H
	DB	00H
	DB	00H
	DB	00H
	DB	00H
	DB	00H
	DB	00H
	DB	00H
	DB	00H
	DB	00H
	DB	00H
	DB	00H
	DB	00H
	DB	00H
	DB	00H
	DB	00H
	DB	00H
	DB	00H
	DB	00H
	DB	00H
	DB	00H
	DB	00H
	DB	00H
	DB	00H
	DB	00H
	DB	00H
	DB	00H
	DB	00H
	DB	00H
	DB	00H
	DB	00H
	DB	00H
	DB	00H
	DB	00H
	DB	00H
	DB	00H
	DB	00H
	DB	00H
	DB	00H
	DB	00H
	DB	00H
	DB	00H
	DB	00H
	DB	00H
	DB	00H
	DB	00H
	DB	00H
	DB	00H
	DB	00H
	DB	00H
	DB	00H
	DB	00H
	DB	00H
	DB	00H
	DB	00H
	DB	00H
	DB	00H
	DB	00H
	DB	00H
	DB	00H
	DB	00H
	DB	00H
	DB	00H
	DB	00H
	DB	00H
	DB	00H
	DB	00H
	DB	00H
	DB	00H
	DB	00H
	DB	00H
	DB	00H
	DB	00H
	DB	00H
	DB	00H
	DB	00H
	DB	00H
	DB	00H
	DB	00H
	DB	00H
	DB	00H
	DB	00H
	DB	00H
	DB	00H
	DB	00H
	DB	00H
	DB	00H
	DB	00H
	DB	00H
	DB	00H
	DB	00H
	DB	00H
	DB	00H
	DB	00H
	DB	00H
	DB	00H
	DB	00H
	DB	00H
	DB	00H
	DB	00H
	DB	00H
	DB	00H
	DB	00H
	DB	00H
	DB	00H
	DB	00H
	DB	00H
	DB	00H
	DB	00H
	DB	00H
	DB	00H
	DB	00H
	DB	00H
	DB	00H
	DB	00H
	DB	00H
	DB	00H
	DB	00H
	DB	00H
	DB	00H
	DB	00H
	DB	00H
	DB	00H
	DB	00H
	DB	00H
	DB	00H
	DB	00H
	DB	00H
	DB	00H
	DB	00H
	DB	00H
	DB	00H
	DB	00H
	DB	00H
	DB	00H
	DB	00H
	DB	00H
	DB	00H
	DB	00H
	DB	00H
	DB	00H
	DB	00H
	DB	00H
	DB	00H
	DB	00H
	DB	00H
	DB	00H
	DB	00H
	DB	00H
	DB	00H
	DB	00H
	DB	00H
	DB	00H
	DB	00H
	DB	00H
	DB	00H
	DB	00H
	DB	00H
	DB	00H
	DB	00H
	DB	00H
	DB	00H
	DB	00H
	DB	00H
	DB	00H
	DB	00H
	DB	00H
	DB	00H
	DB	00H
	DB	00H
	DB	00H
	DB	00H
	DB	00H
	DB	00H
	DB	00H
	DB	00H
	DB	00H
	DB	00H
	DB	00H
	DB	00H
	DB	00H
	DB	00H
	DB	00H
	DB	00H
	DB	00H
	DB	00H
	DB	00H
	DB	00H
	DB	00H
	DB	00H
	DB	00H
	DB	00H
	DB	00H
	DB	00H
	DB	00H
	DB	00H
	DB	00H
	DB	00H
	DB	00H
	DB	00H
	DB	00H
	DB	00H
	DB	00H
	DB	056H
	DB	056H
	DB	056H
	DB	06eH
	DB	056H
	DB	056H
	DB	056H
	DB	0fcH
	DB	056H
	DB	056H
	DB	056H
	DB	0ffH
	DB	039H
	DB	039H
	DB	039H
	DB	0ffH
	DB	0dH
	DB	0dH
	DB	0dH
	DB	0ffH
	DB	0bH
	DB	0bH
	DB	0bH
	DB	0ffH
	DB	0bH
	DB	0bH
	DB	0bH
	DB	0ffH
	DB	0bH
	DB	0bH
	DB	0bH
	DB	0ffH
	DB	0bH
	DB	0bH
	DB	0bH
	DB	0ffH
	DB	0bH
	DB	0bH
	DB	0bH
	DB	0ffH
	DB	0bH
	DB	0bH
	DB	0bH
	DB	0ffH
	DB	0bH
	DB	0bH
	DB	0bH
	DB	0ffH
	DB	0bH
	DB	0bH
	DB	0bH
	DB	0ffH
	DB	0bH
	DB	0bH
	DB	0bH
	DB	0ffH
	DB	0bH
	DB	0bH
	DB	0bH
	DB	0ffH
	DB	0bH
	DB	0bH
	DB	0bH
	DB	0ffH
	DB	0bH
	DB	0bH
	DB	0bH
	DB	0ffH
	DB	0bH
	DB	0bH
	DB	0bH
	DB	0ffH
	DB	0bH
	DB	0bH
	DB	0bH
	DB	0ffH
	DB	0bH
	DB	0bH
	DB	0bH
	DB	0ffH
	DB	0bH
	DB	0bH
	DB	0bH
	DB	0ffH
	DB	0bH
	DB	0bH
	DB	0bH
	DB	0ffH
	DB	0bH
	DB	0bH
	DB	0bH
	DB	0ffH
	DB	0bH
	DB	0bH
	DB	0bH
	DB	0ffH
	DB	0bH
	DB	0bH
	DB	0bH
	DB	0ffH
	DB	0bH
	DB	0bH
	DB	0bH
	DB	0ffH
	DB	0bH
	DB	0bH
	DB	0bH
	DB	0ffH
	DB	0bH
	DB	0bH
	DB	0bH
	DB	0ffH
	DB	0bH
	DB	0bH
	DB	0bH
	DB	0ffH
	DB	0bH
	DB	0bH
	DB	0bH
	DB	0ffH
	DB	011H
	DB	011H
	DB	011H
	DB	0ffH
	DB	031H
	DB	031H
	DB	031H
	DB	0ffH
	DB	051H
	DB	051H
	DB	051H
	DB	0ffH
	DB	056H
	DB	056H
	DB	056H
	DB	0ffH
	DB	056H
	DB	056H
	DB	056H
	DB	0ffH
	DB	056H
	DB	056H
	DB	056H
	DB	0efH
	DB	057H
	DB	057H
	DB	057H
	DB	093H
	DB	058H
	DB	058H
	DB	058H
	DB	037H
	DB	00H
	DB	00H
	DB	00H
	DB	01H
	DB	00H
	DB	00H
	DB	00H
	DB	00H
	DB	00H
	DB	00H
	DB	00H
	DB	00H
	DB	00H
	DB	00H
	DB	00H
	DB	00H
	DB	00H
	DB	00H
	DB	00H
	DB	00H
	DB	00H
	DB	00H
	DB	00H
	DB	00H
	DB	00H
	DB	00H
	DB	00H
	DB	00H
	DB	00H
	DB	00H
	DB	00H
	DB	00H
	DB	00H
	DB	00H
	DB	00H
	DB	00H
	DB	00H
	DB	00H
	DB	00H
	DB	00H
	DB	00H
	DB	00H
	DB	00H
	DB	00H
	DB	00H
	DB	00H
	DB	00H
	DB	00H
	DB	00H
	DB	00H
	DB	00H
	DB	00H
	DB	00H
	DB	00H
	DB	00H
	DB	00H
	DB	00H
	DB	00H
	DB	00H
	DB	00H
	DB	00H
	DB	00H
	DB	00H
	DB	00H
	DB	00H
	DB	00H
	DB	00H
	DB	00H
	DB	00H
	DB	00H
	DB	00H
	DB	00H
	DB	00H
	DB	00H
	DB	00H
	DB	00H
	DB	00H
	DB	00H
	DB	00H
	DB	00H
	DB	00H
	DB	00H
	DB	00H
	DB	00H
	DB	00H
	DB	00H
	DB	00H
	DB	00H
	DB	00H
	DB	00H
	DB	00H
	DB	00H
	DB	00H
	DB	00H
	DB	00H
	DB	00H
	DB	00H
	DB	00H
	DB	00H
	DB	00H
	DB	00H
	DB	00H
	DB	00H
	DB	00H
	DB	00H
	DB	00H
	DB	00H
	DB	00H
	DB	00H
	DB	00H
	DB	00H
	DB	00H
	DB	00H
	DB	00H
	DB	00H
	DB	00H
	DB	00H
	DB	00H
	DB	00H
	DB	00H
	DB	00H
	DB	00H
	DB	00H
	DB	00H
	DB	00H
	DB	00H
	DB	00H
	DB	00H
	DB	00H
	DB	00H
	DB	00H
	DB	00H
	DB	00H
	DB	00H
	DB	00H
	DB	00H
	DB	00H
	DB	00H
	DB	00H
	DB	00H
	DB	00H
	DB	00H
	DB	00H
	DB	00H
	DB	00H
	DB	00H
	DB	00H
	DB	00H
	DB	00H
	DB	00H
	DB	00H
	DB	00H
	DB	00H
	DB	00H
	DB	00H
	DB	00H
	DB	00H
	DB	00H
	DB	00H
	DB	00H
	DB	00H
	DB	00H
	DB	00H
	DB	00H
	DB	00H
	DB	00H
	DB	00H
	DB	00H
	DB	00H
	DB	00H
	DB	00H
	DB	00H
	DB	00H
	DB	00H
	DB	00H
	DB	00H
	DB	00H
	DB	00H
	DB	00H
	DB	00H
	DB	00H
	DB	00H
	DB	00H
	DB	00H
	DB	00H
	DB	00H
	DB	00H
	DB	00H
	DB	00H
	DB	00H
	DB	00H
	DB	01H
	DB	055H
	DB	055H
	DB	055H
	DB	039H
	DB	056H
	DB	056H
	DB	056H
	DB	095H
	DB	056H
	DB	056H
	DB	056H
	DB	0f0H
	DB	056H
	DB	056H
	DB	056H
	DB	0ffH
	DB	056H
	DB	056H
	DB	056H
	DB	0ffH
	DB	052H
	DB	052H
	DB	052H
	DB	0ffH
	DB	036H
	DB	036H
	DB	036H
	DB	0ffH
	DB	013H
	DB	013H
	DB	013H
	DB	0ffH
	DB	0bH
	DB	0bH
	DB	0bH
	DB	0ffH
	DB	0bH
	DB	0bH
	DB	0bH
	DB	0ffH
	DB	0bH
	DB	0bH
	DB	0bH
	DB	0ffH
	DB	0bH
	DB	0bH
	DB	0bH
	DB	0ffH
	DB	0bH
	DB	0bH
	DB	0bH
	DB	0ffH
	DB	0bH
	DB	0bH
	DB	0bH
	DB	0ffH
	DB	0bH
	DB	0bH
	DB	0bH
	DB	0ffH
	DB	0bH
	DB	0bH
	DB	0bH
	DB	0ffH
	DB	0bH
	DB	0bH
	DB	0bH
	DB	0ffH
	DB	0bH
	DB	0bH
	DB	0bH
	DB	0ffH
	DB	0bH
	DB	0bH
	DB	0bH
	DB	0ffH
	DB	0bH
	DB	0bH
	DB	0bH
	DB	0ffH
	DB	0bH
	DB	0bH
	DB	0bH
	DB	0ffH
	DB	0bH
	DB	0bH
	DB	0bH
	DB	0ffH
	DB	0bH
	DB	0bH
	DB	0bH
	DB	0ffH
	DB	0bH
	DB	0bH
	DB	0bH
	DB	0ffH
	DB	0bH
	DB	0bH
	DB	0bH
	DB	0ffH
	DB	0bH
	DB	0bH
	DB	0bH
	DB	0ffH
	DB	0bH
	DB	0bH
	DB	0bH
	DB	0ffH
	DB	0bH
	DB	0bH
	DB	0bH
	DB	0ffH
	DB	0bH
	DB	0bH
	DB	0bH
	DB	0ffH
	DB	0bH
	DB	0bH
	DB	0bH
	DB	0ffH
	DB	0bH
	DB	0bH
	DB	0bH
	DB	0ffH
	DB	0bH
	DB	0bH
	DB	0bH
	DB	0ffH
	DB	0bH
	DB	0bH
	DB	0bH
	DB	0ffH
	DB	0cH
	DB	0cH
	DB	0cH
	DB	0ffH
	DB	037H
	DB	037H
	DB	037H
	DB	0ffH
	DB	056H
	DB	056H
	DB	056H
	DB	0ffH
	DB	056H
	DB	056H
	DB	056H
	DB	0fcH
	DB	057H
	DB	057H
	DB	057H
	DB	06aH
	DB	00H
	DB	00H
	DB	00H
	DB	00H
	DB	00H
	DB	00H
	DB	00H
	DB	00H
	DB	00H
	DB	00H
	DB	00H
	DB	00H
	DB	00H
	DB	00H
	DB	00H
	DB	00H
	DB	00H
	DB	00H
	DB	00H
	DB	00H
	DB	00H
	DB	00H
	DB	00H
	DB	00H
	DB	00H
	DB	00H
	DB	00H
	DB	00H
	DB	00H
	DB	00H
	DB	00H
	DB	00H
	DB	00H
	DB	00H
	DB	00H
	DB	00H
	DB	00H
	DB	00H
	DB	00H
	DB	00H
	DB	00H
	DB	00H
	DB	00H
	DB	00H
	DB	00H
	DB	00H
	DB	00H
	DB	00H
	DB	00H
	DB	00H
	DB	00H
	DB	00H
	DB	00H
	DB	00H
	DB	00H
	DB	00H
	DB	00H
	DB	00H
	DB	00H
	DB	00H
	DB	00H
	DB	00H
	DB	00H
	DB	00H
	DB	00H
	DB	00H
	DB	00H
	DB	00H
	DB	00H
	DB	00H
	DB	00H
	DB	00H
	DB	00H
	DB	00H
	DB	00H
	DB	00H
	DB	00H
	DB	00H
	DB	00H
	DB	00H
	DB	00H
	DB	00H
	DB	00H
	DB	00H
	DB	00H
	DB	00H
	DB	00H
	DB	00H
	DB	00H
	DB	00H
	DB	00H
	DB	00H
	DB	00H
	DB	00H
	DB	00H
	DB	00H
	DB	00H
	DB	00H
	DB	00H
	DB	00H
	DB	00H
	DB	00H
	DB	00H
	DB	00H
	DB	00H
	DB	00H
	DB	00H
	DB	00H
	DB	00H
	DB	00H
	DB	00H
	DB	00H
	DB	00H
	DB	00H
	DB	00H
	DB	00H
	DB	00H
	DB	00H
	DB	00H
	DB	00H
	DB	00H
	DB	00H
	DB	00H
	DB	00H
	DB	00H
	DB	00H
	DB	00H
	DB	00H
	DB	00H
	DB	00H
	DB	00H
	DB	00H
	DB	00H
	DB	00H
	DB	00H
	DB	00H
	DB	00H
	DB	00H
	DB	00H
	DB	00H
	DB	00H
	DB	00H
	DB	00H
	DB	00H
	DB	00H
	DB	00H
	DB	00H
	DB	00H
	DB	00H
	DB	00H
	DB	00H
	DB	00H
	DB	00H
	DB	00H
	DB	00H
	DB	00H
	DB	00H
	DB	00H
	DB	00H
	DB	00H
	DB	00H
	DB	00H
	DB	00H
	DB	00H
	DB	00H
	DB	00H
	DB	00H
	DB	00H
	DB	00H
	DB	00H
	DB	00H
	DB	00H
	DB	00H
	DB	00H
	DB	00H
	DB	00H
	DB	00H
	DB	00H
	DB	00H
	DB	00H
	DB	00H
	DB	00H
	DB	00H
	DB	00H
	DB	00H
	DB	00H
	DB	00H
	DB	00H
	DB	00H
	DB	00H
	DB	00H
	DB	00H
	DB	00H
	DB	00H
	DB	00H
	DB	00H
	DB	00H
	DB	00H
	DB	00H
	DB	00H
	DB	00H
	DB	00H
	DB	00H
	DB	00H
	DB	00H
	DB	00H
	DB	00H
	DB	00H
	DB	00H
	DB	00H
	DB	00H
	DB	00H
	DB	00H
	DB	00H
	DB	00H
	DB	00H
	DB	00H
	DB	00H
	DB	00H
	DB	00H
	DB	00H
	DB	00H
	DB	00H
	DB	00H
	DB	00H
	DB	00H
	DB	00H
	DB	00H
	DB	00H
	DB	00H
	DB	00H
	DB	00H
	DB	00H
	DB	00H
	DB	00H
	DB	00H
	DB	056H
	DB	056H
	DB	056H
	DB	082H
	DB	056H
	DB	056H
	DB	056H
	DB	0ffH
	DB	056H
	DB	056H
	DB	056H
	DB	0ffH
	DB	02fH
	DB	02fH
	DB	02fH
	DB	0ffH
	DB	0bH
	DB	0bH
	DB	0bH
	DB	0ffH
	DB	0bH
	DB	0bH
	DB	0bH
	DB	0ffH
	DB	0bH
	DB	0bH
	DB	0bH
	DB	0ffH
	DB	0bH
	DB	0bH
	DB	0bH
	DB	0ffH
	DB	0bH
	DB	0bH
	DB	0bH
	DB	0ffH
	DB	0bH
	DB	0bH
	DB	0bH
	DB	0ffH
	DB	0bH
	DB	0bH
	DB	0bH
	DB	0ffH
	DB	0bH
	DB	0bH
	DB	0bH
	DB	0ffH
	DB	0bH
	DB	0bH
	DB	0bH
	DB	0ffH
	DB	0bH
	DB	0bH
	DB	0bH
	DB	0ffH
	DB	0bH
	DB	0bH
	DB	0bH
	DB	0ffH
	DB	0bH
	DB	0bH
	DB	0bH
	DB	0ffH
	DB	0bH
	DB	0bH
	DB	0bH
	DB	0ffH
	DB	0bH
	DB	0bH
	DB	0bH
	DB	0ffH
	DB	0bH
	DB	0bH
	DB	0bH
	DB	0ffH
	DB	0bH
	DB	0bH
	DB	0bH
	DB	0ffH
	DB	0bH
	DB	0bH
	DB	0bH
	DB	0ffH
	DB	0bH
	DB	0bH
	DB	0bH
	DB	0ffH
	DB	0bH
	DB	0bH
	DB	0bH
	DB	0ffH
	DB	0bH
	DB	0bH
	DB	0bH
	DB	0ffH
	DB	0bH
	DB	0bH
	DB	0bH
	DB	0ffH
	DB	0bH
	DB	0bH
	DB	0bH
	DB	0ffH
	DB	0bH
	DB	0bH
	DB	0bH
	DB	0ffH
	DB	0bH
	DB	0bH
	DB	0bH
	DB	0ffH
	DB	0bH
	DB	0bH
	DB	0bH
	DB	0ffH
	DB	015H
	DB	015H
	DB	015H
	DB	0ffH
	DB	039H
	DB	039H
	DB	039H
	DB	0ffH
	DB	054H
	DB	054H
	DB	054H
	DB	0ffH
	DB	056H
	DB	056H
	DB	056H
	DB	0ffH
	DB	056H
	DB	056H
	DB	056H
	DB	0ffH
	DB	056H
	DB	056H
	DB	056H
	DB	0c6H
	DB	057H
	DB	057H
	DB	057H
	DB	05eH
	DB	055H
	DB	055H
	DB	055H
	DB	09H
	DB	00H
	DB	00H
	DB	00H
	DB	00H
	DB	00H
	DB	00H
	DB	00H
	DB	00H
	DB	00H
	DB	00H
	DB	00H
	DB	00H
	DB	00H
	DB	00H
	DB	00H
	DB	00H
	DB	00H
	DB	00H
	DB	00H
	DB	00H
	DB	00H
	DB	00H
	DB	00H
	DB	00H
	DB	00H
	DB	00H
	DB	00H
	DB	00H
	DB	00H
	DB	00H
	DB	00H
	DB	00H
	DB	00H
	DB	00H
	DB	00H
	DB	00H
	DB	00H
	DB	00H
	DB	00H
	DB	00H
	DB	00H
	DB	00H
	DB	00H
	DB	00H
	DB	00H
	DB	00H
	DB	00H
	DB	00H
	DB	00H
	DB	00H
	DB	00H
	DB	00H
	DB	00H
	DB	00H
	DB	00H
	DB	00H
	DB	00H
	DB	00H
	DB	00H
	DB	00H
	DB	00H
	DB	00H
	DB	00H
	DB	00H
	DB	00H
	DB	00H
	DB	00H
	DB	00H
	DB	00H
	DB	00H
	DB	00H
	DB	00H
	DB	00H
	DB	00H
	DB	00H
	DB	00H
	DB	00H
	DB	00H
	DB	00H
	DB	00H
	DB	00H
	DB	00H
	DB	00H
	DB	00H
	DB	00H
	DB	00H
	DB	00H
	DB	00H
	DB	00H
	DB	00H
	DB	00H
	DB	00H
	DB	00H
	DB	00H
	DB	00H
	DB	00H
	DB	00H
	DB	00H
	DB	00H
	DB	00H
	DB	00H
	DB	00H
	DB	00H
	DB	00H
	DB	00H
	DB	00H
	DB	00H
	DB	00H
	DB	00H
	DB	00H
	DB	00H
	DB	00H
	DB	00H
	DB	00H
	DB	00H
	DB	00H
	DB	00H
	DB	00H
	DB	00H
	DB	00H
	DB	00H
	DB	00H
	DB	00H
	DB	00H
	DB	00H
	DB	00H
	DB	00H
	DB	00H
	DB	00H
	DB	00H
	DB	00H
	DB	00H
	DB	00H
	DB	00H
	DB	00H
	DB	00H
	DB	00H
	DB	00H
	DB	00H
	DB	00H
	DB	00H
	DB	00H
	DB	00H
	DB	00H
	DB	00H
	DB	00H
	DB	00H
	DB	00H
	DB	00H
	DB	00H
	DB	00H
	DB	00H
	DB	00H
	DB	00H
	DB	00H
	DB	00H
	DB	00H
	DB	00H
	DB	00H
	DB	00H
	DB	00H
	DB	00H
	DB	00H
	DB	00H
	DB	00H
	DB	00H
	DB	00H
	DB	00H
	DB	00H
	DB	00H
	DB	00H
	DB	00H
	DB	00H
	DB	00H
	DB	00H
	DB	00H
	DB	00H
	DB	00H
	DB	00H
	DB	00H
	DB	00H
	DB	00H
	DB	00H
	DB	00H
	DB	00H
	DB	00H
	DB	00H
	DB	00H
	DB	00H
	DB	00H
	DB	00H
	DB	00H
	DB	00H
	DB	00H
	DB	00H
	DB	00H
	DB	00H
	DB	00H
	DB	00H
	DB	00H
	DB	00H
	DB	00H
	DB	00H
	DB	00H
	DB	00H
	DB	00H
	DB	00H
	DB	00H
	DB	04dH
	DB	04dH
	DB	04dH
	DB	0aH
	DB	056H
	DB	056H
	DB	056H
	DB	05fH
	DB	056H
	DB	056H
	DB	056H
	DB	0c7H
	DB	056H
	DB	056H
	DB	056H
	DB	0ffH
	DB	056H
	DB	056H
	DB	056H
	DB	0ffH
	DB	054H
	DB	054H
	DB	054H
	DB	0ffH
	DB	038H
	DB	038H
	DB	038H
	DB	0ffH
	DB	015H
	DB	015H
	DB	015H
	DB	0ffH
	DB	0bH
	DB	0bH
	DB	0bH
	DB	0ffH
	DB	0bH
	DB	0bH
	DB	0bH
	DB	0ffH
	DB	0bH
	DB	0bH
	DB	0bH
	DB	0ffH
	DB	0bH
	DB	0bH
	DB	0bH
	DB	0ffH
	DB	0bH
	DB	0bH
	DB	0bH
	DB	0ffH
	DB	0bH
	DB	0bH
	DB	0bH
	DB	0ffH
	DB	0bH
	DB	0bH
	DB	0bH
	DB	0ffH
	DB	0bH
	DB	0bH
	DB	0bH
	DB	0ffH
	DB	0bH
	DB	0bH
	DB	0bH
	DB	0ffH
	DB	0bH
	DB	0bH
	DB	0bH
	DB	0ffH
	DB	0bH
	DB	0bH
	DB	0bH
	DB	0ffH
	DB	0bH
	DB	0bH
	DB	0bH
	DB	0ffH
	DB	0bH
	DB	0bH
	DB	0bH
	DB	0ffH
	DB	0bH
	DB	0bH
	DB	0bH
	DB	0ffH
	DB	0bH
	DB	0bH
	DB	0bH
	DB	0ffH
	DB	0bH
	DB	0bH
	DB	0bH
	DB	0ffH
	DB	0bH
	DB	0bH
	DB	0bH
	DB	0ffH
	DB	0bH
	DB	0bH
	DB	0bH
	DB	0ffH
	DB	0bH
	DB	0bH
	DB	0bH
	DB	0ffH
	DB	0bH
	DB	0bH
	DB	0bH
	DB	0ffH
	DB	0bH
	DB	0bH
	DB	0bH
	DB	0ffH
	DB	0bH
	DB	0bH
	DB	0bH
	DB	0ffH
	DB	0bH
	DB	0bH
	DB	0bH
	DB	0ffH
	DB	0bH
	DB	0bH
	DB	0bH
	DB	0ffH
	DB	0bH
	DB	0bH
	DB	0bH
	DB	0ffH
	DB	030H
	DB	030H
	DB	030H
	DB	0ffH
	DB	056H
	DB	056H
	DB	056H
	DB	0ffH
	DB	056H
	DB	056H
	DB	056H
	DB	0ffH
	DB	055H
	DB	055H
	DB	055H
	DB	07eH
	DB	00H
	DB	00H
	DB	00H
	DB	00H
	DB	00H
	DB	00H
	DB	00H
	DB	00H
	DB	00H
	DB	00H
	DB	00H
	DB	00H
	DB	00H
	DB	00H
	DB	00H
	DB	00H
	DB	00H
	DB	00H
	DB	00H
	DB	00H
	DB	00H
	DB	00H
	DB	00H
	DB	00H
	DB	00H
	DB	00H
	DB	00H
	DB	00H
	DB	00H
	DB	00H
	DB	00H
	DB	00H
	DB	00H
	DB	00H
	DB	00H
	DB	00H
	DB	00H
	DB	00H
	DB	00H
	DB	00H
	DB	00H
	DB	00H
	DB	00H
	DB	00H
	DB	00H
	DB	00H
	DB	00H
	DB	00H
	DB	00H
	DB	00H
	DB	00H
	DB	00H
	DB	00H
	DB	00H
	DB	00H
	DB	00H
	DB	00H
	DB	00H
	DB	00H
	DB	00H
	DB	00H
	DB	00H
	DB	00H
	DB	00H
	DB	00H
	DB	00H
	DB	00H
	DB	00H
	DB	00H
	DB	00H
	DB	00H
	DB	00H
	DB	00H
	DB	00H
	DB	00H
	DB	00H
	DB	00H
	DB	00H
	DB	00H
	DB	00H
	DB	00H
	DB	00H
	DB	00H
	DB	00H
	DB	00H
	DB	00H
	DB	00H
	DB	00H
	DB	00H
	DB	00H
	DB	00H
	DB	00H
	DB	00H
	DB	00H
	DB	00H
	DB	00H
	DB	00H
	DB	00H
	DB	00H
	DB	00H
	DB	00H
	DB	00H
	DB	00H
	DB	00H
	DB	00H
	DB	00H
	DB	00H
	DB	00H
	DB	00H
	DB	00H
	DB	00H
	DB	00H
	DB	00H
	DB	00H
	DB	00H
	DB	00H
	DB	00H
	DB	00H
	DB	00H
	DB	00H
	DB	00H
	DB	00H
	DB	00H
	DB	00H
	DB	00H
	DB	00H
	DB	00H
	DB	00H
	DB	00H
	DB	00H
	DB	00H
	DB	00H
	DB	00H
	DB	00H
	DB	00H
	DB	00H
	DB	00H
	DB	00H
	DB	00H
	DB	00H
	DB	00H
	DB	00H
	DB	00H
	DB	00H
	DB	00H
	DB	00H
	DB	00H
	DB	00H
	DB	00H
	DB	00H
	DB	00H
	DB	00H
	DB	00H
	DB	00H
	DB	00H
	DB	00H
	DB	00H
	DB	00H
	DB	00H
	DB	00H
	DB	00H
	DB	00H
	DB	00H
	DB	00H
	DB	00H
	DB	00H
	DB	00H
	DB	00H
	DB	00H
	DB	00H
	DB	00H
	DB	00H
	DB	00H
	DB	00H
	DB	00H
	DB	00H
	DB	00H
	DB	00H
	DB	00H
	DB	00H
	DB	00H
	DB	00H
	DB	00H
	DB	00H
	DB	00H
	DB	00H
	DB	00H
	DB	00H
	DB	00H
	DB	00H
	DB	00H
	DB	00H
	DB	00H
	DB	00H
	DB	00H
	DB	00H
	DB	00H
	DB	00H
	DB	00H
	DB	00H
	DB	00H
	DB	00H
	DB	00H
	DB	00H
	DB	00H
	DB	00H
	DB	00H
	DB	00H
	DB	00H
	DB	00H
	DB	00H
	DB	00H
	DB	00H
	DB	00H
	DB	00H
	DB	00H
	DB	00H
	DB	00H
	DB	00H
	DB	00H
	DB	00H
	DB	00H
	DB	00H
	DB	00H
	DB	00H
	DB	00H
	DB	00H
	DB	01H
	DB	056H
	DB	056H
	DB	056H
	DB	08cH
	DB	056H
	DB	056H
	DB	056H
	DB	0ffH
	DB	055H
	DB	055H
	DB	055H
	DB	0ffH
	DB	026H
	DB	026H
	DB	026H
	DB	0ffH
	DB	0bH
	DB	0bH
	DB	0bH
	DB	0ffH
	DB	0bH
	DB	0bH
	DB	0bH
	DB	0ffH
	DB	0bH
	DB	0bH
	DB	0bH
	DB	0ffH
	DB	0bH
	DB	0bH
	DB	0bH
	DB	0ffH
	DB	0bH
	DB	0bH
	DB	0bH
	DB	0ffH
	DB	0bH
	DB	0bH
	DB	0bH
	DB	0ffH
	DB	0bH
	DB	0bH
	DB	0bH
	DB	0ffH
	DB	0bH
	DB	0bH
	DB	0bH
	DB	0ffH
	DB	0bH
	DB	0bH
	DB	0bH
	DB	0ffH
	DB	0bH
	DB	0bH
	DB	0bH
	DB	0ffH
	DB	0bH
	DB	0bH
	DB	0bH
	DB	0ffH
	DB	0bH
	DB	0bH
	DB	0bH
	DB	0ffH
	DB	0bH
	DB	0bH
	DB	0bH
	DB	0ffH
	DB	0bH
	DB	0bH
	DB	0bH
	DB	0ffH
	DB	0bH
	DB	0bH
	DB	0bH
	DB	0ffH
	DB	0bH
	DB	0bH
	DB	0bH
	DB	0ffH
	DB	0bH
	DB	0bH
	DB	0bH
	DB	0ffH
	DB	0bH
	DB	0bH
	DB	0bH
	DB	0ffH
	DB	0bH
	DB	0bH
	DB	0bH
	DB	0ffH
	DB	0bH
	DB	0bH
	DB	0bH
	DB	0ffH
	DB	0bH
	DB	0bH
	DB	0bH
	DB	0ffH
	DB	0bH
	DB	0bH
	DB	0bH
	DB	0ffH
	DB	0bH
	DB	0bH
	DB	0bH
	DB	0ffH
	DB	0bH
	DB	0bH
	DB	0bH
	DB	0ffH
	DB	014H
	DB	014H
	DB	014H
	DB	0ffH
	DB	037H
	DB	037H
	DB	037H
	DB	0ffH
	DB	054H
	DB	054H
	DB	054H
	DB	0ffH
	DB	056H
	DB	056H
	DB	056H
	DB	0ffH
	DB	056H
	DB	056H
	DB	056H
	DB	0fdH
	DB	055H
	DB	055H
	DB	055H
	DB	0b3H
	DB	056H
	DB	056H
	DB	056H
	DB	03bH
	DB	00H
	DB	00H
	DB	00H
	DB	00H
	DB	00H
	DB	00H
	DB	00H
	DB	00H
	DB	00H
	DB	00H
	DB	00H
	DB	00H
	DB	00H
	DB	00H
	DB	00H
	DB	00H
	DB	00H
	DB	00H
	DB	00H
	DB	00H
	DB	00H
	DB	00H
	DB	00H
	DB	00H
	DB	00H
	DB	00H
	DB	00H
	DB	00H
	DB	00H
	DB	00H
	DB	00H
	DB	00H
	DB	00H
	DB	00H
	DB	00H
	DB	00H
	DB	00H
	DB	00H
	DB	00H
	DB	00H
	DB	00H
	DB	00H
	DB	00H
	DB	00H
	DB	00H
	DB	00H
	DB	00H
	DB	00H
	DB	00H
	DB	00H
	DB	00H
	DB	00H
	DB	00H
	DB	00H
	DB	00H
	DB	00H
	DB	00H
	DB	00H
	DB	00H
	DB	00H
	DB	00H
	DB	00H
	DB	00H
	DB	00H
	DB	00H
	DB	00H
	DB	00H
	DB	00H
	DB	00H
	DB	00H
	DB	00H
	DB	00H
	DB	00H
	DB	00H
	DB	00H
	DB	00H
	DB	00H
	DB	00H
	DB	00H
	DB	00H
	DB	00H
	DB	00H
	DB	00H
	DB	00H
	DB	00H
	DB	00H
	DB	00H
	DB	00H
	DB	00H
	DB	00H
	DB	00H
	DB	00H
	DB	00H
	DB	00H
	DB	00H
	DB	00H
	DB	00H
	DB	00H
	DB	00H
	DB	00H
	DB	00H
	DB	00H
	DB	00H
	DB	00H
	DB	00H
	DB	00H
	DB	00H
	DB	00H
	DB	00H
	DB	00H
	DB	00H
	DB	00H
	DB	00H
	DB	00H
	DB	00H
	DB	00H
	DB	00H
	DB	00H
	DB	00H
	DB	00H
	DB	00H
	DB	00H
	DB	00H
	DB	00H
	DB	00H
	DB	00H
	DB	00H
	DB	00H
	DB	00H
	DB	00H
	DB	00H
	DB	00H
	DB	00H
	DB	00H
	DB	00H
	DB	00H
	DB	00H
	DB	00H
	DB	00H
	DB	00H
	DB	00H
	DB	00H
	DB	00H
	DB	00H
	DB	00H
	DB	00H
	DB	00H
	DB	00H
	DB	00H
	DB	00H
	DB	00H
	DB	00H
	DB	00H
	DB	00H
	DB	00H
	DB	00H
	DB	00H
	DB	00H
	DB	00H
	DB	00H
	DB	00H
	DB	00H
	DB	00H
	DB	00H
	DB	00H
	DB	00H
	DB	00H
	DB	00H
	DB	00H
	DB	00H
	DB	00H
	DB	00H
	DB	00H
	DB	00H
	DB	00H
	DB	00H
	DB	00H
	DB	00H
	DB	00H
	DB	00H
	DB	00H
	DB	00H
	DB	00H
	DB	00H
	DB	00H
	DB	00H
	DB	00H
	DB	00H
	DB	00H
	DB	00H
	DB	00H
	DB	00H
	DB	00H
	DB	00H
	DB	00H
	DB	00H
	DB	00H
	DB	00H
	DB	00H
	DB	00H
	DB	00H
	DB	00H
	DB	00H
	DB	00H
	DB	00H
	DB	00H
	DB	00H
	DB	00H
	DB	00H
	DB	00H
	DB	00H
	DB	00H
	DB	00H
	DB	00H
	DB	00H
	DB	00H
	DB	00H
	DB	00H
	DB	00H
	DB	00H
	DB	00H
	DB	00H
	DB	00H
	DB	00H
	DB	00H
	DB	00H
	DB	00H
	DB	00H
	DB	00H
	DB	00H
	DB	00H
	DB	00H
	DB	055H
	DB	055H
	DB	055H
	DB	033H
	DB	057H
	DB	057H
	DB	057H
	DB	0a2H
	DB	056H
	DB	056H
	DB	056H
	DB	0fbH
	DB	056H
	DB	056H
	DB	056H
	DB	0ffH
	DB	054H
	DB	054H
	DB	054H
	DB	0ffH
	DB	038H
	DB	038H
	DB	038H
	DB	0ffH
	DB	013H
	DB	013H
	DB	013H
	DB	0ffH
	DB	0bH
	DB	0bH
	DB	0bH
	DB	0ffH
	DB	0bH
	DB	0bH
	DB	0bH
	DB	0ffH
	DB	0bH
	DB	0bH
	DB	0bH
	DB	0ffH
	DB	0bH
	DB	0bH
	DB	0bH
	DB	0ffH
	DB	0bH
	DB	0bH
	DB	0bH
	DB	0ffH
	DB	0bH
	DB	0bH
	DB	0bH
	DB	0ffH
	DB	0bH
	DB	0bH
	DB	0bH
	DB	0ffH
	DB	0bH
	DB	0bH
	DB	0bH
	DB	0ffH
	DB	0bH
	DB	0bH
	DB	0bH
	DB	0ffH
	DB	0bH
	DB	0bH
	DB	0bH
	DB	0ffH
	DB	0bH
	DB	0bH
	DB	0bH
	DB	0ffH
	DB	0bH
	DB	0bH
	DB	0bH
	DB	0ffH
	DB	0bH
	DB	0bH
	DB	0bH
	DB	0ffH
	DB	0bH
	DB	0bH
	DB	0bH
	DB	0ffH
	DB	0bH
	DB	0bH
	DB	0bH
	DB	0ffH
	DB	0bH
	DB	0bH
	DB	0bH
	DB	0ffH
	DB	0bH
	DB	0bH
	DB	0bH
	DB	0ffH
	DB	0bH
	DB	0bH
	DB	0bH
	DB	0ffH
	DB	0bH
	DB	0bH
	DB	0bH
	DB	0ffH
	DB	0bH
	DB	0bH
	DB	0bH
	DB	0ffH
	DB	0bH
	DB	0bH
	DB	0bH
	DB	0ffH
	DB	0bH
	DB	0bH
	DB	0bH
	DB	0ffH
	DB	0bH
	DB	0bH
	DB	0bH
	DB	0ffH
	DB	0bH
	DB	0bH
	DB	0bH
	DB	0ffH
	DB	027H
	DB	027H
	DB	027H
	DB	0ffH
	DB	055H
	DB	055H
	DB	055H
	DB	0ffH
	DB	056H
	DB	056H
	DB	056H
	DB	0ffH
	DB	057H
	DB	057H
	DB	057H
	DB	08aH
	DB	00H
	DB	00H
	DB	00H
	DB	01H
	DB	00H
	DB	00H
	DB	00H
	DB	00H
	DB	00H
	DB	00H
	DB	00H
	DB	00H
	DB	00H
	DB	00H
	DB	00H
	DB	00H
	DB	00H
	DB	00H
	DB	00H
	DB	00H
	DB	00H
	DB	00H
	DB	00H
	DB	00H
	DB	00H
	DB	00H
	DB	00H
	DB	00H
	DB	00H
	DB	00H
	DB	00H
	DB	00H
	DB	00H
	DB	00H
	DB	00H
	DB	00H
	DB	00H
	DB	00H
	DB	00H
	DB	00H
	DB	00H
	DB	00H
	DB	00H
	DB	00H
	DB	00H
	DB	00H
	DB	00H
	DB	00H
	DB	00H
	DB	00H
	DB	00H
	DB	00H
	DB	00H
	DB	00H
	DB	00H
	DB	00H
	DB	00H
	DB	00H
	DB	00H
	DB	00H
	DB	00H
	DB	00H
	DB	00H
	DB	00H
	DB	00H
	DB	00H
	DB	00H
	DB	00H
	DB	00H
	DB	00H
	DB	00H
	DB	00H
	DB	00H
	DB	00H
	DB	00H
	DB	00H
	DB	00H
	DB	00H
	DB	00H
	DB	00H
	DB	00H
	DB	00H
	DB	00H
	DB	00H
	DB	00H
	DB	00H
	DB	00H
	DB	00H
	DB	00H
	DB	00H
	DB	00H
	DB	00H
	DB	00H
	DB	00H
	DB	00H
	DB	00H
	DB	00H
	DB	00H
	DB	00H
	DB	00H
	DB	00H
	DB	00H
	DB	00H
	DB	00H
	DB	00H
	DB	00H
	DB	00H
	DB	00H
	DB	00H
	DB	00H
	DB	00H
	DB	00H
	DB	00H
	DB	00H
	DB	00H
	DB	00H
	DB	00H
	DB	00H
	DB	00H
	DB	00H
	DB	00H
	DB	00H
	DB	00H
	DB	00H
	DB	00H
	DB	00H
	DB	00H
	DB	00H
	DB	00H
	DB	00H
	DB	00H
	DB	00H
	DB	00H
	DB	00H
	DB	00H
	DB	00H
	DB	00H
	DB	00H
	DB	00H
	DB	00H
	DB	00H
	DB	00H
	DB	00H
	DB	00H
	DB	00H
	DB	00H
	DB	00H
	DB	00H
	DB	00H
	DB	00H
	DB	00H
	DB	00H
	DB	00H
	DB	00H
	DB	00H
	DB	00H
	DB	00H
	DB	00H
	DB	00H
	DB	00H
	DB	00H
	DB	00H
	DB	00H
	DB	00H
	DB	00H
	DB	00H
	DB	00H
	DB	00H
	DB	00H
	DB	00H
	DB	00H
	DB	00H
	DB	00H
	DB	00H
	DB	00H
	DB	00H
	DB	00H
	DB	00H
	DB	00H
	DB	00H
	DB	00H
	DB	00H
	DB	00H
	DB	00H
	DB	00H
	DB	00H
	DB	00H
	DB	00H
	DB	00H
	DB	00H
	DB	00H
	DB	00H
	DB	00H
	DB	00H
	DB	00H
	DB	00H
	DB	00H
	DB	00H
	DB	00H
	DB	00H
	DB	00H
	DB	00H
	DB	00H
	DB	00H
	DB	00H
	DB	00H
	DB	00H
	DB	00H
	DB	00H
	DB	00H
	DB	00H
	DB	00H
	DB	00H
	DB	00H
	DB	00H
	DB	00H
	DB	080H
	DB	080H
	DB	080H
	DB	02H
	DB	056H
	DB	056H
	DB	056H
	DB	097H
	DB	056H
	DB	056H
	DB	056H
	DB	0ffH
	DB	054H
	DB	054H
	DB	054H
	DB	0ffH
	DB	023H
	DB	023H
	DB	023H
	DB	0ffH
	DB	0bH
	DB	0bH
	DB	0bH
	DB	0ffH
	DB	0bH
	DB	0bH
	DB	0bH
	DB	0ffH
	DB	0bH
	DB	0bH
	DB	0bH
	DB	0ffH
	DB	0bH
	DB	0bH
	DB	0bH
	DB	0ffH
	DB	0bH
	DB	0bH
	DB	0bH
	DB	0ffH
	DB	0bH
	DB	0bH
	DB	0bH
	DB	0ffH
	DB	0bH
	DB	0bH
	DB	0bH
	DB	0ffH
	DB	0bH
	DB	0bH
	DB	0bH
	DB	0ffH
	DB	0bH
	DB	0bH
	DB	0bH
	DB	0ffH
	DB	0bH
	DB	0bH
	DB	0bH
	DB	0ffH
	DB	0bH
	DB	0bH
	DB	0bH
	DB	0ffH
	DB	0bH
	DB	0bH
	DB	0bH
	DB	0ffH
	DB	0bH
	DB	0bH
	DB	0bH
	DB	0ffH
	DB	0bH
	DB	0bH
	DB	0bH
	DB	0ffH
	DB	0bH
	DB	0bH
	DB	0bH
	DB	0ffH
	DB	0bH
	DB	0bH
	DB	0bH
	DB	0ffH
	DB	0bH
	DB	0bH
	DB	0bH
	DB	0ffH
	DB	0bH
	DB	0bH
	DB	0bH
	DB	0ffH
	DB	0bH
	DB	0bH
	DB	0bH
	DB	0ffH
	DB	0bH
	DB	0bH
	DB	0bH
	DB	0ffH
	DB	0bH
	DB	0bH
	DB	0bH
	DB	0ffH
	DB	0bH
	DB	0bH
	DB	0bH
	DB	0ffH
	DB	0bH
	DB	0bH
	DB	0bH
	DB	0ffH
	DB	0eH
	DB	0eH
	DB	0eH
	DB	0ffH
	DB	032H
	DB	032H
	DB	032H
	DB	0ffH
	DB	053H
	DB	053H
	DB	053H
	DB	0ffH
	DB	056H
	DB	056H
	DB	056H
	DB	0ffH
	DB	056H
	DB	056H
	DB	056H
	DB	0fbH
	DB	057H
	DB	057H
	DB	057H
	DB	09fH
	DB	057H
	DB	057H
	DB	057H
	DB	023H
	DB	00H
	DB	00H
	DB	00H
	DB	00H
	DB	00H
	DB	00H
	DB	00H
	DB	00H
	DB	00H
	DB	00H
	DB	00H
	DB	00H
	DB	00H
	DB	00H
	DB	00H
	DB	00H
	DB	00H
	DB	00H
	DB	00H
	DB	00H
	DB	00H
	DB	00H
	DB	00H
	DB	00H
	DB	00H
	DB	00H
	DB	00H
	DB	00H
	DB	00H
	DB	00H
	DB	00H
	DB	00H
	DB	00H
	DB	00H
	DB	00H
	DB	00H
	DB	00H
	DB	00H
	DB	00H
	DB	00H
	DB	00H
	DB	00H
	DB	00H
	DB	00H
	DB	00H
	DB	00H
	DB	00H
	DB	00H
	DB	00H
	DB	00H
	DB	00H
	DB	00H
	DB	00H
	DB	00H
	DB	00H
	DB	00H
	DB	00H
	DB	00H
	DB	00H
	DB	00H
	DB	00H
	DB	00H
	DB	00H
	DB	00H
	DB	00H
	DB	00H
	DB	00H
	DB	00H
	DB	00H
	DB	00H
	DB	00H
	DB	00H
	DB	00H
	DB	00H
	DB	00H
	DB	00H
	DB	00H
	DB	00H
	DB	00H
	DB	00H
	DB	00H
	DB	00H
	DB	00H
	DB	00H
	DB	00H
	DB	00H
	DB	00H
	DB	00H
	DB	00H
	DB	00H
	DB	00H
	DB	00H
	DB	00H
	DB	00H
	DB	00H
	DB	00H
	DB	00H
	DB	00H
	DB	00H
	DB	00H
	DB	00H
	DB	00H
	DB	00H
	DB	00H
	DB	00H
	DB	00H
	DB	00H
	DB	00H
	DB	00H
	DB	00H
	DB	00H
	DB	00H
	DB	00H
	DB	00H
	DB	00H
	DB	00H
	DB	00H
	DB	00H
	DB	00H
	DB	00H
	DB	00H
	DB	00H
	DB	00H
	DB	00H
	DB	00H
	DB	00H
	DB	00H
	DB	00H
	DB	00H
	DB	00H
	DB	00H
	DB	00H
	DB	00H
	DB	00H
	DB	00H
	DB	00H
	DB	00H
	DB	00H
	DB	00H
	DB	00H
	DB	00H
	DB	00H
	DB	00H
	DB	00H
	DB	00H
	DB	00H
	DB	00H
	DB	00H
	DB	00H
	DB	00H
	DB	00H
	DB	00H
	DB	00H
	DB	00H
	DB	00H
	DB	00H
	DB	00H
	DB	00H
	DB	00H
	DB	00H
	DB	00H
	DB	00H
	DB	00H
	DB	00H
	DB	00H
	DB	00H
	DB	00H
	DB	00H
	DB	00H
	DB	00H
	DB	00H
	DB	00H
	DB	00H
	DB	00H
	DB	00H
	DB	00H
	DB	00H
	DB	00H
	DB	00H
	DB	00H
	DB	00H
	DB	00H
	DB	00H
	DB	00H
	DB	00H
	DB	00H
	DB	00H
	DB	00H
	DB	00H
	DB	00H
	DB	00H
	DB	00H
	DB	00H
	DB	00H
	DB	00H
	DB	00H
	DB	00H
	DB	00H
	DB	00H
	DB	00H
	DB	00H
	DB	00H
	DB	00H
	DB	00H
	DB	00H
	DB	00H
	DB	00H
	DB	00H
	DB	00H
	DB	00H
	DB	00H
	DB	00H
	DB	00H
	DB	00H
	DB	00H
	DB	00H
	DB	00H
	DB	00H
	DB	00H
	DB	00H
	DB	00H
	DB	00H
	DB	00H
	DB	00H
	DB	00H
	DB	00H
	DB	00H
	DB	00H
	DB	00H
	DB	00H
	DB	00H
	DB	00H
	DB	00H
	DB	00H
	DB	00H
	DB	00H
	DB	00H
	DB	00H
	DB	00H
	DB	00H
	DB	00H
	DB	00H
	DB	00H
	DB	00H
	DB	00H
	DB	00H
	DB	00H
	DB	00H
	DB	055H
	DB	055H
	DB	055H
	DB	024H
	DB	056H
	DB	056H
	DB	056H
	DB	0a1H
	DB	056H
	DB	056H
	DB	056H
	DB	0fcH
	DB	056H
	DB	056H
	DB	056H
	DB	0ffH
	DB	053H
	DB	053H
	DB	053H
	DB	0ffH
	DB	032H
	DB	032H
	DB	032H
	DB	0ffH
	DB	0fH
	DB	0fH
	DB	0fH
	DB	0ffH
	DB	0bH
	DB	0bH
	DB	0bH
	DB	0ffH
	DB	0bH
	DB	0bH
	DB	0bH
	DB	0ffH
	DB	0bH
	DB	0bH
	DB	0bH
	DB	0ffH
	DB	0bH
	DB	0bH
	DB	0bH
	DB	0ffH
	DB	0bH
	DB	0bH
	DB	0bH
	DB	0ffH
	DB	0bH
	DB	0bH
	DB	0bH
	DB	0ffH
	DB	0bH
	DB	0bH
	DB	0bH
	DB	0ffH
	DB	0bH
	DB	0bH
	DB	0bH
	DB	0ffH
	DB	0bH
	DB	0bH
	DB	0bH
	DB	0ffH
	DB	0bH
	DB	0bH
	DB	0bH
	DB	0ffH
	DB	0bH
	DB	0bH
	DB	0bH
	DB	0ffH
	DB	0bH
	DB	0bH
	DB	0bH
	DB	0ffH
	DB	0bH
	DB	0bH
	DB	0bH
	DB	0ffH
	DB	0bH
	DB	0bH
	DB	0bH
	DB	0ffH
	DB	0bH
	DB	0bH
	DB	0bH
	DB	0ffH
	DB	0bH
	DB	0bH
	DB	0bH
	DB	0ffH
	DB	0bH
	DB	0bH
	DB	0bH
	DB	0ffH
	DB	0bH
	DB	0bH
	DB	0bH
	DB	0ffH
	DB	0bH
	DB	0bH
	DB	0bH
	DB	0ffH
	DB	0bH
	DB	0bH
	DB	0bH
	DB	0ffH
	DB	0bH
	DB	0bH
	DB	0bH
	DB	0ffH
	DB	0bH
	DB	0bH
	DB	0bH
	DB	0ffH
	DB	0bH
	DB	0bH
	DB	0bH
	DB	0ffH
	DB	023H
	DB	023H
	DB	023H
	DB	0ffH
	DB	054H
	DB	054H
	DB	054H
	DB	0ffH
	DB	056H
	DB	056H
	DB	056H
	DB	0ffH
	DB	056H
	DB	056H
	DB	056H
	DB	095H
	DB	00H
	DB	00H
	DB	00H
	DB	01H
	DB	00H
	DB	00H
	DB	00H
	DB	00H
	DB	00H
	DB	00H
	DB	00H
	DB	00H
	DB	00H
	DB	00H
	DB	00H
	DB	00H
	DB	00H
	DB	00H
	DB	00H
	DB	00H
	DB	00H
	DB	00H
	DB	00H
	DB	00H
	DB	00H
	DB	00H
	DB	00H
	DB	00H
	DB	00H
	DB	00H
	DB	00H
	DB	00H
	DB	00H
	DB	00H
	DB	00H
	DB	00H
	DB	00H
	DB	00H
	DB	00H
	DB	00H
	DB	00H
	DB	00H
	DB	00H
	DB	00H
	DB	00H
	DB	00H
	DB	00H
	DB	00H
	DB	00H
	DB	00H
	DB	00H
	DB	00H
	DB	00H
	DB	00H
	DB	00H
	DB	00H
	DB	00H
	DB	00H
	DB	00H
	DB	00H
	DB	00H
	DB	00H
	DB	00H
	DB	00H
	DB	00H
	DB	00H
	DB	00H
	DB	00H
	DB	00H
	DB	00H
	DB	00H
	DB	00H
	DB	00H
	DB	00H
	DB	00H
	DB	00H
	DB	00H
	DB	00H
	DB	00H
	DB	00H
	DB	00H
	DB	00H
	DB	00H
	DB	00H
	DB	00H
	DB	00H
	DB	00H
	DB	00H
	DB	00H
	DB	00H
	DB	00H
	DB	00H
	DB	00H
	DB	00H
	DB	00H
	DB	00H
	DB	00H
	DB	00H
	DB	00H
	DB	00H
	DB	00H
	DB	00H
	DB	00H
	DB	00H
	DB	00H
	DB	00H
	DB	00H
	DB	00H
	DB	00H
	DB	00H
	DB	00H
	DB	00H
	DB	00H
	DB	00H
	DB	00H
	DB	00H
	DB	00H
	DB	00H
	DB	00H
	DB	00H
	DB	00H
	DB	00H
	DB	00H
	DB	00H
	DB	00H
	DB	00H
	DB	00H
	DB	00H
	DB	00H
	DB	00H
	DB	00H
	DB	00H
	DB	00H
	DB	00H
	DB	00H
	DB	00H
	DB	00H
	DB	00H
	DB	00H
	DB	00H
	DB	00H
	DB	00H
	DB	00H
	DB	00H
	DB	00H
	DB	00H
	DB	00H
	DB	00H
	DB	00H
	DB	00H
	DB	00H
	DB	00H
	DB	00H
	DB	00H
	DB	00H
	DB	00H
	DB	00H
	DB	00H
	DB	00H
	DB	00H
	DB	00H
	DB	00H
	DB	00H
	DB	00H
	DB	00H
	DB	00H
	DB	00H
	DB	00H
	DB	00H
	DB	00H
	DB	00H
	DB	00H
	DB	00H
	DB	00H
	DB	00H
	DB	00H
	DB	00H
	DB	00H
	DB	00H
	DB	00H
	DB	00H
	DB	00H
	DB	00H
	DB	00H
	DB	00H
	DB	00H
	DB	00H
	DB	00H
	DB	00H
	DB	00H
	DB	00H
	DB	00H
	DB	00H
	DB	00H
	DB	00H
	DB	00H
	DB	00H
	DB	00H
	DB	00H
	DB	00H
	DB	00H
	DB	00H
	DB	00H
	DB	00H
	DB	00H
	DB	00H
	DB	00H
	DB	00H
	DB	00H
	DB	00H
	DB	00H
	DB	01H
	DB	056H
	DB	056H
	DB	056H
	DB	097H
	DB	056H
	DB	056H
	DB	056H
	DB	0ffH
	DB	053H
	DB	053H
	DB	053H
	DB	0ffH
	DB	021H
	DB	021H
	DB	021H
	DB	0ffH
	DB	0bH
	DB	0bH
	DB	0bH
	DB	0ffH
	DB	0bH
	DB	0bH
	DB	0bH
	DB	0ffH
	DB	0bH
	DB	0bH
	DB	0bH
	DB	0ffH
	DB	0bH
	DB	0bH
	DB	0bH
	DB	0ffH
	DB	0bH
	DB	0bH
	DB	0bH
	DB	0ffH
	DB	0bH
	DB	0bH
	DB	0bH
	DB	0ffH
	DB	0bH
	DB	0bH
	DB	0bH
	DB	0ffH
	DB	0bH
	DB	0bH
	DB	0bH
	DB	0ffH
	DB	0bH
	DB	0bH
	DB	0bH
	DB	0ffH
	DB	0bH
	DB	0bH
	DB	0bH
	DB	0ffH
	DB	0bH
	DB	0bH
	DB	0bH
	DB	0ffH
	DB	0bH
	DB	0bH
	DB	0bH
	DB	0ffH
	DB	0bH
	DB	0bH
	DB	0bH
	DB	0ffH
	DB	0bH
	DB	0bH
	DB	0bH
	DB	0ffH
	DB	0bH
	DB	0bH
	DB	0bH
	DB	0ffH
	DB	0bH
	DB	0bH
	DB	0bH
	DB	0ffH
	DB	0bH
	DB	0bH
	DB	0bH
	DB	0ffH
	DB	0bH
	DB	0bH
	DB	0bH
	DB	0ffH
	DB	0bH
	DB	0bH
	DB	0bH
	DB	0ffH
	DB	0bH
	DB	0bH
	DB	0bH
	DB	0ffH
	DB	0bH
	DB	0bH
	DB	0bH
	DB	0ffH
	DB	0bH
	DB	0bH
	DB	0bH
	DB	0ffH
	DB	0bH
	DB	0bH
	DB	0bH
	DB	0ffH
	DB	027H
	DB	027H
	DB	027H
	DB	0ffH
	DB	04fH
	DB	04fH
	DB	04fH
	DB	0ffH
	DB	056H
	DB	056H
	DB	056H
	DB	0ffH
	DB	056H
	DB	056H
	DB	056H
	DB	0feH
	DB	056H
	DB	056H
	DB	056H
	DB	0a6H
	DB	055H
	DB	055H
	DB	055H
	DB	027H
	DB	00H
	DB	00H
	DB	00H
	DB	00H
	DB	00H
	DB	00H
	DB	00H
	DB	00H
	DB	00H
	DB	00H
	DB	00H
	DB	00H
	DB	00H
	DB	00H
	DB	00H
	DB	00H
	DB	00H
	DB	00H
	DB	00H
	DB	00H
	DB	00H
	DB	00H
	DB	00H
	DB	00H
	DB	00H
	DB	00H
	DB	00H
	DB	00H
	DB	00H
	DB	00H
	DB	00H
	DB	00H
	DB	00H
	DB	00H
	DB	00H
	DB	00H
	DB	00H
	DB	00H
	DB	00H
	DB	00H
	DB	00H
	DB	00H
	DB	00H
	DB	00H
	DB	00H
	DB	00H
	DB	00H
	DB	00H
	DB	00H
	DB	00H
	DB	00H
	DB	00H
	DB	00H
	DB	00H
	DB	00H
	DB	00H
	DB	00H
	DB	00H
	DB	00H
	DB	00H
	DB	00H
	DB	00H
	DB	00H
	DB	00H
	DB	00H
	DB	00H
	DB	00H
	DB	00H
	DB	00H
	DB	00H
	DB	00H
	DB	00H
	DB	00H
	DB	00H
	DB	00H
	DB	00H
	DB	00H
	DB	00H
	DB	00H
	DB	00H
	DB	00H
	DB	00H
	DB	00H
	DB	00H
	DB	00H
	DB	00H
	DB	00H
	DB	00H
	DB	00H
	DB	00H
	DB	00H
	DB	00H
	DB	00H
	DB	00H
	DB	00H
	DB	00H
	DB	00H
	DB	00H
	DB	00H
	DB	00H
	DB	00H
	DB	00H
	DB	00H
	DB	00H
	DB	00H
	DB	00H
	DB	00H
	DB	00H
	DB	00H
	DB	00H
	DB	00H
	DB	00H
	DB	00H
	DB	00H
	DB	00H
	DB	00H
	DB	00H
	DB	00H
	DB	00H
	DB	00H
	DB	00H
	DB	00H
	DB	00H
	DB	00H
	DB	00H
	DB	00H
	DB	00H
	DB	00H
	DB	00H
	DB	00H
	DB	00H
	DB	00H
	DB	00H
	DB	00H
	DB	00H
	DB	00H
	DB	00H
	DB	00H
	DB	00H
	DB	00H
	DB	00H
	DB	00H
	DB	00H
	DB	00H
	DB	00H
	DB	00H
	DB	00H
	DB	00H
	DB	00H
	DB	00H
	DB	00H
	DB	00H
	DB	00H
	DB	00H
	DB	00H
	DB	00H
	DB	00H
	DB	00H
	DB	00H
	DB	00H
	DB	00H
	DB	00H
	DB	00H
	DB	00H
	DB	00H
	DB	00H
	DB	00H
	DB	00H
	DB	00H
	DB	00H
	DB	00H
	DB	00H
	DB	00H
	DB	00H
	DB	00H
	DB	00H
	DB	00H
	DB	00H
	DB	00H
	DB	00H
	DB	00H
	DB	00H
	DB	00H
	DB	00H
	DB	00H
	DB	00H
	DB	00H
	DB	00H
	DB	00H
	DB	00H
	DB	00H
	DB	00H
	DB	00H
	DB	00H
	DB	00H
	DB	00H
	DB	00H
	DB	00H
	DB	00H
	DB	00H
	DB	00H
	DB	00H
	DB	00H
	DB	00H
	DB	00H
	DB	00H
	DB	00H
	DB	00H
	DB	00H
	DB	00H
	DB	00H
	DB	00H
	DB	00H
	DB	00H
	DB	00H
	DB	00H
	DB	00H
	DB	00H
	DB	00H
	DB	00H
	DB	00H
	DB	00H
	DB	00H
	DB	00H
	DB	00H
	DB	00H
	DB	00H
	DB	00H
	DB	00H
	DB	00H
	DB	00H
	DB	00H
	DB	00H
	DB	00H
	DB	00H
	DB	00H
	DB	00H
	DB	00H
	DB	00H
	DB	00H
	DB	00H
	DB	00H
	DB	00H
	DB	00H
	DB	00H
	DB	00H
	DB	00H
	DB	00H
	DB	00H
	DB	00H
	DB	00H
	DB	00H
	DB	00H
	DB	00H
	DB	00H
	DB	00H
	DB	00H
	DB	00H
	DB	00H
	DB	00H
	DB	00H
	DB	00H
	DB	00H
	DB	00H
	DB	053H
	DB	053H
	DB	053H
	DB	028H
	DB	057H
	DB	057H
	DB	057H
	DB	0a8H
	DB	056H
	DB	056H
	DB	056H
	DB	0feH
	DB	056H
	DB	056H
	DB	056H
	DB	0ffH
	DB	04eH
	DB	04eH
	DB	04eH
	DB	0ffH
	DB	026H
	DB	026H
	DB	026H
	DB	0ffH
	DB	0bH
	DB	0bH
	DB	0bH
	DB	0ffH
	DB	0bH
	DB	0bH
	DB	0bH
	DB	0ffH
	DB	0bH
	DB	0bH
	DB	0bH
	DB	0ffH
	DB	0bH
	DB	0bH
	DB	0bH
	DB	0ffH
	DB	0bH
	DB	0bH
	DB	0bH
	DB	0ffH
	DB	0bH
	DB	0bH
	DB	0bH
	DB	0ffH
	DB	0bH
	DB	0bH
	DB	0bH
	DB	0ffH
	DB	0bH
	DB	0bH
	DB	0bH
	DB	0ffH
	DB	0bH
	DB	0bH
	DB	0bH
	DB	0ffH
	DB	0bH
	DB	0bH
	DB	0bH
	DB	0ffH
	DB	0bH
	DB	0bH
	DB	0bH
	DB	0ffH
	DB	0bH
	DB	0bH
	DB	0bH
	DB	0ffH
	DB	0bH
	DB	0bH
	DB	0bH
	DB	0ffH
	DB	0bH
	DB	0bH
	DB	0bH
	DB	0ffH
	DB	0bH
	DB	0bH
	DB	0bH
	DB	0ffH
	DB	0bH
	DB	0bH
	DB	0bH
	DB	0ffH
	DB	0bH
	DB	0bH
	DB	0bH
	DB	0ffH
	DB	0bH
	DB	0bH
	DB	0bH
	DB	0ffH
	DB	0bH
	DB	0bH
	DB	0bH
	DB	0ffH
	DB	0bH
	DB	0bH
	DB	0bH
	DB	0ffH
	DB	0bH
	DB	0bH
	DB	0bH
	DB	0ffH
	DB	0bH
	DB	0bH
	DB	0bH
	DB	0ffH
	DB	0bH
	DB	0bH
	DB	0bH
	DB	0ffH
	DB	021H
	DB	021H
	DB	021H
	DB	0ffH
	DB	053H
	DB	053H
	DB	053H
	DB	0ffH
	DB	056H
	DB	056H
	DB	056H
	DB	0ffH
	DB	056H
	DB	056H
	DB	056H
	DB	094H
	DB	00H
	DB	00H
	DB	00H
	DB	00H
	DB	00H
	DB	00H
	DB	00H
	DB	00H
	DB	00H
	DB	00H
	DB	00H
	DB	00H
	DB	00H
	DB	00H
	DB	00H
	DB	00H
	DB	00H
	DB	00H
	DB	00H
	DB	00H
	DB	00H
	DB	00H
	DB	00H
	DB	00H
	DB	00H
	DB	00H
	DB	00H
	DB	00H
	DB	00H
	DB	00H
	DB	00H
	DB	00H
	DB	00H
	DB	00H
	DB	00H
	DB	00H
	DB	00H
	DB	00H
	DB	00H
	DB	00H
	DB	00H
	DB	00H
	DB	00H
	DB	00H
	DB	00H
	DB	00H
	DB	00H
	DB	00H
	DB	00H
	DB	00H
	DB	00H
	DB	00H
	DB	00H
	DB	00H
	DB	00H
	DB	00H
	DB	00H
	DB	00H
	DB	00H
	DB	00H
	DB	00H
	DB	00H
	DB	00H
	DB	00H
	DB	00H
	DB	00H
	DB	00H
	DB	00H
	DB	00H
	DB	00H
	DB	00H
	DB	00H
	DB	00H
	DB	00H
	DB	00H
	DB	00H
	DB	00H
	DB	00H
	DB	00H
	DB	00H
	DB	00H
	DB	00H
	DB	00H
	DB	00H
	DB	00H
	DB	00H
	DB	00H
	DB	00H
	DB	00H
	DB	00H
	DB	00H
	DB	00H
	DB	00H
	DB	00H
	DB	00H
	DB	00H
	DB	00H
	DB	00H
	DB	00H
	DB	00H
	DB	00H
	DB	00H
	DB	00H
	DB	00H
	DB	00H
	DB	00H
	DB	00H
	DB	00H
	DB	00H
	DB	00H
	DB	00H
	DB	00H
	DB	00H
	DB	00H
	DB	00H
	DB	00H
	DB	00H
	DB	00H
	DB	00H
	DB	00H
	DB	00H
	DB	00H
	DB	00H
	DB	00H
	DB	00H
	DB	00H
	DB	00H
	DB	00H
	DB	00H
	DB	00H
	DB	00H
	DB	00H
	DB	00H
	DB	00H
	DB	00H
	DB	00H
	DB	00H
	DB	00H
	DB	00H
	DB	00H
	DB	00H
	DB	00H
	DB	00H
	DB	00H
	DB	00H
	DB	00H
	DB	00H
	DB	00H
	DB	00H
	DB	00H
	DB	00H
	DB	00H
	DB	00H
	DB	00H
	DB	00H
	DB	00H
	DB	00H
	DB	00H
	DB	00H
	DB	00H
	DB	00H
	DB	00H
	DB	00H
	DB	00H
	DB	00H
	DB	00H
	DB	00H
	DB	00H
	DB	00H
	DB	00H
	DB	00H
	DB	00H
	DB	00H
	DB	00H
	DB	00H
	DB	00H
	DB	00H
	DB	00H
	DB	00H
	DB	00H
	DB	00H
	DB	00H
	DB	00H
	DB	00H
	DB	00H
	DB	00H
	DB	00H
	DB	00H
	DB	00H
	DB	00H
	DB	00H
	DB	00H
	DB	00H
	DB	00H
	DB	00H
	DB	00H
	DB	00H
	DB	00H
	DB	00H
	DB	00H
	DB	00H
	DB	00H
	DB	00H
	DB	00H
	DB	056H
	DB	056H
	DB	056H
	DB	08cH
	DB	056H
	DB	056H
	DB	056H
	DB	0ffH
	DB	053H
	DB	053H
	DB	053H
	DB	0ffH
	DB	01eH
	DB	01eH
	DB	01eH
	DB	0ffH
	DB	0bH
	DB	0bH
	DB	0bH
	DB	0ffH
	DB	0bH
	DB	0bH
	DB	0bH
	DB	0ffH
	DB	0bH
	DB	0bH
	DB	0bH
	DB	0ffH
	DB	0bH
	DB	0bH
	DB	0bH
	DB	0ffH
	DB	0bH
	DB	0bH
	DB	0bH
	DB	0ffH
	DB	0bH
	DB	0bH
	DB	0bH
	DB	0ffH
	DB	0bH
	DB	0bH
	DB	0bH
	DB	0ffH
	DB	0bH
	DB	0bH
	DB	0bH
	DB	0ffH
	DB	0bH
	DB	0bH
	DB	0bH
	DB	0ffH
	DB	0bH
	DB	0bH
	DB	0bH
	DB	0ffH
	DB	0bH
	DB	0bH
	DB	0bH
	DB	0ffH
	DB	0bH
	DB	0bH
	DB	0bH
	DB	0ffH
	DB	0bH
	DB	0bH
	DB	0bH
	DB	0ffH
	DB	0bH
	DB	0bH
	DB	0bH
	DB	0ffH
	DB	0bH
	DB	0bH
	DB	0bH
	DB	0ffH
	DB	0bH
	DB	0bH
	DB	0bH
	DB	0ffH
	DB	0bH
	DB	0bH
	DB	0bH
	DB	0ffH
	DB	0bH
	DB	0bH
	DB	0bH
	DB	0ffH
	DB	0bH
	DB	0bH
	DB	0bH
	DB	0ffH
	DB	0bH
	DB	0bH
	DB	0bH
	DB	0ffH
	DB	0bH
	DB	0bH
	DB	0bH
	DB	0ffH
	DB	0bH
	DB	0bH
	DB	0bH
	DB	0ffH
	DB	016H
	DB	016H
	DB	016H
	DB	0ffH
	DB	044H
	DB	044H
	DB	044H
	DB	0ffH
	DB	056H
	DB	056H
	DB	056H
	DB	0ffH
	DB	056H
	DB	056H
	DB	056H
	DB	0ffH
	DB	056H
	DB	056H
	DB	056H
	DB	0c6H
	DB	055H
	DB	055H
	DB	055H
	DB	036H
	DB	00H
	DB	00H
	DB	00H
	DB	00H
	DB	00H
	DB	00H
	DB	00H
	DB	00H
	DB	00H
	DB	00H
	DB	00H
	DB	00H
	DB	00H
	DB	00H
	DB	00H
	DB	00H
	DB	00H
	DB	00H
	DB	00H
	DB	00H
	DB	00H
	DB	00H
	DB	00H
	DB	00H
	DB	00H
	DB	00H
	DB	00H
	DB	00H
	DB	00H
	DB	00H
	DB	00H
	DB	00H
	DB	00H
	DB	00H
	DB	00H
	DB	00H
	DB	00H
	DB	00H
	DB	00H
	DB	00H
	DB	00H
	DB	00H
	DB	00H
	DB	00H
	DB	00H
	DB	00H
	DB	00H
	DB	00H
	DB	00H
	DB	00H
	DB	00H
	DB	00H
	DB	00H
	DB	00H
	DB	00H
	DB	00H
	DB	00H
	DB	00H
	DB	00H
	DB	00H
	DB	00H
	DB	00H
	DB	00H
	DB	00H
	DB	00H
	DB	00H
	DB	00H
	DB	00H
	DB	00H
	DB	00H
	DB	00H
	DB	00H
	DB	00H
	DB	00H
	DB	00H
	DB	00H
	DB	00H
	DB	00H
	DB	00H
	DB	00H
	DB	00H
	DB	00H
	DB	00H
	DB	00H
	DB	00H
	DB	00H
	DB	00H
	DB	00H
	DB	00H
	DB	00H
	DB	00H
	DB	00H
	DB	00H
	DB	00H
	DB	00H
	DB	00H
	DB	00H
	DB	00H
	DB	00H
	DB	00H
	DB	00H
	DB	00H
	DB	00H
	DB	00H
	DB	00H
	DB	00H
	DB	00H
	DB	00H
	DB	00H
	DB	00H
	DB	00H
	DB	00H
	DB	00H
	DB	00H
	DB	00H
	DB	00H
	DB	00H
	DB	00H
	DB	00H
	DB	00H
	DB	00H
	DB	00H
	DB	00H
	DB	00H
	DB	00H
	DB	00H
	DB	00H
	DB	00H
	DB	00H
	DB	00H
	DB	00H
	DB	00H
	DB	00H
	DB	00H
	DB	00H
	DB	00H
	DB	00H
	DB	00H
	DB	00H
	DB	00H
	DB	00H
	DB	00H
	DB	00H
	DB	00H
	DB	00H
	DB	00H
	DB	00H
	DB	00H
	DB	00H
	DB	00H
	DB	00H
	DB	00H
	DB	00H
	DB	00H
	DB	00H
	DB	00H
	DB	00H
	DB	00H
	DB	00H
	DB	00H
	DB	00H
	DB	00H
	DB	00H
	DB	00H
	DB	00H
	DB	00H
	DB	00H
	DB	00H
	DB	00H
	DB	00H
	DB	00H
	DB	00H
	DB	00H
	DB	00H
	DB	00H
	DB	00H
	DB	00H
	DB	00H
	DB	00H
	DB	00H
	DB	00H
	DB	00H
	DB	00H
	DB	00H
	DB	00H
	DB	00H
	DB	00H
	DB	00H
	DB	00H
	DB	00H
	DB	00H
	DB	00H
	DB	00H
	DB	00H
	DB	00H
	DB	00H
	DB	00H
	DB	00H
	DB	00H
	DB	00H
	DB	00H
	DB	00H
	DB	00H
	DB	00H
	DB	00H
	DB	00H
	DB	00H
	DB	00H
	DB	00H
	DB	00H
	DB	00H
	DB	00H
	DB	00H
	DB	00H
	DB	00H
	DB	00H
	DB	00H
	DB	00H
	DB	00H
	DB	00H
	DB	00H
	DB	00H
	DB	00H
	DB	00H
	DB	00H
	DB	00H
	DB	00H
	DB	00H
	DB	00H
	DB	00H
	DB	00H
	DB	00H
	DB	00H
	DB	00H
	DB	00H
	DB	00H
	DB	00H
	DB	00H
	DB	00H
	DB	00H
	DB	00H
	DB	00H
	DB	00H
	DB	00H
	DB	00H
	DB	00H
	DB	00H
	DB	00H
	DB	00H
	DB	00H
	DB	00H
	DB	00H
	DB	00H
	DB	00H
	DB	00H
	DB	00H
	DB	00H
	DB	00H
	DB	00H
	DB	00H
	DB	00H
	DB	00H
	DB	00H
	DB	00H
	DB	00H
	DB	00H
	DB	00H
	DB	00H
	DB	00H
	DB	00H
	DB	00H
	DB	00H
	DB	00H
	DB	00H
	DB	00H
	DB	00H
	DB	00H
	DB	00H
	DB	00H
	DB	00H
	DB	057H
	DB	057H
	DB	057H
	DB	038H
	DB	055H
	DB	055H
	DB	055H
	DB	0c8H
	DB	056H
	DB	056H
	DB	056H
	DB	0ffH
	DB	056H
	DB	056H
	DB	056H
	DB	0ffH
	DB	043H
	DB	043H
	DB	043H
	DB	0ffH
	DB	015H
	DB	015H
	DB	015H
	DB	0ffH
	DB	0bH
	DB	0bH
	DB	0bH
	DB	0ffH
	DB	0bH
	DB	0bH
	DB	0bH
	DB	0ffH
	DB	0bH
	DB	0bH
	DB	0bH
	DB	0ffH
	DB	0bH
	DB	0bH
	DB	0bH
	DB	0ffH
	DB	0bH
	DB	0bH
	DB	0bH
	DB	0ffH
	DB	0bH
	DB	0bH
	DB	0bH
	DB	0ffH
	DB	0bH
	DB	0bH
	DB	0bH
	DB	0ffH
	DB	0bH
	DB	0bH
	DB	0bH
	DB	0ffH
	DB	0bH
	DB	0bH
	DB	0bH
	DB	0ffH
	DB	0bH
	DB	0bH
	DB	0bH
	DB	0ffH
	DB	0bH
	DB	0bH
	DB	0bH
	DB	0ffH
	DB	0bH
	DB	0bH
	DB	0bH
	DB	0ffH
	DB	0bH
	DB	0bH
	DB	0bH
	DB	0ffH
	DB	0bH
	DB	0bH
	DB	0bH
	DB	0ffH
	DB	0bH
	DB	0bH
	DB	0bH
	DB	0ffH
	DB	0bH
	DB	0bH
	DB	0bH
	DB	0ffH
	DB	0bH
	DB	0bH
	DB	0bH
	DB	0ffH
	DB	0bH
	DB	0bH
	DB	0bH
	DB	0ffH
	DB	0bH
	DB	0bH
	DB	0bH
	DB	0ffH
	DB	0bH
	DB	0bH
	DB	0bH
	DB	0ffH
	DB	0bH
	DB	0bH
	DB	0bH
	DB	0ffH
	DB	0bH
	DB	0bH
	DB	0bH
	DB	0ffH
	DB	01fH
	DB	01fH
	DB	01fH
	DB	0ffH
	DB	053H
	DB	053H
	DB	053H
	DB	0ffH
	DB	056H
	DB	056H
	DB	056H
	DB	0ffH
	DB	056H
	DB	056H
	DB	056H
	DB	089H
	DB	00H
	DB	00H
	DB	00H
	DB	00H
	DB	00H
	DB	00H
	DB	00H
	DB	00H
	DB	00H
	DB	00H
	DB	00H
	DB	00H
	DB	00H
	DB	00H
	DB	00H
	DB	00H
	DB	00H
	DB	00H
	DB	00H
	DB	00H
	DB	00H
	DB	00H
	DB	00H
	DB	00H
	DB	00H
	DB	00H
	DB	00H
	DB	00H
	DB	00H
	DB	00H
	DB	00H
	DB	00H
	DB	00H
	DB	00H
	DB	00H
	DB	00H
	DB	00H
	DB	00H
	DB	00H
	DB	00H
	DB	00H
	DB	00H
	DB	00H
	DB	00H
	DB	00H
	DB	00H
	DB	00H
	DB	00H
	DB	00H
	DB	00H
	DB	00H
	DB	00H
	DB	00H
	DB	00H
	DB	00H
	DB	00H
	DB	00H
	DB	00H
	DB	00H
	DB	00H
	DB	00H
	DB	00H
	DB	00H
	DB	00H
	DB	00H
	DB	00H
	DB	00H
	DB	00H
	DB	00H
	DB	00H
	DB	00H
	DB	00H
	DB	00H
	DB	00H
	DB	00H
	DB	00H
	DB	00H
	DB	00H
	DB	00H
	DB	00H
	DB	00H
	DB	00H
	DB	00H
	DB	00H
	DB	00H
	DB	00H
	DB	00H
	DB	00H
	DB	00H
	DB	00H
	DB	00H
	DB	00H
	DB	00H
	DB	00H
	DB	00H
	DB	00H
	DB	00H
	DB	00H
	DB	00H
	DB	00H
	DB	00H
	DB	00H
	DB	00H
	DB	00H
	DB	00H
	DB	00H
	DB	00H
	DB	00H
	DB	00H
	DB	00H
	DB	00H
	DB	00H
	DB	00H
	DB	00H
	DB	00H
	DB	00H
	DB	00H
	DB	00H
	DB	00H
	DB	00H
	DB	00H
	DB	00H
	DB	00H
	DB	00H
	DB	00H
	DB	00H
	DB	00H
	DB	00H
	DB	00H
	DB	00H
	DB	00H
	DB	00H
	DB	00H
	DB	00H
	DB	00H
	DB	00H
	DB	00H
	DB	00H
	DB	00H
	DB	00H
	DB	00H
	DB	00H
	DB	00H
	DB	00H
	DB	00H
	DB	00H
	DB	00H
	DB	00H
	DB	00H
	DB	00H
	DB	00H
	DB	00H
	DB	00H
	DB	00H
	DB	00H
	DB	00H
	DB	00H
	DB	00H
	DB	00H
	DB	00H
	DB	00H
	DB	00H
	DB	00H
	DB	00H
	DB	00H
	DB	00H
	DB	00H
	DB	00H
	DB	00H
	DB	00H
	DB	00H
	DB	00H
	DB	00H
	DB	00H
	DB	00H
	DB	00H
	DB	00H
	DB	00H
	DB	00H
	DB	00H
	DB	00H
	DB	00H
	DB	00H
	DB	00H
	DB	00H
	DB	00H
	DB	00H
	DB	00H
	DB	00H
	DB	00H
	DB	00H
	DB	00H
	DB	00H
	DB	00H
	DB	00H
	DB	00H
	DB	057H
	DB	057H
	DB	057H
	DB	081H
	DB	056H
	DB	056H
	DB	056H
	DB	0ffH
	DB	054H
	DB	054H
	DB	054H
	DB	0ffH
	DB	020H
	DB	020H
	DB	020H
	DB	0ffH
	DB	0bH
	DB	0bH
	DB	0bH
	DB	0ffH
	DB	0bH
	DB	0bH
	DB	0bH
	DB	0ffH
	DB	0bH
	DB	0bH
	DB	0bH
	DB	0ffH
	DB	0bH
	DB	0bH
	DB	0bH
	DB	0ffH
	DB	0bH
	DB	0bH
	DB	0bH
	DB	0ffH
	DB	0bH
	DB	0bH
	DB	0bH
	DB	0ffH
	DB	0bH
	DB	0bH
	DB	0bH
	DB	0ffH
	DB	0bH
	DB	0bH
	DB	0bH
	DB	0ffH
	DB	0bH
	DB	0bH
	DB	0bH
	DB	0ffH
	DB	0bH
	DB	0bH
	DB	0bH
	DB	0ffH
	DB	0bH
	DB	0bH
	DB	0bH
	DB	0ffH
	DB	0bH
	DB	0bH
	DB	0bH
	DB	0ffH
	DB	0bH
	DB	0bH
	DB	0bH
	DB	0ffH
	DB	0bH
	DB	0bH
	DB	0bH
	DB	0ffH
	DB	0bH
	DB	0bH
	DB	0bH
	DB	0ffH
	DB	0bH
	DB	0bH
	DB	0bH
	DB	0ffH
	DB	0bH
	DB	0bH
	DB	0bH
	DB	0ffH
	DB	0bH
	DB	0bH
	DB	0bH
	DB	0ffH
	DB	0bH
	DB	0bH
	DB	0bH
	DB	0ffH
	DB	0bH
	DB	0bH
	DB	0bH
	DB	0ffH
	DB	0bH
	DB	0bH
	DB	0bH
	DB	0ffH
	DB	0cH
	DB	0cH
	DB	0cH
	DB	0ffH
	DB	02fH
	DB	02fH
	DB	02fH
	DB	0ffH
	DB	053H
	DB	053H
	DB	053H
	DB	0ffH
	DB	056H
	DB	056H
	DB	056H
	DB	0ffH
	DB	056H
	DB	056H
	DB	056H
	DB	0e7H
	DB	055H
	DB	055H
	DB	055H
	DB	05aH
	DB	00H
	DB	00H
	DB	00H
	DB	01H
	DB	00H
	DB	00H
	DB	00H
	DB	00H
	DB	00H
	DB	00H
	DB	00H
	DB	00H
	DB	00H
	DB	00H
	DB	00H
	DB	00H
	DB	00H
	DB	00H
	DB	00H
	DB	00H
	DB	00H
	DB	00H
	DB	00H
	DB	00H
	DB	00H
	DB	00H
	DB	00H
	DB	00H
	DB	00H
	DB	00H
	DB	00H
	DB	00H
	DB	00H
	DB	00H
	DB	00H
	DB	00H
	DB	00H
	DB	00H
	DB	00H
	DB	00H
	DB	00H
	DB	00H
	DB	00H
	DB	00H
	DB	00H
	DB	00H
	DB	00H
	DB	00H
	DB	00H
	DB	00H
	DB	00H
	DB	00H
	DB	00H
	DB	00H
	DB	00H
	DB	00H
	DB	00H
	DB	00H
	DB	00H
	DB	00H
	DB	00H
	DB	00H
	DB	00H
	DB	00H
	DB	00H
	DB	00H
	DB	00H
	DB	00H
	DB	00H
	DB	00H
	DB	00H
	DB	00H
	DB	00H
	DB	00H
	DB	00H
	DB	00H
	DB	00H
	DB	00H
	DB	00H
	DB	00H
	DB	00H
	DB	00H
	DB	00H
	DB	00H
	DB	00H
	DB	00H
	DB	00H
	DB	00H
	DB	00H
	DB	00H
	DB	00H
	DB	00H
	DB	00H
	DB	00H
	DB	00H
	DB	00H
	DB	00H
	DB	00H
	DB	00H
	DB	00H
	DB	00H
	DB	00H
	DB	00H
	DB	00H
	DB	00H
	DB	00H
	DB	00H
	DB	00H
	DB	00H
	DB	00H
	DB	00H
	DB	00H
	DB	00H
	DB	00H
	DB	00H
	DB	00H
	DB	00H
	DB	00H
	DB	00H
	DB	00H
	DB	00H
	DB	00H
	DB	00H
	DB	00H
	DB	00H
	DB	00H
	DB	00H
	DB	00H
	DB	00H
	DB	00H
	DB	00H
	DB	00H
	DB	00H
	DB	00H
	DB	00H
	DB	00H
	DB	00H
	DB	00H
	DB	00H
	DB	00H
	DB	00H
	DB	00H
	DB	00H
	DB	00H
	DB	00H
	DB	00H
	DB	00H
	DB	00H
	DB	00H
	DB	00H
	DB	00H
	DB	00H
	DB	00H
	DB	00H
	DB	00H
	DB	00H
	DB	00H
	DB	00H
	DB	00H
	DB	00H
	DB	00H
	DB	00H
	DB	00H
	DB	00H
	DB	00H
	DB	00H
	DB	00H
	DB	00H
	DB	00H
	DB	00H
	DB	00H
	DB	00H
	DB	00H
	DB	00H
	DB	00H
	DB	00H
	DB	00H
	DB	00H
	DB	00H
	DB	00H
	DB	00H
	DB	00H
	DB	00H
	DB	00H
	DB	00H
	DB	00H
	DB	00H
	DB	00H
	DB	00H
	DB	00H
	DB	00H
	DB	00H
	DB	00H
	DB	00H
	DB	00H
	DB	00H
	DB	00H
	DB	00H
	DB	00H
	DB	00H
	DB	00H
	DB	00H
	DB	00H
	DB	00H
	DB	00H
	DB	00H
	DB	00H
	DB	00H
	DB	00H
	DB	00H
	DB	00H
	DB	00H
	DB	00H
	DB	00H
	DB	00H
	DB	00H
	DB	00H
	DB	00H
	DB	00H
	DB	00H
	DB	00H
	DB	00H
	DB	00H
	DB	00H
	DB	00H
	DB	00H
	DB	00H
	DB	00H
	DB	00H
	DB	00H
	DB	00H
	DB	00H
	DB	00H
	DB	00H
	DB	00H
	DB	00H
	DB	00H
	DB	00H
	DB	00H
	DB	00H
	DB	00H
	DB	00H
	DB	00H
	DB	00H
	DB	00H
	DB	00H
	DB	00H
	DB	00H
	DB	00H
	DB	00H
	DB	00H
	DB	00H
	DB	00H
	DB	00H
	DB	00H
	DB	00H
	DB	00H
	DB	00H
	DB	00H
	DB	00H
	DB	00H
	DB	00H
	DB	00H
	DB	00H
	DB	00H
	DB	00H
	DB	00H
	DB	00H
	DB	00H
	DB	00H
	DB	00H
	DB	00H
	DB	00H
	DB	00H
	DB	00H
	DB	00H
	DB	00H
	DB	00H
	DB	00H
	DB	00H
	DB	00H
	DB	00H
	DB	00H
	DB	00H
	DB	00H
	DB	00H
	DB	00H
	DB	00H
	DB	00H
	DB	00H
	DB	00H
	DB	00H
	DB	00H
	DB	00H
	DB	00H
	DB	01H
	DB	055H
	DB	055H
	DB	055H
	DB	05dH
	DB	056H
	DB	056H
	DB	056H
	DB	0e8H
	DB	056H
	DB	056H
	DB	056H
	DB	0ffH
	DB	053H
	DB	053H
	DB	053H
	DB	0ffH
	DB	02eH
	DB	02eH
	DB	02eH
	DB	0ffH
	DB	0cH
	DB	0cH
	DB	0cH
	DB	0ffH
	DB	0bH
	DB	0bH
	DB	0bH
	DB	0ffH
	DB	0bH
	DB	0bH
	DB	0bH
	DB	0ffH
	DB	0bH
	DB	0bH
	DB	0bH
	DB	0ffH
	DB	0bH
	DB	0bH
	DB	0bH
	DB	0ffH
	DB	0bH
	DB	0bH
	DB	0bH
	DB	0ffH
	DB	0bH
	DB	0bH
	DB	0bH
	DB	0ffH
	DB	0bH
	DB	0bH
	DB	0bH
	DB	0ffH
	DB	0bH
	DB	0bH
	DB	0bH
	DB	0ffH
	DB	0bH
	DB	0bH
	DB	0bH
	DB	0ffH
	DB	0bH
	DB	0bH
	DB	0bH
	DB	0ffH
	DB	0bH
	DB	0bH
	DB	0bH
	DB	0ffH
	DB	0bH
	DB	0bH
	DB	0bH
	DB	0ffH
	DB	0bH
	DB	0bH
	DB	0bH
	DB	0ffH
	DB	0bH
	DB	0bH
	DB	0bH
	DB	0ffH
	DB	0bH
	DB	0bH
	DB	0bH
	DB	0ffH
	DB	0bH
	DB	0bH
	DB	0bH
	DB	0ffH
	DB	0bH
	DB	0bH
	DB	0bH
	DB	0ffH
	DB	0bH
	DB	0bH
	DB	0bH
	DB	0ffH
	DB	0bH
	DB	0bH
	DB	0bH
	DB	0ffH
	DB	0bH
	DB	0bH
	DB	0bH
	DB	0ffH
	DB	0bH
	DB	0bH
	DB	0bH
	DB	0ffH
	DB	021H
	DB	021H
	DB	021H
	DB	0ffH
	DB	054H
	DB	054H
	DB	054H
	DB	0ffH
	DB	056H
	DB	056H
	DB	056H
	DB	0ffH
	DB	056H
	DB	056H
	DB	056H
	DB	07dH
	DB	00H
	DB	00H
	DB	00H
	DB	00H
	DB	00H
	DB	00H
	DB	00H
	DB	00H
	DB	00H
	DB	00H
	DB	00H
	DB	00H
	DB	00H
	DB	00H
	DB	00H
	DB	00H
	DB	00H
	DB	00H
	DB	00H
	DB	00H
	DB	00H
	DB	00H
	DB	00H
	DB	00H
	DB	00H
	DB	00H
	DB	00H
	DB	00H
	DB	00H
	DB	00H
	DB	00H
	DB	00H
	DB	00H
	DB	00H
	DB	00H
	DB	00H
	DB	00H
	DB	00H
	DB	00H
	DB	00H
	DB	00H
	DB	00H
	DB	00H
	DB	00H
	DB	00H
	DB	00H
	DB	00H
	DB	00H
	DB	00H
	DB	00H
	DB	00H
	DB	00H
	DB	00H
	DB	00H
	DB	00H
	DB	00H
	DB	00H
	DB	00H
	DB	00H
	DB	00H
	DB	00H
	DB	00H
	DB	00H
	DB	00H
	DB	00H
	DB	00H
	DB	00H
	DB	00H
	DB	00H
	DB	00H
	DB	00H
	DB	00H
	DB	00H
	DB	00H
	DB	00H
	DB	00H
	DB	00H
	DB	00H
	DB	00H
	DB	00H
	DB	00H
	DB	00H
	DB	00H
	DB	00H
	DB	00H
	DB	00H
	DB	00H
	DB	00H
	DB	00H
	DB	00H
	DB	00H
	DB	00H
	DB	00H
	DB	00H
	DB	00H
	DB	00H
	DB	00H
	DB	00H
	DB	00H
	DB	00H
	DB	00H
	DB	00H
	DB	00H
	DB	00H
	DB	00H
	DB	00H
	DB	00H
	DB	00H
	DB	00H
	DB	00H
	DB	00H
	DB	00H
	DB	00H
	DB	00H
	DB	00H
	DB	00H
	DB	00H
	DB	00H
	DB	00H
	DB	00H
	DB	00H
	DB	00H
	DB	00H
	DB	00H
	DB	00H
	DB	00H
	DB	00H
	DB	00H
	DB	00H
	DB	00H
	DB	00H
	DB	00H
	DB	00H
	DB	00H
	DB	00H
	DB	00H
	DB	00H
	DB	00H
	DB	00H
	DB	00H
	DB	00H
	DB	00H
	DB	00H
	DB	00H
	DB	00H
	DB	00H
	DB	00H
	DB	00H
	DB	00H
	DB	00H
	DB	00H
	DB	00H
	DB	00H
	DB	00H
	DB	00H
	DB	00H
	DB	00H
	DB	00H
	DB	00H
	DB	00H
	DB	00H
	DB	00H
	DB	00H
	DB	00H
	DB	00H
	DB	00H
	DB	00H
	DB	00H
	DB	00H
	DB	00H
	DB	00H
	DB	00H
	DB	00H
	DB	00H
	DB	00H
	DB	00H
	DB	00H
	DB	00H
	DB	00H
	DB	00H
	DB	00H
	DB	00H
	DB	00H
	DB	00H
	DB	00H
	DB	00H
	DB	00H
	DB	00H
	DB	056H
	DB	056H
	DB	056H
	DB	06eH
	DB	056H
	DB	056H
	DB	056H
	DB	0ffH
	DB	055H
	DB	055H
	DB	055H
	DB	0ffH
	DB	024H
	DB	024H
	DB	024H
	DB	0ffH
	DB	0bH
	DB	0bH
	DB	0bH
	DB	0ffH
	DB	0bH
	DB	0bH
	DB	0bH
	DB	0ffH
	DB	0bH
	DB	0bH
	DB	0bH
	DB	0ffH
	DB	0bH
	DB	0bH
	DB	0bH
	DB	0ffH
	DB	0bH
	DB	0bH
	DB	0bH
	DB	0ffH
	DB	0bH
	DB	0bH
	DB	0bH
	DB	0ffH
	DB	0bH
	DB	0bH
	DB	0bH
	DB	0ffH
	DB	0bH
	DB	0bH
	DB	0bH
	DB	0ffH
	DB	0bH
	DB	0bH
	DB	0bH
	DB	0ffH
	DB	0bH
	DB	0bH
	DB	0bH
	DB	0ffH
	DB	0bH
	DB	0bH
	DB	0bH
	DB	0ffH
	DB	0bH
	DB	0bH
	DB	0bH
	DB	0ffH
	DB	0bH
	DB	0bH
	DB	0bH
	DB	0ffH
	DB	0bH
	DB	0bH
	DB	0bH
	DB	0ffH
	DB	0bH
	DB	0bH
	DB	0bH
	DB	0ffH
	DB	0bH
	DB	0bH
	DB	0bH
	DB	0ffH
	DB	0bH
	DB	0bH
	DB	0bH
	DB	0ffH
	DB	0bH
	DB	0bH
	DB	0bH
	DB	0ffH
	DB	0bH
	DB	0bH
	DB	0bH
	DB	0ffH
	DB	0bH
	DB	0bH
	DB	0bH
	DB	0ffH
	DB	0bH
	DB	0bH
	DB	0bH
	DB	0ffH
	DB	015H
	DB	015H
	DB	015H
	DB	0ffH
	DB	045H
	DB	045H
	DB	045H
	DB	0ffH
	DB	056H
	DB	056H
	DB	056H
	DB	0ffH
	DB	056H
	DB	056H
	DB	056H
	DB	0feH
	DB	056H
	DB	056H
	DB	056H
	DB	09dH
	DB	05aH
	DB	05aH
	DB	05aH
	DB	011H
	DB	00H
	DB	00H
	DB	00H
	DB	00H
	DB	00H
	DB	00H
	DB	00H
	DB	00H
	DB	00H
	DB	00H
	DB	00H
	DB	00H
	DB	00H
	DB	00H
	DB	00H
	DB	00H
	DB	00H
	DB	00H
	DB	00H
	DB	00H
	DB	00H
	DB	00H
	DB	00H
	DB	00H
	DB	00H
	DB	00H
	DB	00H
	DB	00H
	DB	00H
	DB	00H
	DB	00H
	DB	00H
	DB	00H
	DB	00H
	DB	00H
	DB	00H
	DB	00H
	DB	00H
	DB	00H
	DB	00H
	DB	00H
	DB	00H
	DB	00H
	DB	00H
	DB	00H
	DB	00H
	DB	00H
	DB	00H
	DB	00H
	DB	00H
	DB	00H
	DB	00H
	DB	00H
	DB	00H
	DB	00H
	DB	00H
	DB	00H
	DB	00H
	DB	00H
	DB	00H
	DB	00H
	DB	00H
	DB	00H
	DB	00H
	DB	00H
	DB	00H
	DB	00H
	DB	00H
	DB	00H
	DB	00H
	DB	00H
	DB	00H
	DB	00H
	DB	00H
	DB	00H
	DB	00H
	DB	00H
	DB	00H
	DB	00H
	DB	00H
	DB	00H
	DB	00H
	DB	00H
	DB	00H
	DB	00H
	DB	00H
	DB	00H
	DB	00H
	DB	00H
	DB	00H
	DB	00H
	DB	00H
	DB	00H
	DB	00H
	DB	00H
	DB	00H
	DB	00H
	DB	00H
	DB	00H
	DB	00H
	DB	00H
	DB	00H
	DB	00H
	DB	00H
	DB	00H
	DB	00H
	DB	00H
	DB	00H
	DB	00H
	DB	00H
	DB	00H
	DB	00H
	DB	00H
	DB	00H
	DB	00H
	DB	00H
	DB	00H
	DB	00H
	DB	00H
	DB	00H
	DB	00H
	DB	00H
	DB	00H
	DB	00H
	DB	00H
	DB	00H
	DB	00H
	DB	00H
	DB	00H
	DB	00H
	DB	00H
	DB	00H
	DB	00H
	DB	00H
	DB	00H
	DB	00H
	DB	00H
	DB	00H
	DB	00H
	DB	00H
	DB	00H
	DB	00H
	DB	00H
	DB	00H
	DB	00H
	DB	00H
	DB	00H
	DB	00H
	DB	00H
	DB	00H
	DB	00H
	DB	00H
	DB	00H
	DB	00H
	DB	00H
	DB	00H
	DB	00H
	DB	00H
	DB	00H
	DB	00H
	DB	00H
	DB	00H
	DB	00H
	DB	00H
	DB	00H
	DB	00H
	DB	00H
	DB	00H
	DB	00H
	DB	00H
	DB	00H
	DB	00H
	DB	00H
	DB	00H
	DB	00H
	DB	00H
	DB	00H
	DB	00H
	DB	00H
	DB	00H
	DB	00H
	DB	00H
	DB	00H
	DB	00H
	DB	00H
	DB	00H
	DB	00H
	DB	00H
	DB	00H
	DB	00H
	DB	00H
	DB	00H
	DB	00H
	DB	00H
	DB	00H
	DB	00H
	DB	00H
	DB	00H
	DB	00H
	DB	00H
	DB	00H
	DB	00H
	DB	00H
	DB	00H
	DB	00H
	DB	00H
	DB	00H
	DB	00H
	DB	00H
	DB	00H
	DB	00H
	DB	00H
	DB	00H
	DB	00H
	DB	00H
	DB	00H
	DB	00H
	DB	00H
	DB	00H
	DB	00H
	DB	00H
	DB	00H
	DB	00H
	DB	00H
	DB	00H
	DB	00H
	DB	00H
	DB	00H
	DB	00H
	DB	00H
	DB	00H
	DB	00H
	DB	00H
	DB	00H
	DB	00H
	DB	00H
	DB	00H
	DB	00H
	DB	00H
	DB	00H
	DB	00H
	DB	00H
	DB	00H
	DB	00H
	DB	00H
	DB	00H
	DB	00H
	DB	00H
	DB	00H
	DB	00H
	DB	00H
	DB	00H
	DB	00H
	DB	00H
	DB	00H
	DB	00H
	DB	00H
	DB	00H
	DB	00H
	DB	00H
	DB	00H
	DB	00H
	DB	00H
	DB	00H
	DB	00H
	DB	00H
	DB	00H
	DB	00H
	DB	00H
	DB	00H
	DB	00H
	DB	00H
	DB	00H
	DB	00H
	DB	00H
	DB	00H
	DB	00H
	DB	00H
	DB	00H
	DB	00H
	DB	00H
	DB	00H
	DB	00H
	DB	00H
	DB	00H
	DB	00H
	DB	00H
	DB	00H
	DB	00H
	DB	00H
	DB	00H
	DB	00H
	DB	00H
	DB	00H
	DB	00H
	DB	00H
	DB	00H
	DB	00H
	DB	00H
	DB	00H
	DB	00H
	DB	00H
	DB	00H
	DB	00H
	DB	055H
	DB	055H
	DB	055H
	DB	012H
	DB	057H
	DB	057H
	DB	057H
	DB	09fH
	DB	056H
	DB	056H
	DB	056H
	DB	0feH
	DB	056H
	DB	056H
	DB	056H
	DB	0ffH
	DB	046H
	DB	046H
	DB	046H
	DB	0ffH
	DB	015H
	DB	015H
	DB	015H
	DB	0ffH
	DB	0bH
	DB	0bH
	DB	0bH
	DB	0ffH
	DB	0bH
	DB	0bH
	DB	0bH
	DB	0ffH
	DB	0bH
	DB	0bH
	DB	0bH
	DB	0ffH
	DB	0bH
	DB	0bH
	DB	0bH
	DB	0ffH
	DB	0bH
	DB	0bH
	DB	0bH
	DB	0ffH
	DB	0bH
	DB	0bH
	DB	0bH
	DB	0ffH
	DB	0bH
	DB	0bH
	DB	0bH
	DB	0ffH
	DB	0bH
	DB	0bH
	DB	0bH
	DB	0ffH
	DB	0bH
	DB	0bH
	DB	0bH
	DB	0ffH
	DB	0bH
	DB	0bH
	DB	0bH
	DB	0ffH
	DB	0bH
	DB	0bH
	DB	0bH
	DB	0ffH
	DB	0bH
	DB	0bH
	DB	0bH
	DB	0ffH
	DB	0bH
	DB	0bH
	DB	0bH
	DB	0ffH
	DB	0bH
	DB	0bH
	DB	0bH
	DB	0ffH
	DB	0bH
	DB	0bH
	DB	0bH
	DB	0ffH
	DB	0bH
	DB	0bH
	DB	0bH
	DB	0ffH
	DB	0bH
	DB	0bH
	DB	0bH
	DB	0ffH
	DB	0bH
	DB	0bH
	DB	0bH
	DB	0ffH
	DB	0bH
	DB	0bH
	DB	0bH
	DB	0ffH
	DB	0bH
	DB	0bH
	DB	0bH
	DB	0ffH
	DB	0bH
	DB	0bH
	DB	0bH
	DB	0ffH
	DB	023H
	DB	023H
	DB	023H
	DB	0ffH
	DB	055H
	DB	055H
	DB	055H
	DB	0ffH
	DB	056H
	DB	056H
	DB	056H
	DB	0ffH
	DB	055H
	DB	055H
	DB	055H
	DB	069H
	DB	00H
	DB	00H
	DB	00H
	DB	00H
	DB	00H
	DB	00H
	DB	00H
	DB	00H
	DB	00H
	DB	00H
	DB	00H
	DB	00H
	DB	00H
	DB	00H
	DB	00H
	DB	00H
	DB	00H
	DB	00H
	DB	00H
	DB	00H
	DB	00H
	DB	00H
	DB	00H
	DB	00H
	DB	00H
	DB	00H
	DB	00H
	DB	00H
	DB	00H
	DB	00H
	DB	00H
	DB	00H
	DB	00H
	DB	00H
	DB	00H
	DB	00H
	DB	00H
	DB	00H
	DB	00H
	DB	00H
	DB	00H
	DB	00H
	DB	00H
	DB	00H
	DB	00H
	DB	00H
	DB	00H
	DB	00H
	DB	00H
	DB	00H
	DB	00H
	DB	00H
	DB	00H
	DB	00H
	DB	00H
	DB	00H
	DB	00H
	DB	00H
	DB	00H
	DB	00H
	DB	00H
	DB	00H
	DB	00H
	DB	00H
	DB	00H
	DB	00H
	DB	00H
	DB	00H
	DB	00H
	DB	00H
	DB	00H
	DB	00H
	DB	00H
	DB	00H
	DB	00H
	DB	00H
	DB	00H
	DB	00H
	DB	00H
	DB	00H
	DB	00H
	DB	00H
	DB	00H
	DB	00H
	DB	00H
	DB	00H
	DB	00H
	DB	00H
	DB	00H
	DB	00H
	DB	00H
	DB	00H
	DB	00H
	DB	00H
	DB	00H
	DB	00H
	DB	00H
	DB	00H
	DB	00H
	DB	00H
	DB	00H
	DB	00H
	DB	00H
	DB	00H
	DB	00H
	DB	00H
	DB	00H
	DB	00H
	DB	00H
	DB	00H
	DB	00H
	DB	00H
	DB	00H
	DB	00H
	DB	00H
	DB	00H
	DB	00H
	DB	00H
	DB	00H
	DB	00H
	DB	00H
	DB	00H
	DB	00H
	DB	00H
	DB	00H
	DB	00H
	DB	00H
	DB	00H
	DB	00H
	DB	00H
	DB	00H
	DB	00H
	DB	00H
	DB	00H
	DB	00H
	DB	00H
	DB	00H
	DB	00H
	DB	00H
	DB	00H
	DB	00H
	DB	00H
	DB	00H
	DB	00H
	DB	00H
	DB	00H
	DB	00H
	DB	00H
	DB	00H
	DB	00H
	DB	00H
	DB	00H
	DB	00H
	DB	00H
	DB	00H
	DB	00H
	DB	00H
	DB	00H
	DB	00H
	DB	00H
	DB	00H
	DB	00H
	DB	00H
	DB	00H
	DB	00H
	DB	00H
	DB	00H
	DB	00H
	DB	00H
	DB	00H
	DB	00H
	DB	00H
	DB	00H
	DB	00H
	DB	00H
	DB	00H
	DB	00H
	DB	00H
	DB	00H
	DB	00H
	DB	055H
	DB	055H
	DB	055H
	DB	04eH
	DB	056H
	DB	056H
	DB	056H
	DB	0fcH
	DB	056H
	DB	056H
	DB	056H
	DB	0ffH
	DB	026H
	DB	026H
	DB	026H
	DB	0ffH
	DB	0bH
	DB	0bH
	DB	0bH
	DB	0ffH
	DB	0bH
	DB	0bH
	DB	0bH
	DB	0ffH
	DB	0bH
	DB	0bH
	DB	0bH
	DB	0ffH
	DB	0bH
	DB	0bH
	DB	0bH
	DB	0ffH
	DB	0bH
	DB	0bH
	DB	0bH
	DB	0ffH
	DB	0bH
	DB	0bH
	DB	0bH
	DB	0ffH
	DB	0bH
	DB	0bH
	DB	0bH
	DB	0ffH
	DB	0bH
	DB	0bH
	DB	0bH
	DB	0ffH
	DB	0bH
	DB	0bH
	DB	0bH
	DB	0ffH
	DB	0bH
	DB	0bH
	DB	0bH
	DB	0ffH
	DB	0bH
	DB	0bH
	DB	0bH
	DB	0ffH
	DB	0bH
	DB	0bH
	DB	0bH
	DB	0ffH
	DB	0bH
	DB	0bH
	DB	0bH
	DB	0ffH
	DB	0bH
	DB	0bH
	DB	0bH
	DB	0ffH
	DB	0bH
	DB	0bH
	DB	0bH
	DB	0ffH
	DB	0bH
	DB	0bH
	DB	0bH
	DB	0ffH
	DB	0bH
	DB	0bH
	DB	0bH
	DB	0ffH
	DB	0bH
	DB	0bH
	DB	0bH
	DB	0ffH
	DB	0bH
	DB	0bH
	DB	0bH
	DB	0ffH
	DB	0bH
	DB	0bH
	DB	0bH
	DB	0ffH
	DB	0bH
	DB	0bH
	DB	0bH
	DB	0ffH
	DB	028H
	DB	028H
	DB	028H
	DB	0ffH
	DB	053H
	DB	053H
	DB	053H
	DB	0ffH
	DB	056H
	DB	056H
	DB	056H
	DB	0ffH
	DB	056H
	DB	056H
	DB	056H
	DB	0e1H
	DB	055H
	DB	055H
	DB	055H
	DB	042H
	DB	00H
	DB	00H
	DB	00H
	DB	00H
	DB	00H
	DB	00H
	DB	00H
	DB	00H
	DB	00H
	DB	00H
	DB	00H
	DB	00H
	DB	00H
	DB	00H
	DB	00H
	DB	00H
	DB	00H
	DB	00H
	DB	00H
	DB	00H
	DB	00H
	DB	00H
	DB	00H
	DB	00H
	DB	00H
	DB	00H
	DB	00H
	DB	00H
	DB	00H
	DB	00H
	DB	00H
	DB	00H
	DB	00H
	DB	00H
	DB	00H
	DB	00H
	DB	00H
	DB	00H
	DB	00H
	DB	00H
	DB	00H
	DB	00H
	DB	00H
	DB	00H
	DB	00H
	DB	00H
	DB	00H
	DB	00H
	DB	00H
	DB	00H
	DB	00H
	DB	00H
	DB	00H
	DB	00H
	DB	00H
	DB	00H
	DB	00H
	DB	00H
	DB	00H
	DB	00H
	DB	00H
	DB	00H
	DB	00H
	DB	00H
	DB	00H
	DB	00H
	DB	00H
	DB	00H
	DB	00H
	DB	00H
	DB	00H
	DB	00H
	DB	00H
	DB	00H
	DB	00H
	DB	00H
	DB	00H
	DB	00H
	DB	00H
	DB	00H
	DB	00H
	DB	00H
	DB	00H
	DB	00H
	DB	00H
	DB	00H
	DB	00H
	DB	00H
	DB	00H
	DB	00H
	DB	00H
	DB	00H
	DB	00H
	DB	00H
	DB	00H
	DB	00H
	DB	00H
	DB	00H
	DB	00H
	DB	00H
	DB	00H
	DB	00H
	DB	00H
	DB	00H
	DB	00H
	DB	00H
	DB	00H
	DB	00H
	DB	00H
	DB	00H
	DB	00H
	DB	00H
	DB	00H
	DB	00H
	DB	00H
	DB	00H
	DB	00H
	DB	00H
	DB	00H
	DB	00H
	DB	00H
	DB	00H
	DB	00H
	DB	00H
	DB	00H
	DB	00H
	DB	00H
	DB	00H
	DB	00H
	DB	00H
	DB	00H
	DB	00H
	DB	00H
	DB	00H
	DB	00H
	DB	00H
	DB	00H
	DB	00H
	DB	00H
	DB	00H
	DB	00H
	DB	00H
	DB	00H
	DB	00H
	DB	00H
	DB	00H
	DB	00H
	DB	00H
	DB	00H
	DB	00H
	DB	00H
	DB	00H
	DB	00H
	DB	00H
	DB	00H
	DB	00H
	DB	00H
	DB	00H
	DB	00H
	DB	00H
	DB	00H
	DB	00H
	DB	00H
	DB	00H
	DB	00H
	DB	00H
	DB	00H
	DB	00H
	DB	00H
	DB	00H
	DB	00H
	DB	00H
	DB	00H
	DB	00H
	DB	00H
	DB	00H
	DB	00H
	DB	00H
	DB	00H
	DB	00H
	DB	00H
	DB	00H
	DB	00H
	DB	00H
	DB	00H
	DB	00H
	DB	00H
	DB	00H
	DB	00H
	DB	00H
	DB	00H
	DB	00H
	DB	00H
	DB	00H
	DB	00H
	DB	00H
	DB	00H
	DB	00H
	DB	00H
	DB	00H
	DB	00H
	DB	00H
	DB	00H
	DB	00H
	DB	00H
	DB	00H
	DB	00H
	DB	00H
	DB	00H
	DB	00H
	DB	00H
	DB	00H
	DB	00H
	DB	00H
	DB	00H
	DB	00H
	DB	00H
	DB	00H
	DB	00H
	DB	00H
	DB	00H
	DB	00H
	DB	00H
	DB	00H
	DB	00H
	DB	00H
	DB	00H
	DB	00H
	DB	00H
	DB	00H
	DB	00H
	DB	00H
	DB	00H
	DB	00H
	DB	00H
	DB	00H
	DB	00H
	DB	00H
	DB	00H
	DB	00H
	DB	00H
	DB	00H
	DB	00H
	DB	00H
	DB	00H
	DB	00H
	DB	00H
	DB	00H
	DB	00H
	DB	00H
	DB	00H
	DB	00H
	DB	00H
	DB	00H
	DB	00H
	DB	00H
	DB	00H
	DB	00H
	DB	00H
	DB	00H
	DB	00H
	DB	00H
	DB	00H
	DB	00H
	DB	00H
	DB	00H
	DB	00H
	DB	00H
	DB	00H
	DB	00H
	DB	00H
	DB	00H
	DB	00H
	DB	00H
	DB	00H
	DB	00H
	DB	00H
	DB	00H
	DB	00H
	DB	00H
	DB	00H
	DB	00H
	DB	00H
	DB	00H
	DB	00H
	DB	00H
	DB	00H
	DB	00H
	DB	00H
	DB	00H
	DB	00H
	DB	00H
	DB	00H
	DB	00H
	DB	00H
	DB	00H
	DB	00H
	DB	00H
	DB	00H
	DB	00H
	DB	00H
	DB	00H
	DB	00H
	DB	00H
	DB	00H
	DB	00H
	DB	00H
	DB	00H
	DB	00H
	DB	00H
	DB	00H
	DB	00H
	DB	00H
	DB	00H
	DB	00H
	DB	00H
	DB	00H
	DB	00H
	DB	00H
	DB	00H
	DB	056H
	DB	056H
	DB	056H
	DB	044H
	DB	056H
	DB	056H
	DB	056H
	DB	0e2H
	DB	056H
	DB	056H
	DB	056H
	DB	0ffH
	DB	052H
	DB	052H
	DB	052H
	DB	0ffH
	DB	026H
	DB	026H
	DB	026H
	DB	0ffH
	DB	0bH
	DB	0bH
	DB	0bH
	DB	0ffH
	DB	0bH
	DB	0bH
	DB	0bH
	DB	0ffH
	DB	0bH
	DB	0bH
	DB	0bH
	DB	0ffH
	DB	0bH
	DB	0bH
	DB	0bH
	DB	0ffH
	DB	0bH
	DB	0bH
	DB	0bH
	DB	0ffH
	DB	0bH
	DB	0bH
	DB	0bH
	DB	0ffH
	DB	0bH
	DB	0bH
	DB	0bH
	DB	0ffH
	DB	0bH
	DB	0bH
	DB	0bH
	DB	0ffH
	DB	0bH
	DB	0bH
	DB	0bH
	DB	0ffH
	DB	0bH
	DB	0bH
	DB	0bH
	DB	0ffH
	DB	0bH
	DB	0bH
	DB	0bH
	DB	0ffH
	DB	0bH
	DB	0bH
	DB	0bH
	DB	0ffH
	DB	0bH
	DB	0bH
	DB	0bH
	DB	0ffH
	DB	0bH
	DB	0bH
	DB	0bH
	DB	0ffH
	DB	0bH
	DB	0bH
	DB	0bH
	DB	0ffH
	DB	0bH
	DB	0bH
	DB	0bH
	DB	0ffH
	DB	0bH
	DB	0bH
	DB	0bH
	DB	0ffH
	DB	0bH
	DB	0bH
	DB	0bH
	DB	0ffH
	DB	0bH
	DB	0bH
	DB	0bH
	DB	0ffH
	DB	0bH
	DB	0bH
	DB	0bH
	DB	0ffH
	DB	0bH
	DB	0bH
	DB	0bH
	DB	0ffH
	DB	028H
	DB	028H
	DB	028H
	DB	0ffH
	DB	056H
	DB	056H
	DB	056H
	DB	0ffH
	DB	056H
	DB	056H
	DB	056H
	DB	0fbH
	DB	056H
	DB	056H
	DB	056H
	DB	04aH
	DB	00H
	DB	00H
	DB	00H
	DB	00H
	DB	00H
	DB	00H
	DB	00H
	DB	00H
	DB	00H
	DB	00H
	DB	00H
	DB	00H
	DB	00H
	DB	00H
	DB	00H
	DB	00H
	DB	00H
	DB	00H
	DB	00H
	DB	00H
	DB	00H
	DB	00H
	DB	00H
	DB	00H
	DB	00H
	DB	00H
	DB	00H
	DB	00H
	DB	00H
	DB	00H
	DB	00H
	DB	00H
	DB	00H
	DB	00H
	DB	00H
	DB	00H
	DB	00H
	DB	00H
	DB	00H
	DB	00H
	DB	00H
	DB	00H
	DB	00H
	DB	00H
	DB	00H
	DB	00H
	DB	00H
	DB	00H
	DB	00H
	DB	00H
	DB	00H
	DB	00H
	DB	00H
	DB	00H
	DB	00H
	DB	00H
	DB	00H
	DB	00H
	DB	00H
	DB	00H
	DB	00H
	DB	00H
	DB	00H
	DB	00H
	DB	00H
	DB	00H
	DB	00H
	DB	00H
	DB	00H
	DB	00H
	DB	00H
	DB	00H
	DB	00H
	DB	00H
	DB	00H
	DB	00H
	DB	00H
	DB	00H
	DB	00H
	DB	00H
	DB	00H
	DB	00H
	DB	00H
	DB	00H
	DB	00H
	DB	00H
	DB	00H
	DB	00H
	DB	00H
	DB	00H
	DB	00H
	DB	00H
	DB	00H
	DB	00H
	DB	00H
	DB	00H
	DB	00H
	DB	00H
	DB	00H
	DB	00H
	DB	00H
	DB	00H
	DB	00H
	DB	00H
	DB	00H
	DB	00H
	DB	00H
	DB	00H
	DB	00H
	DB	00H
	DB	00H
	DB	00H
	DB	00H
	DB	00H
	DB	00H
	DB	00H
	DB	00H
	DB	00H
	DB	00H
	DB	00H
	DB	00H
	DB	00H
	DB	00H
	DB	00H
	DB	00H
	DB	00H
	DB	00H
	DB	00H
	DB	00H
	DB	00H
	DB	00H
	DB	00H
	DB	00H
	DB	00H
	DB	00H
	DB	00H
	DB	00H
	DB	00H
	DB	00H
	DB	00H
	DB	00H
	DB	00H
	DB	00H
	DB	00H
	DB	00H
	DB	00H
	DB	00H
	DB	00H
	DB	00H
	DB	00H
	DB	00H
	DB	00H
	DB	00H
	DB	00H
	DB	00H
	DB	00H
	DB	00H
	DB	00H
	DB	00H
	DB	00H
	DB	00H
	DB	00H
	DB	00H
	DB	00H
	DB	00H
	DB	00H
	DB	00H
	DB	00H
	DB	00H
	DB	00H
	DB	00H
	DB	00H
	DB	058H
	DB	058H
	DB	058H
	DB	034H
	DB	056H
	DB	056H
	DB	056H
	DB	0f4H
	DB	056H
	DB	056H
	DB	056H
	DB	0ffH
	DB	02fH
	DB	02fH
	DB	02fH
	DB	0ffH
	DB	0bH
	DB	0bH
	DB	0bH
	DB	0ffH
	DB	0bH
	DB	0bH
	DB	0bH
	DB	0ffH
	DB	0bH
	DB	0bH
	DB	0bH
	DB	0ffH
	DB	0bH
	DB	0bH
	DB	0bH
	DB	0ffH
	DB	0bH
	DB	0bH
	DB	0bH
	DB	0ffH
	DB	0bH
	DB	0bH
	DB	0bH
	DB	0ffH
	DB	0bH
	DB	0bH
	DB	0bH
	DB	0ffH
	DB	0bH
	DB	0bH
	DB	0bH
	DB	0ffH
	DB	0bH
	DB	0bH
	DB	0bH
	DB	0ffH
	DB	0bH
	DB	0bH
	DB	0bH
	DB	0ffH
	DB	0bH
	DB	0bH
	DB	0bH
	DB	0ffH
	DB	0bH
	DB	0bH
	DB	0bH
	DB	0ffH
	DB	0bH
	DB	0bH
	DB	0bH
	DB	0ffH
	DB	0bH
	DB	0bH
	DB	0bH
	DB	0ffH
	DB	0bH
	DB	0bH
	DB	0bH
	DB	0ffH
	DB	0bH
	DB	0bH
	DB	0bH
	DB	0ffH
	DB	0bH
	DB	0bH
	DB	0bH
	DB	0ffH
	DB	0bH
	DB	0bH
	DB	0bH
	DB	0ffH
	DB	0bH
	DB	0bH
	DB	0bH
	DB	0ffH
	DB	0bH
	DB	0bH
	DB	0bH
	DB	0ffH
	DB	0eH
	DB	0eH
	DB	0eH
	DB	0ffH
	DB	039H
	DB	039H
	DB	039H
	DB	0ffH
	DB	056H
	DB	056H
	DB	056H
	DB	0ffH
	DB	056H
	DB	056H
	DB	056H
	DB	0ffH
	DB	056H
	DB	056H
	DB	056H
	DB	0a6H
	DB	050H
	DB	050H
	DB	050H
	DB	010H
	DB	00H
	DB	00H
	DB	00H
	DB	00H
	DB	00H
	DB	00H
	DB	00H
	DB	00H
	DB	00H
	DB	00H
	DB	00H
	DB	00H
	DB	00H
	DB	00H
	DB	00H
	DB	00H
	DB	00H
	DB	00H
	DB	00H
	DB	00H
	DB	00H
	DB	00H
	DB	00H
	DB	00H
	DB	00H
	DB	00H
	DB	00H
	DB	00H
	DB	00H
	DB	00H
	DB	00H
	DB	00H
	DB	00H
	DB	00H
	DB	00H
	DB	00H
	DB	00H
	DB	00H
	DB	00H
	DB	00H
	DB	00H
	DB	00H
	DB	00H
	DB	00H
	DB	00H
	DB	00H
	DB	00H
	DB	00H
	DB	00H
	DB	00H
	DB	00H
	DB	00H
	DB	00H
	DB	00H
	DB	00H
	DB	00H
	DB	00H
	DB	00H
	DB	00H
	DB	00H
	DB	00H
	DB	00H
	DB	00H
	DB	00H
	DB	00H
	DB	00H
	DB	00H
	DB	00H
	DB	00H
	DB	00H
	DB	00H
	DB	00H
	DB	00H
	DB	00H
	DB	00H
	DB	00H
	DB	00H
	DB	00H
	DB	00H
	DB	00H
	DB	00H
	DB	00H
	DB	00H
	DB	00H
	DB	00H
	DB	00H
	DB	00H
	DB	00H
	DB	00H
	DB	00H
	DB	00H
	DB	00H
	DB	00H
	DB	00H
	DB	00H
	DB	00H
	DB	00H
	DB	00H
	DB	00H
	DB	00H
	DB	00H
	DB	00H
	DB	00H
	DB	00H
	DB	00H
	DB	00H
	DB	00H
	DB	00H
	DB	00H
	DB	00H
	DB	00H
	DB	00H
	DB	00H
	DB	00H
	DB	00H
	DB	00H
	DB	00H
	DB	00H
	DB	00H
	DB	00H
	DB	00H
	DB	00H
	DB	00H
	DB	00H
	DB	00H
	DB	00H
	DB	00H
	DB	00H
	DB	00H
	DB	00H
	DB	00H
	DB	00H
	DB	00H
	DB	00H
	DB	00H
	DB	00H
	DB	00H
	DB	00H
	DB	00H
	DB	00H
	DB	00H
	DB	00H
	DB	00H
	DB	00H
	DB	00H
	DB	00H
	DB	00H
	DB	00H
	DB	00H
	DB	00H
	DB	00H
	DB	00H
	DB	00H
	DB	00H
	DB	00H
	DB	00H
	DB	00H
	DB	00H
	DB	00H
	DB	00H
	DB	00H
	DB	00H
	DB	00H
	DB	00H
	DB	00H
	DB	00H
	DB	00H
	DB	00H
	DB	00H
	DB	00H
	DB	00H
	DB	00H
	DB	00H
	DB	00H
	DB	00H
	DB	00H
	DB	00H
	DB	00H
	DB	00H
	DB	00H
	DB	00H
	DB	00H
	DB	00H
	DB	00H
	DB	00H
	DB	00H
	DB	00H
	DB	00H
	DB	00H
	DB	00H
	DB	00H
	DB	00H
	DB	00H
	DB	00H
	DB	00H
	DB	00H
	DB	00H
	DB	00H
	DB	00H
	DB	00H
	DB	00H
	DB	00H
	DB	00H
	DB	00H
	DB	00H
	DB	00H
	DB	00H
	DB	00H
	DB	00H
	DB	00H
	DB	00H
	DB	00H
	DB	00H
	DB	00H
	DB	00H
	DB	00H
	DB	00H
	DB	00H
	DB	00H
	DB	00H
	DB	00H
	DB	00H
	DB	00H
	DB	00H
	DB	00H
	DB	00H
	DB	00H
	DB	00H
	DB	00H
	DB	00H
	DB	00H
	DB	00H
	DB	00H
	DB	00H
	DB	00H
	DB	00H
	DB	00H
	DB	00H
	DB	00H
	DB	00H
	DB	00H
	DB	00H
	DB	00H
	DB	00H
	DB	00H
	DB	00H
	DB	00H
	DB	00H
	DB	00H
	DB	00H
	DB	00H
	DB	00H
	DB	00H
	DB	00H
	DB	00H
	DB	00H
	DB	00H
	DB	00H
	DB	00H
	DB	00H
	DB	00H
	DB	00H
	DB	00H
	DB	00H
	DB	00H
	DB	00H
	DB	00H
	DB	00H
	DB	00H
	DB	00H
	DB	00H
	DB	00H
	DB	00H
	DB	00H
	DB	00H
	DB	00H
	DB	00H
	DB	00H
	DB	00H
	DB	00H
	DB	00H
	DB	00H
	DB	00H
	DB	00H
	DB	00H
	DB	00H
	DB	00H
	DB	00H
	DB	00H
	DB	00H
	DB	00H
	DB	00H
	DB	00H
	DB	00H
	DB	00H
	DB	00H
	DB	00H
	DB	00H
	DB	00H
	DB	00H
	DB	00H
	DB	00H
	DB	00H
	DB	00H
	DB	00H
	DB	00H
	DB	00H
	DB	00H
	DB	00H
	DB	00H
	DB	00H
	DB	00H
	DB	00H
	DB	00H
	DB	00H
	DB	00H
	DB	00H
	DB	00H
	DB	00H
	DB	00H
	DB	00H
	DB	00H
	DB	00H
	DB	00H
	DB	00H
	DB	00H
	DB	00H
	DB	00H
	DB	05aH
	DB	05aH
	DB	05aH
	DB	011H
	DB	056H
	DB	056H
	DB	056H
	DB	0a9H
	DB	056H
	DB	056H
	DB	056H
	DB	0ffH
	DB	056H
	DB	056H
	DB	056H
	DB	0ffH
	DB	03bH
	DB	03bH
	DB	03bH
	DB	0ffH
	DB	0eH
	DB	0eH
	DB	0eH
	DB	0ffH
	DB	0bH
	DB	0bH
	DB	0bH
	DB	0ffH
	DB	0bH
	DB	0bH
	DB	0bH
	DB	0ffH
	DB	0bH
	DB	0bH
	DB	0bH
	DB	0ffH
	DB	0bH
	DB	0bH
	DB	0bH
	DB	0ffH
	DB	0bH
	DB	0bH
	DB	0bH
	DB	0ffH
	DB	0bH
	DB	0bH
	DB	0bH
	DB	0ffH
	DB	0bH
	DB	0bH
	DB	0bH
	DB	0ffH
	DB	0bH
	DB	0bH
	DB	0bH
	DB	0ffH
	DB	0bH
	DB	0bH
	DB	0bH
	DB	0ffH
	DB	0bH
	DB	0bH
	DB	0bH
	DB	0ffH
	DB	0bH
	DB	0bH
	DB	0bH
	DB	0ffH
	DB	0bH
	DB	0bH
	DB	0bH
	DB	0ffH
	DB	0bH
	DB	0bH
	DB	0bH
	DB	0ffH
	DB	0bH
	DB	0bH
	DB	0bH
	DB	0ffH
	DB	0bH
	DB	0bH
	DB	0bH
	DB	0ffH
	DB	0bH
	DB	0bH
	DB	0bH
	DB	0ffH
	DB	0bH
	DB	0bH
	DB	0bH
	DB	0ffH
	DB	0bH
	DB	0bH
	DB	0bH
	DB	0ffH
	DB	0bH
	DB	0bH
	DB	0bH
	DB	0ffH
	DB	0bH
	DB	0bH
	DB	0bH
	DB	0ffH
	DB	030H
	DB	030H
	DB	030H
	DB	0ffH
	DB	056H
	DB	056H
	DB	056H
	DB	0ffH
	DB	056H
	DB	056H
	DB	056H
	DB	0f3H
	DB	058H
	DB	058H
	DB	058H
	DB	031H
	DB	00H
	DB	00H
	DB	00H
	DB	00H
	DB	00H
	DB	00H
	DB	00H
	DB	00H
	DB	00H
	DB	00H
	DB	00H
	DB	00H
	DB	00H
	DB	00H
	DB	00H
	DB	00H
	DB	00H
	DB	00H
	DB	00H
	DB	00H
	DB	00H
	DB	00H
	DB	00H
	DB	00H
	DB	00H
	DB	00H
	DB	00H
	DB	00H
	DB	00H
	DB	00H
	DB	00H
	DB	00H
	DB	00H
	DB	00H
	DB	00H
	DB	00H
	DB	00H
	DB	00H
	DB	00H
	DB	00H
	DB	00H
	DB	00H
	DB	00H
	DB	00H
	DB	00H
	DB	00H
	DB	00H
	DB	00H
	DB	00H
	DB	00H
	DB	00H
	DB	00H
	DB	00H
	DB	00H
	DB	00H
	DB	00H
	DB	00H
	DB	00H
	DB	00H
	DB	00H
	DB	00H
	DB	00H
	DB	00H
	DB	00H
	DB	00H
	DB	00H
	DB	00H
	DB	00H
	DB	00H
	DB	00H
	DB	00H
	DB	00H
	DB	00H
	DB	00H
	DB	00H
	DB	00H
	DB	00H
	DB	00H
	DB	00H
	DB	00H
	DB	00H
	DB	00H
	DB	00H
	DB	00H
	DB	00H
	DB	00H
	DB	00H
	DB	00H
	DB	00H
	DB	00H
	DB	00H
	DB	00H
	DB	00H
	DB	00H
	DB	00H
	DB	00H
	DB	00H
	DB	00H
	DB	00H
	DB	00H
	DB	00H
	DB	00H
	DB	00H
	DB	00H
	DB	00H
	DB	00H
	DB	00H
	DB	00H
	DB	00H
	DB	00H
	DB	00H
	DB	00H
	DB	00H
	DB	00H
	DB	00H
	DB	00H
	DB	00H
	DB	00H
	DB	00H
	DB	00H
	DB	00H
	DB	00H
	DB	00H
	DB	00H
	DB	00H
	DB	00H
	DB	00H
	DB	00H
	DB	00H
	DB	00H
	DB	00H
	DB	00H
	DB	00H
	DB	00H
	DB	00H
	DB	00H
	DB	00H
	DB	00H
	DB	00H
	DB	00H
	DB	00H
	DB	00H
	DB	00H
	DB	00H
	DB	00H
	DB	00H
	DB	00H
	DB	00H
	DB	00H
	DB	00H
	DB	00H
	DB	00H
	DB	00H
	DB	00H
	DB	00H
	DB	00H
	DB	00H
	DB	00H
	DB	00H
	DB	00H
	DB	00H
	DB	00H
	DB	00H
	DB	00H
	DB	052H
	DB	052H
	DB	052H
	DB	01cH
	DB	056H
	DB	056H
	DB	056H
	DB	0e7H
	DB	056H
	DB	056H
	DB	056H
	DB	0ffH
	DB	039H
	DB	039H
	DB	039H
	DB	0ffH
	DB	0bH
	DB	0bH
	DB	0bH
	DB	0ffH
	DB	0bH
	DB	0bH
	DB	0bH
	DB	0ffH
	DB	0bH
	DB	0bH
	DB	0bH
	DB	0ffH
	DB	0bH
	DB	0bH
	DB	0bH
	DB	0ffH
	DB	0bH
	DB	0bH
	DB	0bH
	DB	0ffH
	DB	0bH
	DB	0bH
	DB	0bH
	DB	0ffH
	DB	0bH
	DB	0bH
	DB	0bH
	DB	0ffH
	DB	0bH
	DB	0bH
	DB	0bH
	DB	0ffH
	DB	0bH
	DB	0bH
	DB	0bH
	DB	0ffH
	DB	0bH
	DB	0bH
	DB	0bH
	DB	0ffH
	DB	0bH
	DB	0bH
	DB	0bH
	DB	0ffH
	DB	0bH
	DB	0bH
	DB	0bH
	DB	0ffH
	DB	0bH
	DB	0bH
	DB	0bH
	DB	0ffH
	DB	0bH
	DB	0bH
	DB	0bH
	DB	0ffH
	DB	0bH
	DB	0bH
	DB	0bH
	DB	0ffH
	DB	0bH
	DB	0bH
	DB	0bH
	DB	0ffH
	DB	0bH
	DB	0bH
	DB	0bH
	DB	0ffH
	DB	0bH
	DB	0bH
	DB	0bH
	DB	0ffH
	DB	0bH
	DB	0bH
	DB	0bH
	DB	0ffH
	DB	0bH
	DB	0bH
	DB	0bH
	DB	0ffH
	DB	014H
	DB	014H
	DB	014H
	DB	0ffH
	DB	046H
	DB	046H
	DB	046H
	DB	0ffH
	DB	056H
	DB	056H
	DB	056H
	DB	0ffH
	DB	056H
	DB	056H
	DB	056H
	DB	0f4H
	DB	055H
	DB	055H
	DB	055H
	DB	05dH
	DB	00H
	DB	00H
	DB	00H
	DB	00H
	DB	00H
	DB	00H
	DB	00H
	DB	00H
	DB	00H
	DB	00H
	DB	00H
	DB	00H
	DB	00H
	DB	00H
	DB	00H
	DB	00H
	DB	00H
	DB	00H
	DB	00H
	DB	00H
	DB	00H
	DB	00H
	DB	00H
	DB	00H
	DB	00H
	DB	00H
	DB	00H
	DB	00H
	DB	00H
	DB	00H
	DB	00H
	DB	00H
	DB	00H
	DB	00H
	DB	00H
	DB	00H
	DB	00H
	DB	00H
	DB	00H
	DB	00H
	DB	00H
	DB	00H
	DB	00H
	DB	00H
	DB	00H
	DB	00H
	DB	00H
	DB	00H
	DB	00H
	DB	00H
	DB	00H
	DB	00H
	DB	00H
	DB	00H
	DB	00H
	DB	00H
	DB	00H
	DB	00H
	DB	00H
	DB	00H
	DB	00H
	DB	00H
	DB	00H
	DB	00H
	DB	00H
	DB	00H
	DB	00H
	DB	00H
	DB	00H
	DB	00H
	DB	00H
	DB	00H
	DB	00H
	DB	00H
	DB	00H
	DB	00H
	DB	00H
	DB	00H
	DB	00H
	DB	00H
	DB	00H
	DB	00H
	DB	00H
	DB	00H
	DB	00H
	DB	00H
	DB	00H
	DB	00H
	DB	00H
	DB	00H
	DB	00H
	DB	00H
	DB	00H
	DB	00H
	DB	00H
	DB	00H
	DB	00H
	DB	00H
	DB	00H
	DB	00H
	DB	00H
	DB	00H
	DB	00H
	DB	00H
	DB	00H
	DB	00H
	DB	00H
	DB	00H
	DB	00H
	DB	00H
	DB	00H
	DB	00H
	DB	00H
	DB	00H
	DB	00H
	DB	00H
	DB	00H
	DB	00H
	DB	00H
	DB	00H
	DB	00H
	DB	00H
	DB	00H
	DB	00H
	DB	00H
	DB	00H
	DB	00H
	DB	00H
	DB	00H
	DB	00H
	DB	00H
	DB	00H
	DB	00H
	DB	00H
	DB	00H
	DB	00H
	DB	00H
	DB	00H
	DB	00H
	DB	00H
	DB	00H
	DB	00H
	DB	00H
	DB	00H
	DB	00H
	DB	00H
	DB	00H
	DB	00H
	DB	00H
	DB	00H
	DB	00H
	DB	00H
	DB	00H
	DB	00H
	DB	00H
	DB	00H
	DB	00H
	DB	00H
	DB	00H
	DB	00H
	DB	00H
	DB	00H
	DB	00H
	DB	00H
	DB	00H
	DB	00H
	DB	00H
	DB	00H
	DB	00H
	DB	00H
	DB	00H
	DB	00H
	DB	00H
	DB	00H
	DB	00H
	DB	00H
	DB	00H
	DB	00H
	DB	00H
	DB	00H
	DB	00H
	DB	00H
	DB	00H
	DB	00H
	DB	00H
	DB	00H
	DB	00H
	DB	00H
	DB	00H
	DB	00H
	DB	00H
	DB	00H
	DB	00H
	DB	00H
	DB	00H
	DB	00H
	DB	00H
	DB	00H
	DB	00H
	DB	00H
	DB	00H
	DB	00H
	DB	00H
	DB	00H
	DB	00H
	DB	00H
	DB	00H
	DB	00H
	DB	00H
	DB	00H
	DB	00H
	DB	00H
	DB	00H
	DB	00H
	DB	00H
	DB	00H
	DB	00H
	DB	00H
	DB	00H
	DB	00H
	DB	00H
	DB	00H
	DB	00H
	DB	00H
	DB	00H
	DB	00H
	DB	00H
	DB	00H
	DB	00H
	DB	00H
	DB	00H
	DB	00H
	DB	00H
	DB	00H
	DB	00H
	DB	00H
	DB	00H
	DB	00H
	DB	00H
	DB	00H
	DB	00H
	DB	00H
	DB	00H
	DB	00H
	DB	00H
	DB	00H
	DB	00H
	DB	00H
	DB	00H
	DB	00H
	DB	00H
	DB	00H
	DB	00H
	DB	00H
	DB	00H
	DB	00H
	DB	00H
	DB	00H
	DB	00H
	DB	00H
	DB	00H
	DB	00H
	DB	00H
	DB	00H
	DB	00H
	DB	00H
	DB	00H
	DB	00H
	DB	00H
	DB	00H
	DB	00H
	DB	00H
	DB	00H
	DB	00H
	DB	00H
	DB	00H
	DB	00H
	DB	00H
	DB	00H
	DB	00H
	DB	00H
	DB	00H
	DB	00H
	DB	00H
	DB	00H
	DB	00H
	DB	00H
	DB	00H
	DB	00H
	DB	00H
	DB	00H
	DB	00H
	DB	00H
	DB	00H
	DB	00H
	DB	00H
	DB	00H
	DB	00H
	DB	00H
	DB	00H
	DB	00H
	DB	00H
	DB	00H
	DB	00H
	DB	00H
	DB	00H
	DB	00H
	DB	00H
	DB	00H
	DB	00H
	DB	00H
	DB	00H
	DB	00H
	DB	00H
	DB	00H
	DB	00H
	DB	00H
	DB	00H
	DB	00H
	DB	00H
	DB	00H
	DB	00H
	DB	00H
	DB	00H
	DB	00H
	DB	00H
	DB	00H
	DB	00H
	DB	00H
	DB	00H
	DB	00H
	DB	00H
	DB	00H
	DB	00H
	DB	00H
	DB	00H
	DB	00H
	DB	00H
	DB	00H
	DB	00H
	DB	00H
	DB	00H
	DB	00H
	DB	00H
	DB	057H
	DB	057H
	DB	057H
	DB	061H
	DB	056H
	DB	056H
	DB	056H
	DB	0f5H
	DB	056H
	DB	056H
	DB	056H
	DB	0ffH
	DB	047H
	DB	047H
	DB	047H
	DB	0ffH
	DB	015H
	DB	015H
	DB	015H
	DB	0ffH
	DB	0bH
	DB	0bH
	DB	0bH
	DB	0ffH
	DB	0bH
	DB	0bH
	DB	0bH
	DB	0ffH
	DB	0bH
	DB	0bH
	DB	0bH
	DB	0ffH
	DB	0bH
	DB	0bH
	DB	0bH
	DB	0ffH
	DB	0bH
	DB	0bH
	DB	0bH
	DB	0ffH
	DB	0bH
	DB	0bH
	DB	0bH
	DB	0ffH
	DB	0bH
	DB	0bH
	DB	0bH
	DB	0ffH
	DB	0bH
	DB	0bH
	DB	0bH
	DB	0ffH
	DB	0bH
	DB	0bH
	DB	0bH
	DB	0ffH
	DB	0bH
	DB	0bH
	DB	0bH
	DB	0ffH
	DB	0bH
	DB	0bH
	DB	0bH
	DB	0ffH
	DB	0bH
	DB	0bH
	DB	0bH
	DB	0ffH
	DB	0bH
	DB	0bH
	DB	0bH
	DB	0ffH
	DB	0bH
	DB	0bH
	DB	0bH
	DB	0ffH
	DB	0bH
	DB	0bH
	DB	0bH
	DB	0ffH
	DB	0bH
	DB	0bH
	DB	0bH
	DB	0ffH
	DB	0bH
	DB	0bH
	DB	0bH
	DB	0ffH
	DB	0bH
	DB	0bH
	DB	0bH
	DB	0ffH
	DB	0bH
	DB	0bH
	DB	0bH
	DB	0ffH
	DB	0bH
	DB	0bH
	DB	0bH
	DB	0ffH
	DB	03aH
	DB	03aH
	DB	03aH
	DB	0ffH
	DB	056H
	DB	056H
	DB	056H
	DB	0ffH
	DB	056H
	DB	056H
	DB	056H
	DB	0e4H
	DB	058H
	DB	058H
	DB	058H
	DB	01aH
	DB	00H
	DB	00H
	DB	00H
	DB	00H
	DB	00H
	DB	00H
	DB	00H
	DB	00H
	DB	00H
	DB	00H
	DB	00H
	DB	00H
	DB	00H
	DB	00H
	DB	00H
	DB	00H
	DB	00H
	DB	00H
	DB	00H
	DB	00H
	DB	00H
	DB	00H
	DB	00H
	DB	00H
	DB	00H
	DB	00H
	DB	00H
	DB	00H
	DB	00H
	DB	00H
	DB	00H
	DB	00H
	DB	00H
	DB	00H
	DB	00H
	DB	00H
	DB	00H
	DB	00H
	DB	00H
	DB	00H
	DB	00H
	DB	00H
	DB	00H
	DB	00H
	DB	00H
	DB	00H
	DB	00H
	DB	00H
	DB	00H
	DB	00H
	DB	00H
	DB	00H
	DB	00H
	DB	00H
	DB	00H
	DB	00H
	DB	00H
	DB	00H
	DB	00H
	DB	00H
	DB	00H
	DB	00H
	DB	00H
	DB	00H
	DB	00H
	DB	00H
	DB	00H
	DB	00H
	DB	00H
	DB	00H
	DB	00H
	DB	00H
	DB	00H
	DB	00H
	DB	00H
	DB	00H
	DB	00H
	DB	00H
	DB	00H
	DB	00H
	DB	00H
	DB	00H
	DB	00H
	DB	00H
	DB	00H
	DB	00H
	DB	00H
	DB	00H
	DB	00H
	DB	00H
	DB	00H
	DB	00H
	DB	00H
	DB	00H
	DB	00H
	DB	00H
	DB	00H
	DB	00H
	DB	00H
	DB	00H
	DB	00H
	DB	00H
	DB	00H
	DB	00H
	DB	00H
	DB	00H
	DB	00H
	DB	00H
	DB	00H
	DB	00H
	DB	00H
	DB	00H
	DB	00H
	DB	00H
	DB	00H
	DB	00H
	DB	00H
	DB	00H
	DB	00H
	DB	00H
	DB	00H
	DB	00H
	DB	00H
	DB	00H
	DB	00H
	DB	00H
	DB	00H
	DB	00H
	DB	00H
	DB	00H
	DB	00H
	DB	00H
	DB	00H
	DB	00H
	DB	00H
	DB	00H
	DB	00H
	DB	00H
	DB	00H
	DB	00H
	DB	00H
	DB	00H
	DB	00H
	DB	00H
	DB	00H
	DB	00H
	DB	00H
	DB	00H
	DB	00H
	DB	00H
	DB	00H
	DB	00H
	DB	00H
	DB	00H
	DB	00H
	DB	00H
	DB	066H
	DB	066H
	DB	066H
	DB	05H
	DB	056H
	DB	056H
	DB	056H
	DB	0c4H
	DB	056H
	DB	056H
	DB	056H
	DB	0ffH
	DB	042H
	DB	042H
	DB	042H
	DB	0ffH
	DB	0dH
	DB	0dH
	DB	0dH
	DB	0ffH
	DB	0bH
	DB	0bH
	DB	0bH
	DB	0ffH
	DB	0bH
	DB	0bH
	DB	0bH
	DB	0ffH
	DB	0bH
	DB	0bH
	DB	0bH
	DB	0ffH
	DB	0bH
	DB	0bH
	DB	0bH
	DB	0ffH
	DB	0bH
	DB	0bH
	DB	0bH
	DB	0ffH
	DB	0bH
	DB	0bH
	DB	0bH
	DB	0ffH
	DB	0bH
	DB	0bH
	DB	0bH
	DB	0ffH
	DB	0bH
	DB	0bH
	DB	0bH
	DB	0ffH
	DB	0bH
	DB	0bH
	DB	0bH
	DB	0ffH
	DB	0bH
	DB	0bH
	DB	0bH
	DB	0ffH
	DB	0bH
	DB	0bH
	DB	0bH
	DB	0ffH
	DB	0bH
	DB	0bH
	DB	0bH
	DB	0ffH
	DB	0bH
	DB	0bH
	DB	0bH
	DB	0ffH
	DB	0bH
	DB	0bH
	DB	0bH
	DB	0ffH
	DB	0bH
	DB	0bH
	DB	0bH
	DB	0ffH
	DB	0bH
	DB	0bH
	DB	0bH
	DB	0ffH
	DB	0bH
	DB	0bH
	DB	0bH
	DB	0ffH
	DB	0bH
	DB	0bH
	DB	0bH
	DB	0ffH
	DB	0bH
	DB	0bH
	DB	0bH
	DB	0ffH
	DB	01cH
	DB	01cH
	DB	01cH
	DB	0ffH
	DB	050H
	DB	050H
	DB	050H
	DB	0ffH
	DB	056H
	DB	056H
	DB	056H
	DB	0ffH
	DB	056H
	DB	056H
	DB	056H
	DB	0dbH
	DB	055H
	DB	055H
	DB	055H
	DB	02dH
	DB	00H
	DB	00H
	DB	00H
	DB	00H
	DB	00H
	DB	00H
	DB	00H
	DB	00H
	DB	00H
	DB	00H
	DB	00H
	DB	00H
	DB	00H
	DB	00H
	DB	00H
	DB	00H
	DB	00H
	DB	00H
	DB	00H
	DB	00H
	DB	00H
	DB	00H
	DB	00H
	DB	00H
	DB	00H
	DB	00H
	DB	00H
	DB	00H
	DB	00H
	DB	00H
	DB	00H
	DB	00H
	DB	00H
	DB	00H
	DB	00H
	DB	00H
	DB	00H
	DB	00H
	DB	00H
	DB	00H
	DB	00H
	DB	00H
	DB	00H
	DB	00H
	DB	00H
	DB	00H
	DB	00H
	DB	00H
	DB	00H
	DB	00H
	DB	00H
	DB	00H
	DB	00H
	DB	00H
	DB	00H
	DB	00H
	DB	00H
	DB	00H
	DB	00H
	DB	00H
	DB	00H
	DB	00H
	DB	00H
	DB	00H
	DB	00H
	DB	00H
	DB	00H
	DB	00H
	DB	00H
	DB	00H
	DB	00H
	DB	00H
	DB	00H
	DB	00H
	DB	00H
	DB	00H
	DB	00H
	DB	00H
	DB	00H
	DB	00H
	DB	00H
	DB	00H
	DB	00H
	DB	00H
	DB	00H
	DB	00H
	DB	00H
	DB	00H
	DB	00H
	DB	00H
	DB	00H
	DB	00H
	DB	00H
	DB	00H
	DB	00H
	DB	00H
	DB	00H
	DB	00H
	DB	00H
	DB	00H
	DB	00H
	DB	00H
	DB	00H
	DB	00H
	DB	00H
	DB	00H
	DB	00H
	DB	00H
	DB	00H
	DB	00H
	DB	00H
	DB	00H
	DB	00H
	DB	00H
	DB	00H
	DB	00H
	DB	00H
	DB	00H
	DB	00H
	DB	00H
	DB	00H
	DB	00H
	DB	00H
	DB	00H
	DB	00H
	DB	00H
	DB	00H
	DB	00H
	DB	00H
	DB	00H
	DB	00H
	DB	00H
	DB	00H
	DB	00H
	DB	00H
	DB	00H
	DB	00H
	DB	00H
	DB	00H
	DB	00H
	DB	00H
	DB	00H
	DB	00H
	DB	00H
	DB	00H
	DB	00H
	DB	00H
	DB	00H
	DB	00H
	DB	00H
	DB	00H
	DB	00H
	DB	00H
	DB	00H
	DB	00H
	DB	00H
	DB	00H
	DB	00H
	DB	00H
	DB	00H
	DB	00H
	DB	00H
	DB	00H
	DB	00H
	DB	00H
	DB	00H
	DB	00H
	DB	00H
	DB	00H
	DB	00H
	DB	00H
	DB	00H
	DB	00H
	DB	00H
	DB	00H
	DB	00H
	DB	00H
	DB	00H
	DB	00H
	DB	00H
	DB	00H
	DB	00H
	DB	00H
	DB	00H
	DB	00H
	DB	00H
	DB	00H
	DB	00H
	DB	00H
	DB	00H
	DB	00H
	DB	00H
	DB	00H
	DB	00H
	DB	00H
	DB	00H
	DB	00H
	DB	00H
	DB	00H
	DB	00H
	DB	00H
	DB	00H
	DB	00H
	DB	00H
	DB	00H
	DB	00H
	DB	00H
	DB	00H
	DB	00H
	DB	00H
	DB	00H
	DB	00H
	DB	00H
	DB	00H
	DB	00H
	DB	00H
	DB	00H
	DB	00H
	DB	00H
	DB	00H
	DB	00H
	DB	00H
	DB	00H
	DB	00H
	DB	00H
	DB	00H
	DB	00H
	DB	00H
	DB	00H
	DB	00H
	DB	00H
	DB	00H
	DB	00H
	DB	00H
	DB	00H
	DB	00H
	DB	00H
	DB	00H
	DB	00H
	DB	00H
	DB	00H
	DB	00H
	DB	00H
	DB	00H
	DB	00H
	DB	00H
	DB	00H
	DB	00H
	DB	00H
	DB	00H
	DB	00H
	DB	00H
	DB	00H
	DB	00H
	DB	00H
	DB	00H
	DB	00H
	DB	00H
	DB	00H
	DB	00H
	DB	00H
	DB	00H
	DB	00H
	DB	00H
	DB	00H
	DB	00H
	DB	00H
	DB	00H
	DB	00H
	DB	00H
	DB	00H
	DB	00H
	DB	00H
	DB	00H
	DB	00H
	DB	00H
	DB	00H
	DB	00H
	DB	00H
	DB	00H
	DB	00H
	DB	00H
	DB	00H
	DB	00H
	DB	00H
	DB	00H
	DB	00H
	DB	00H
	DB	00H
	DB	00H
	DB	00H
	DB	00H
	DB	00H
	DB	00H
	DB	00H
	DB	00H
	DB	00H
	DB	00H
	DB	00H
	DB	00H
	DB	00H
	DB	00H
	DB	00H
	DB	00H
	DB	00H
	DB	00H
	DB	00H
	DB	00H
	DB	00H
	DB	00H
	DB	00H
	DB	00H
	DB	00H
	DB	00H
	DB	00H
	DB	00H
	DB	00H
	DB	00H
	DB	00H
	DB	00H
	DB	00H
	DB	00H
	DB	00H
	DB	00H
	DB	00H
	DB	00H
	DB	00H
	DB	00H
	DB	00H
	DB	00H
	DB	00H
	DB	00H
	DB	00H
	DB	00H
	DB	00H
	DB	00H
	DB	00H
	DB	00H
	DB	00H
	DB	00H
	DB	00H
	DB	00H
	DB	00H
	DB	00H
	DB	00H
	DB	00H
	DB	00H
	DB	00H
	DB	00H
	DB	00H
	DB	00H
	DB	00H
	DB	057H
	DB	057H
	DB	057H
	DB	02fH
	DB	056H
	DB	056H
	DB	056H
	DB	0dcH
	DB	056H
	DB	056H
	DB	056H
	DB	0ffH
	DB	050H
	DB	050H
	DB	050H
	DB	0ffH
	DB	01cH
	DB	01cH
	DB	01cH
	DB	0ffH
	DB	0bH
	DB	0bH
	DB	0bH
	DB	0ffH
	DB	0bH
	DB	0bH
	DB	0bH
	DB	0ffH
	DB	0bH
	DB	0bH
	DB	0bH
	DB	0ffH
	DB	0bH
	DB	0bH
	DB	0bH
	DB	0ffH
	DB	0bH
	DB	0bH
	DB	0bH
	DB	0ffH
	DB	0bH
	DB	0bH
	DB	0bH
	DB	0ffH
	DB	0bH
	DB	0bH
	DB	0bH
	DB	0ffH
	DB	0bH
	DB	0bH
	DB	0bH
	DB	0ffH
	DB	0bH
	DB	0bH
	DB	0bH
	DB	0ffH
	DB	0bH
	DB	0bH
	DB	0bH
	DB	0ffH
	DB	0bH
	DB	0bH
	DB	0bH
	DB	0ffH
	DB	0bH
	DB	0bH
	DB	0bH
	DB	0ffH
	DB	0bH
	DB	0bH
	DB	0bH
	DB	0ffH
	DB	0bH
	DB	0bH
	DB	0bH
	DB	0ffH
	DB	0bH
	DB	0bH
	DB	0bH
	DB	0ffH
	DB	0bH
	DB	0bH
	DB	0bH
	DB	0ffH
	DB	0bH
	DB	0bH
	DB	0bH
	DB	0ffH
	DB	0bH
	DB	0bH
	DB	0bH
	DB	0ffH
	DB	0bH
	DB	0bH
	DB	0bH
	DB	0ffH
	DB	0dH
	DB	0dH
	DB	0dH
	DB	0ffH
	DB	043H
	DB	043H
	DB	043H
	DB	0ffH
	DB	056H
	DB	056H
	DB	056H
	DB	0ffH
	DB	056H
	DB	056H
	DB	056H
	DB	0c7H
	DB	055H
	DB	055H
	DB	055H
	DB	06H
	DB	00H
	DB	00H
	DB	00H
	DB	00H
	DB	00H
	DB	00H
	DB	00H
	DB	00H
	DB	00H
	DB	00H
	DB	00H
	DB	00H
	DB	00H
	DB	00H
	DB	00H
	DB	00H
	DB	00H
	DB	00H
	DB	00H
	DB	00H
	DB	00H
	DB	00H
	DB	00H
	DB	00H
	DB	00H
	DB	00H
	DB	00H
	DB	00H
	DB	00H
	DB	00H
	DB	00H
	DB	00H
	DB	00H
	DB	00H
	DB	00H
	DB	00H
	DB	00H
	DB	00H
	DB	00H
	DB	00H
	DB	00H
	DB	00H
	DB	00H
	DB	00H
	DB	00H
	DB	00H
	DB	00H
	DB	00H
	DB	00H
	DB	00H
	DB	00H
	DB	00H
	DB	00H
	DB	00H
	DB	00H
	DB	00H
	DB	00H
	DB	00H
	DB	00H
	DB	00H
	DB	00H
	DB	00H
	DB	00H
	DB	00H
	DB	00H
	DB	00H
	DB	00H
	DB	00H
	DB	00H
	DB	00H
	DB	00H
	DB	00H
	DB	00H
	DB	00H
	DB	00H
	DB	00H
	DB	00H
	DB	00H
	DB	00H
	DB	00H
	DB	00H
	DB	00H
	DB	00H
	DB	00H
	DB	00H
	DB	00H
	DB	00H
	DB	00H
	DB	00H
	DB	00H
	DB	00H
	DB	00H
	DB	00H
	DB	00H
	DB	00H
	DB	00H
	DB	00H
	DB	00H
	DB	00H
	DB	00H
	DB	00H
	DB	00H
	DB	00H
	DB	00H
	DB	00H
	DB	00H
	DB	00H
	DB	00H
	DB	00H
	DB	00H
	DB	00H
	DB	00H
	DB	00H
	DB	00H
	DB	00H
	DB	00H
	DB	00H
	DB	00H
	DB	00H
	DB	00H
	DB	00H
	DB	00H
	DB	00H
	DB	00H
	DB	00H
	DB	00H
	DB	00H
	DB	00H
	DB	00H
	DB	00H
	DB	00H
	DB	00H
	DB	00H
	DB	00H
	DB	00H
	DB	00H
	DB	00H
	DB	00H
	DB	00H
	DB	00H
	DB	00H
	DB	00H
	DB	00H
	DB	00H
	DB	00H
	DB	00H
	DB	00H
	DB	00H
	DB	00H
	DB	00H
	DB	00H
	DB	00H
	DB	057H
	DB	057H
	DB	057H
	DB	099H
	DB	056H
	DB	056H
	DB	056H
	DB	0ffH
	DB	04dH
	DB	04dH
	DB	04dH
	DB	0ffH
	DB	011H
	DB	011H
	DB	011H
	DB	0ffH
	DB	0bH
	DB	0bH
	DB	0bH
	DB	0ffH
	DB	0bH
	DB	0bH
	DB	0bH
	DB	0ffH
	DB	0bH
	DB	0bH
	DB	0bH
	DB	0ffH
	DB	0bH
	DB	0bH
	DB	0bH
	DB	0ffH
	DB	0bH
	DB	0bH
	DB	0bH
	DB	0ffH
	DB	0bH
	DB	0bH
	DB	0bH
	DB	0ffH
	DB	0bH
	DB	0bH
	DB	0bH
	DB	0ffH
	DB	0bH
	DB	0bH
	DB	0bH
	DB	0ffH
	DB	0bH
	DB	0bH
	DB	0bH
	DB	0ffH
	DB	0bH
	DB	0bH
	DB	0bH
	DB	0ffH
	DB	0bH
	DB	0bH
	DB	0bH
	DB	0ffH
	DB	0bH
	DB	0bH
	DB	0bH
	DB	0ffH
	DB	0bH
	DB	0bH
	DB	0bH
	DB	0ffH
	DB	0bH
	DB	0bH
	DB	0bH
	DB	0ffH
	DB	0bH
	DB	0bH
	DB	0bH
	DB	0ffH
	DB	0bH
	DB	0bH
	DB	0bH
	DB	0ffH
	DB	0bH
	DB	0bH
	DB	0bH
	DB	0ffH
	DB	0bH
	DB	0bH
	DB	0bH
	DB	0ffH
	DB	0bH
	DB	0bH
	DB	0bH
	DB	0ffH
	DB	023H
	DB	023H
	DB	023H
	DB	0ffH
	DB	053H
	DB	053H
	DB	053H
	DB	0ffH
	DB	056H
	DB	056H
	DB	056H
	DB	0ffH
	DB	056H
	DB	056H
	DB	056H
	DB	0b5H
	DB	050H
	DB	050H
	DB	050H
	DB	010H
	DB	00H
	DB	00H
	DB	00H
	DB	00H
	DB	00H
	DB	00H
	DB	00H
	DB	00H
	DB	00H
	DB	00H
	DB	00H
	DB	00H
	DB	00H
	DB	00H
	DB	00H
	DB	00H
	DB	00H
	DB	00H
	DB	00H
	DB	00H
	DB	00H
	DB	00H
	DB	00H
	DB	00H
	DB	00H
	DB	00H
	DB	00H
	DB	00H
	DB	00H
	DB	00H
	DB	00H
	DB	00H
	DB	00H
	DB	00H
	DB	00H
	DB	00H
	DB	00H
	DB	00H
	DB	00H
	DB	00H
	DB	00H
	DB	00H
	DB	00H
	DB	00H
	DB	00H
	DB	00H
	DB	00H
	DB	00H
	DB	00H
	DB	00H
	DB	00H
	DB	00H
	DB	00H
	DB	00H
	DB	00H
	DB	00H
	DB	00H
	DB	00H
	DB	00H
	DB	00H
	DB	00H
	DB	00H
	DB	00H
	DB	00H
	DB	00H
	DB	00H
	DB	00H
	DB	00H
	DB	00H
	DB	00H
	DB	00H
	DB	00H
	DB	00H
	DB	00H
	DB	00H
	DB	00H
	DB	00H
	DB	00H
	DB	00H
	DB	00H
	DB	00H
	DB	00H
	DB	00H
	DB	00H
	DB	00H
	DB	00H
	DB	00H
	DB	00H
	DB	00H
	DB	00H
	DB	00H
	DB	00H
	DB	00H
	DB	00H
	DB	00H
	DB	00H
	DB	00H
	DB	00H
	DB	00H
	DB	00H
	DB	00H
	DB	00H
	DB	00H
	DB	00H
	DB	00H
	DB	00H
	DB	00H
	DB	00H
	DB	00H
	DB	00H
	DB	00H
	DB	00H
	DB	00H
	DB	00H
	DB	00H
	DB	00H
	DB	00H
	DB	00H
	DB	00H
	DB	00H
	DB	00H
	DB	00H
	DB	00H
	DB	00H
	DB	00H
	DB	00H
	DB	00H
	DB	00H
	DB	00H
	DB	00H
	DB	00H
	DB	00H
	DB	00H
	DB	00H
	DB	00H
	DB	00H
	DB	00H
	DB	00H
	DB	00H
	DB	00H
	DB	00H
	DB	00H
	DB	00H
	DB	00H
	DB	00H
	DB	00H
	DB	00H
	DB	00H
	DB	00H
	DB	00H
	DB	00H
	DB	00H
	DB	00H
	DB	00H
	DB	00H
	DB	00H
	DB	00H
	DB	00H
	DB	00H
	DB	00H
	DB	00H
	DB	00H
	DB	00H
	DB	00H
	DB	00H
	DB	00H
	DB	00H
	DB	00H
	DB	00H
	DB	00H
	DB	00H
	DB	00H
	DB	00H
	DB	00H
	DB	00H
	DB	00H
	DB	00H
	DB	00H
	DB	00H
	DB	00H
	DB	00H
	DB	00H
	DB	00H
	DB	00H
	DB	00H
	DB	00H
	DB	00H
	DB	00H
	DB	00H
	DB	00H
	DB	00H
	DB	00H
	DB	00H
	DB	00H
	DB	00H
	DB	00H
	DB	00H
	DB	00H
	DB	00H
	DB	00H
	DB	00H
	DB	00H
	DB	00H
	DB	00H
	DB	00H
	DB	00H
	DB	00H
	DB	00H
	DB	00H
	DB	00H
	DB	00H
	DB	00H
	DB	00H
	DB	00H
	DB	00H
	DB	00H
	DB	00H
	DB	00H
	DB	00H
	DB	00H
	DB	00H
	DB	00H
	DB	00H
	DB	00H
	DB	00H
	DB	00H
	DB	00H
	DB	00H
	DB	00H
	DB	00H
	DB	00H
	DB	00H
	DB	00H
	DB	00H
	DB	00H
	DB	00H
	DB	00H
	DB	00H
	DB	00H
	DB	00H
	DB	00H
	DB	00H
	DB	00H
	DB	00H
	DB	00H
	DB	00H
	DB	00H
	DB	00H
	DB	00H
	DB	00H
	DB	00H
	DB	00H
	DB	00H
	DB	00H
	DB	00H
	DB	00H
	DB	00H
	DB	00H
	DB	00H
	DB	00H
	DB	00H
	DB	00H
	DB	00H
	DB	00H
	DB	00H
	DB	00H
	DB	00H
	DB	00H
	DB	00H
	DB	00H
	DB	00H
	DB	00H
	DB	00H
	DB	00H
	DB	00H
	DB	00H
	DB	00H
	DB	00H
	DB	00H
	DB	00H
	DB	00H
	DB	00H
	DB	00H
	DB	00H
	DB	00H
	DB	00H
	DB	00H
	DB	00H
	DB	00H
	DB	00H
	DB	00H
	DB	00H
	DB	00H
	DB	00H
	DB	00H
	DB	00H
	DB	00H
	DB	00H
	DB	00H
	DB	00H
	DB	00H
	DB	00H
	DB	00H
	DB	00H
	DB	00H
	DB	00H
	DB	00H
	DB	00H
	DB	00H
	DB	00H
	DB	00H
	DB	00H
	DB	00H
	DB	00H
	DB	00H
	DB	00H
	DB	00H
	DB	00H
	DB	00H
	DB	00H
	DB	00H
	DB	00H
	DB	00H
	DB	00H
	DB	00H
	DB	00H
	DB	00H
	DB	00H
	DB	00H
	DB	00H
	DB	00H
	DB	00H
	DB	00H
	DB	00H
	DB	00H
	DB	00H
	DB	00H
	DB	00H
	DB	00H
	DB	00H
	DB	00H
	DB	00H
	DB	00H
	DB	00H
	DB	00H
	DB	00H
	DB	00H
	DB	00H
	DB	00H
	DB	00H
	DB	00H
	DB	00H
	DB	00H
	DB	00H
	DB	00H
	DB	00H
	DB	00H
	DB	00H
	DB	00H
	DB	00H
	DB	05aH
	DB	05aH
	DB	05aH
	DB	011H
	DB	056H
	DB	056H
	DB	056H
	DB	0b7H
	DB	056H
	DB	056H
	DB	056H
	DB	0ffH
	DB	054H
	DB	054H
	DB	054H
	DB	0ffH
	DB	025H
	DB	025H
	DB	025H
	DB	0ffH
	DB	0bH
	DB	0bH
	DB	0bH
	DB	0ffH
	DB	0bH
	DB	0bH
	DB	0bH
	DB	0ffH
	DB	0bH
	DB	0bH
	DB	0bH
	DB	0ffH
	DB	0bH
	DB	0bH
	DB	0bH
	DB	0ffH
	DB	0bH
	DB	0bH
	DB	0bH
	DB	0ffH
	DB	0bH
	DB	0bH
	DB	0bH
	DB	0ffH
	DB	0bH
	DB	0bH
	DB	0bH
	DB	0ffH
	DB	0bH
	DB	0bH
	DB	0bH
	DB	0ffH
	DB	0bH
	DB	0bH
	DB	0bH
	DB	0ffH
	DB	0bH
	DB	0bH
	DB	0bH
	DB	0ffH
	DB	0bH
	DB	0bH
	DB	0bH
	DB	0ffH
	DB	0bH
	DB	0bH
	DB	0bH
	DB	0ffH
	DB	0bH
	DB	0bH
	DB	0bH
	DB	0ffH
	DB	0bH
	DB	0bH
	DB	0bH
	DB	0ffH
	DB	0bH
	DB	0bH
	DB	0bH
	DB	0ffH
	DB	0bH
	DB	0bH
	DB	0bH
	DB	0ffH
	DB	0bH
	DB	0bH
	DB	0bH
	DB	0ffH
	DB	0bH
	DB	0bH
	DB	0bH
	DB	0ffH
	DB	0bH
	DB	0bH
	DB	0bH
	DB	0ffH
	DB	010H
	DB	010H
	DB	010H
	DB	0ffH
	DB	04cH
	DB	04cH
	DB	04cH
	DB	0ffH
	DB	056H
	DB	056H
	DB	056H
	DB	0ffH
	DB	057H
	DB	057H
	DB	057H
	DB	093H
	DB	00H
	DB	00H
	DB	00H
	DB	00H
	DB	00H
	DB	00H
	DB	00H
	DB	00H
	DB	00H
	DB	00H
	DB	00H
	DB	00H
	DB	00H
	DB	00H
	DB	00H
	DB	00H
	DB	00H
	DB	00H
	DB	00H
	DB	00H
	DB	00H
	DB	00H
	DB	00H
	DB	00H
	DB	00H
	DB	00H
	DB	00H
	DB	00H
	DB	00H
	DB	00H
	DB	00H
	DB	00H
	DB	00H
	DB	00H
	DB	00H
	DB	00H
	DB	00H
	DB	00H
	DB	00H
	DB	00H
	DB	00H
	DB	00H
	DB	00H
	DB	00H
	DB	00H
	DB	00H
	DB	00H
	DB	00H
	DB	00H
	DB	00H
	DB	00H
	DB	00H
	DB	00H
	DB	00H
	DB	00H
	DB	00H
	DB	00H
	DB	00H
	DB	00H
	DB	00H
	DB	00H
	DB	00H
	DB	00H
	DB	00H
	DB	00H
	DB	00H
	DB	00H
	DB	00H
	DB	00H
	DB	00H
	DB	00H
	DB	00H
	DB	00H
	DB	00H
	DB	00H
	DB	00H
	DB	00H
	DB	00H
	DB	00H
	DB	00H
	DB	00H
	DB	00H
	DB	00H
	DB	00H
	DB	00H
	DB	00H
	DB	00H
	DB	00H
	DB	00H
	DB	00H
	DB	00H
	DB	00H
	DB	00H
	DB	00H
	DB	00H
	DB	00H
	DB	00H
	DB	00H
	DB	00H
	DB	00H
	DB	00H
	DB	00H
	DB	00H
	DB	00H
	DB	00H
	DB	00H
	DB	00H
	DB	00H
	DB	00H
	DB	00H
	DB	00H
	DB	00H
	DB	00H
	DB	00H
	DB	00H
	DB	00H
	DB	00H
	DB	00H
	DB	00H
	DB	00H
	DB	00H
	DB	00H
	DB	00H
	DB	00H
	DB	00H
	DB	00H
	DB	00H
	DB	00H
	DB	00H
	DB	00H
	DB	00H
	DB	00H
	DB	00H
	DB	00H
	DB	00H
	DB	00H
	DB	00H
	DB	00H
	DB	00H
	DB	00H
	DB	00H
	DB	00H
	DB	00H
	DB	00H
	DB	00H
	DB	00H
	DB	00H
	DB	00H
	DB	056H
	DB	056H
	DB	056H
	DB	062H
	DB	056H
	DB	056H
	DB	056H
	DB	0ffH
	DB	053H
	DB	053H
	DB	053H
	DB	0ffH
	DB	01aH
	DB	01aH
	DB	01aH
	DB	0ffH
	DB	0bH
	DB	0bH
	DB	0bH
	DB	0ffH
	DB	0bH
	DB	0bH
	DB	0bH
	DB	0ffH
	DB	0bH
	DB	0bH
	DB	0bH
	DB	0ffH
	DB	0bH
	DB	0bH
	DB	0bH
	DB	0ffH
	DB	0bH
	DB	0bH
	DB	0bH
	DB	0ffH
	DB	0bH
	DB	0bH
	DB	0bH
	DB	0ffH
	DB	0bH
	DB	0bH
	DB	0bH
	DB	0ffH
	DB	0bH
	DB	0bH
	DB	0bH
	DB	0ffH
	DB	0bH
	DB	0bH
	DB	0bH
	DB	0ffH
	DB	0bH
	DB	0bH
	DB	0bH
	DB	0ffH
	DB	0bH
	DB	0bH
	DB	0bH
	DB	0ffH
	DB	0bH
	DB	0bH
	DB	0bH
	DB	0ffH
	DB	0bH
	DB	0bH
	DB	0bH
	DB	0ffH
	DB	0bH
	DB	0bH
	DB	0bH
	DB	0ffH
	DB	0bH
	DB	0bH
	DB	0bH
	DB	0ffH
	DB	0bH
	DB	0bH
	DB	0bH
	DB	0ffH
	DB	0bH
	DB	0bH
	DB	0bH
	DB	0ffH
	DB	0bH
	DB	0bH
	DB	0bH
	DB	0ffH
	DB	0bH
	DB	0bH
	DB	0bH
	DB	0ffH
	DB	02dH
	DB	02dH
	DB	02dH
	DB	0ffH
	DB	056H
	DB	056H
	DB	056H
	DB	0ffH
	DB	056H
	DB	056H
	DB	056H
	DB	0ffH
	DB	056H
	DB	056H
	DB	056H
	DB	094H
	DB	055H
	DB	055H
	DB	055H
	DB	03H
	DB	00H
	DB	00H
	DB	00H
	DB	00H
	DB	00H
	DB	00H
	DB	00H
	DB	00H
	DB	00H
	DB	00H
	DB	00H
	DB	00H
	DB	00H
	DB	00H
	DB	00H
	DB	00H
	DB	00H
	DB	00H
	DB	00H
	DB	00H
	DB	00H
	DB	00H
	DB	00H
	DB	00H
	DB	00H
	DB	00H
	DB	00H
	DB	00H
	DB	00H
	DB	00H
	DB	00H
	DB	00H
	DB	00H
	DB	00H
	DB	00H
	DB	00H
	DB	00H
	DB	00H
	DB	00H
	DB	00H
	DB	00H
	DB	00H
	DB	00H
	DB	00H
	DB	00H
	DB	00H
	DB	00H
	DB	00H
	DB	00H
	DB	00H
	DB	00H
	DB	00H
	DB	00H
	DB	00H
	DB	00H
	DB	00H
	DB	00H
	DB	00H
	DB	00H
	DB	00H
	DB	00H
	DB	00H
	DB	00H
	DB	00H
	DB	00H
	DB	00H
	DB	00H
	DB	00H
	DB	00H
	DB	00H
	DB	00H
	DB	00H
	DB	00H
	DB	00H
	DB	00H
	DB	00H
	DB	00H
	DB	00H
	DB	00H
	DB	00H
	DB	00H
	DB	00H
	DB	00H
	DB	00H
	DB	00H
	DB	00H
	DB	00H
	DB	00H
	DB	00H
	DB	00H
	DB	00H
	DB	00H
	DB	00H
	DB	00H
	DB	00H
	DB	00H
	DB	00H
	DB	00H
	DB	00H
	DB	00H
	DB	00H
	DB	00H
	DB	00H
	DB	00H
	DB	00H
	DB	00H
	DB	00H
	DB	00H
	DB	00H
	DB	00H
	DB	00H
	DB	00H
	DB	00H
	DB	00H
	DB	00H
	DB	00H
	DB	00H
	DB	00H
	DB	00H
	DB	00H
	DB	00H
	DB	00H
	DB	00H
	DB	00H
	DB	00H
	DB	00H
	DB	00H
	DB	00H
	DB	00H
	DB	00H
	DB	00H
	DB	00H
	DB	00H
	DB	00H
	DB	00H
	DB	00H
	DB	00H
	DB	00H
	DB	00H
	DB	00H
	DB	00H
	DB	00H
	DB	00H
	DB	00H
	DB	00H
	DB	00H
	DB	00H
	DB	00H
	DB	00H
	DB	00H
	DB	00H
	DB	00H
	DB	00H
	DB	00H
	DB	00H
	DB	00H
	DB	00H
	DB	00H
	DB	00H
	DB	00H
	DB	00H
	DB	00H
	DB	00H
	DB	00H
	DB	00H
	DB	00H
	DB	00H
	DB	00H
	DB	00H
	DB	00H
	DB	00H
	DB	00H
	DB	00H
	DB	00H
	DB	00H
	DB	00H
	DB	00H
	DB	00H
	DB	00H
	DB	00H
	DB	00H
	DB	00H
	DB	00H
	DB	00H
	DB	00H
	DB	00H
	DB	00H
	DB	00H
	DB	00H
	DB	00H
	DB	00H
	DB	00H
	DB	00H
	DB	00H
	DB	00H
	DB	00H
	DB	00H
	DB	00H
	DB	00H
	DB	00H
	DB	00H
	DB	00H
	DB	00H
	DB	00H
	DB	00H
	DB	00H
	DB	00H
	DB	00H
	DB	00H
	DB	00H
	DB	00H
	DB	00H
	DB	00H
	DB	00H
	DB	00H
	DB	00H
	DB	00H
	DB	00H
	DB	00H
	DB	00H
	DB	00H
	DB	00H
	DB	00H
	DB	00H
	DB	00H
	DB	00H
	DB	00H
	DB	00H
	DB	00H
	DB	00H
	DB	00H
	DB	00H
	DB	00H
	DB	00H
	DB	00H
	DB	00H
	DB	00H
	DB	00H
	DB	00H
	DB	00H
	DB	00H
	DB	00H
	DB	00H
	DB	00H
	DB	00H
	DB	00H
	DB	00H
	DB	00H
	DB	00H
	DB	00H
	DB	00H
	DB	00H
	DB	00H
	DB	00H
	DB	00H
	DB	00H
	DB	00H
	DB	00H
	DB	00H
	DB	00H
	DB	00H
	DB	00H
	DB	00H
	DB	00H
	DB	00H
	DB	00H
	DB	00H
	DB	00H
	DB	00H
	DB	00H
	DB	00H
	DB	00H
	DB	00H
	DB	00H
	DB	00H
	DB	00H
	DB	00H
	DB	00H
	DB	00H
	DB	00H
	DB	00H
	DB	00H
	DB	00H
	DB	00H
	DB	00H
	DB	00H
	DB	00H
	DB	00H
	DB	00H
	DB	00H
	DB	00H
	DB	00H
	DB	00H
	DB	00H
	DB	00H
	DB	00H
	DB	00H
	DB	00H
	DB	00H
	DB	00H
	DB	00H
	DB	00H
	DB	00H
	DB	00H
	DB	00H
	DB	00H
	DB	00H
	DB	00H
	DB	00H
	DB	00H
	DB	00H
	DB	00H
	DB	00H
	DB	00H
	DB	00H
	DB	00H
	DB	00H
	DB	00H
	DB	00H
	DB	00H
	DB	00H
	DB	00H
	DB	00H
	DB	00H
	DB	00H
	DB	00H
	DB	00H
	DB	00H
	DB	00H
	DB	00H
	DB	00H
	DB	00H
	DB	00H
	DB	00H
	DB	00H
	DB	00H
	DB	00H
	DB	00H
	DB	00H
	DB	00H
	DB	00H
	DB	00H
	DB	00H
	DB	00H
	DB	00H
	DB	00H
	DB	00H
	DB	00H
	DB	00H
	DB	00H
	DB	00H
	DB	00H
	DB	00H
	DB	00H
	DB	00H
	DB	00H
	DB	00H
	DB	00H
	DB	00H
	DB	00H
	DB	00H
	DB	00H
	DB	00H
	DB	00H
	DB	00H
	DB	00H
	DB	00H
	DB	00H
	DB	040H
	DB	040H
	DB	040H
	DB	04H
	DB	056H
	DB	056H
	DB	056H
	DB	097H
	DB	056H
	DB	056H
	DB	056H
	DB	0ffH
	DB	055H
	DB	055H
	DB	055H
	DB	0ffH
	DB	02cH
	DB	02cH
	DB	02cH
	DB	0ffH
	DB	0bH
	DB	0bH
	DB	0bH
	DB	0ffH
	DB	0bH
	DB	0bH
	DB	0bH
	DB	0ffH
	DB	0bH
	DB	0bH
	DB	0bH
	DB	0ffH
	DB	0bH
	DB	0bH
	DB	0bH
	DB	0ffH
	DB	0bH
	DB	0bH
	DB	0bH
	DB	0ffH
	DB	0bH
	DB	0bH
	DB	0bH
	DB	0ffH
	DB	0bH
	DB	0bH
	DB	0bH
	DB	0ffH
	DB	0bH
	DB	0bH
	DB	0bH
	DB	0ffH
	DB	0bH
	DB	0bH
	DB	0bH
	DB	0ffH
	DB	0bH
	DB	0bH
	DB	0bH
	DB	0ffH
	DB	0bH
	DB	0bH
	DB	0bH
	DB	0ffH
	DB	0bH
	DB	0bH
	DB	0bH
	DB	0ffH
	DB	0bH
	DB	0bH
	DB	0bH
	DB	0ffH
	DB	0bH
	DB	0bH
	DB	0bH
	DB	0ffH
	DB	0bH
	DB	0bH
	DB	0bH
	DB	0ffH
	DB	0bH
	DB	0bH
	DB	0bH
	DB	0ffH
	DB	0bH
	DB	0bH
	DB	0bH
	DB	0ffH
	DB	0bH
	DB	0bH
	DB	0bH
	DB	0ffH
	DB	0bH
	DB	0bH
	DB	0bH
	DB	0ffH
	DB	01bH
	DB	01bH
	DB	01bH
	DB	0ffH
	DB	053H
	DB	053H
	DB	053H
	DB	0ffH
	DB	056H
	DB	056H
	DB	056H
	DB	0ffH
	DB	055H
	DB	055H
	DB	055H
	DB	05dH
	DB	00H
	DB	00H
	DB	00H
	DB	00H
	DB	00H
	DB	00H
	DB	00H
	DB	00H
	DB	00H
	DB	00H
	DB	00H
	DB	00H
	DB	00H
	DB	00H
	DB	00H
	DB	00H
	DB	00H
	DB	00H
	DB	00H
	DB	00H
	DB	00H
	DB	00H
	DB	00H
	DB	00H
	DB	00H
	DB	00H
	DB	00H
	DB	00H
	DB	00H
	DB	00H
	DB	00H
	DB	00H
	DB	00H
	DB	00H
	DB	00H
	DB	00H
	DB	00H
	DB	00H
	DB	00H
	DB	00H
	DB	00H
	DB	00H
	DB	00H
	DB	00H
	DB	00H
	DB	00H
	DB	00H
	DB	00H
	DB	00H
	DB	00H
	DB	00H
	DB	00H
	DB	00H
	DB	00H
	DB	00H
	DB	00H
	DB	00H
	DB	00H
	DB	00H
	DB	00H
	DB	00H
	DB	00H
	DB	00H
	DB	00H
	DB	00H
	DB	00H
	DB	00H
	DB	00H
	DB	00H
	DB	00H
	DB	00H
	DB	00H
	DB	00H
	DB	00H
	DB	00H
	DB	00H
	DB	00H
	DB	00H
	DB	00H
	DB	00H
	DB	00H
	DB	00H
	DB	00H
	DB	00H
	DB	00H
	DB	00H
	DB	00H
	DB	00H
	DB	00H
	DB	00H
	DB	00H
	DB	00H
	DB	00H
	DB	00H
	DB	00H
	DB	00H
	DB	00H
	DB	00H
	DB	00H
	DB	00H
	DB	00H
	DB	00H
	DB	00H
	DB	00H
	DB	00H
	DB	00H
	DB	00H
	DB	00H
	DB	00H
	DB	00H
	DB	00H
	DB	00H
	DB	00H
	DB	00H
	DB	00H
	DB	00H
	DB	00H
	DB	00H
	DB	00H
	DB	00H
	DB	00H
	DB	00H
	DB	00H
	DB	00H
	DB	00H
	DB	00H
	DB	00H
	DB	00H
	DB	00H
	DB	00H
	DB	00H
	DB	00H
	DB	00H
	DB	00H
	DB	00H
	DB	00H
	DB	00H
	DB	00H
	DB	00H
	DB	00H
	DB	055H
	DB	055H
	DB	055H
	DB	02aH
	DB	056H
	DB	056H
	DB	056H
	DB	0f6H
	DB	056H
	DB	056H
	DB	056H
	DB	0ffH
	DB	028H
	DB	028H
	DB	028H
	DB	0ffH
	DB	0bH
	DB	0bH
	DB	0bH
	DB	0ffH
	DB	0bH
	DB	0bH
	DB	0bH
	DB	0ffH
	DB	0bH
	DB	0bH
	DB	0bH
	DB	0ffH
	DB	0bH
	DB	0bH
	DB	0bH
	DB	0ffH
	DB	0bH
	DB	0bH
	DB	0bH
	DB	0ffH
	DB	0bH
	DB	0bH
	DB	0bH
	DB	0ffH
	DB	0bH
	DB	0bH
	DB	0bH
	DB	0ffH
	DB	0bH
	DB	0bH
	DB	0bH
	DB	0ffH
	DB	0bH
	DB	0bH
	DB	0bH
	DB	0ffH
	DB	0bH
	DB	0bH
	DB	0bH
	DB	0ffH
	DB	0bH
	DB	0bH
	DB	0bH
	DB	0ffH
	DB	0bH
	DB	0bH
	DB	0bH
	DB	0ffH
	DB	0bH
	DB	0bH
	DB	0bH
	DB	0ffH
	DB	0bH
	DB	0bH
	DB	0bH
	DB	0ffH
	DB	0bH
	DB	0bH
	DB	0bH
	DB	0ffH
	DB	0bH
	DB	0bH
	DB	0bH
	DB	0ffH
	DB	0bH
	DB	0bH
	DB	0bH
	DB	0ffH
	DB	0bH
	DB	0bH
	DB	0bH
	DB	0ffH
	DB	0bH
	DB	0bH
	DB	0bH
	DB	0ffH
	DB	02eH
	DB	02eH
	DB	02eH
	DB	0ffH
	DB	056H
	DB	056H
	DB	056H
	DB	0ffH
	DB	056H
	DB	056H
	DB	056H
	DB	0fdH
	DB	055H
	DB	055H
	DB	055H
	DB	072H
	DB	00H
	DB	00H
	DB	00H
	DB	00H
	DB	00H
	DB	00H
	DB	00H
	DB	00H
	DB	00H
	DB	00H
	DB	00H
	DB	00H
	DB	00H
	DB	00H
	DB	00H
	DB	00H
	DB	00H
	DB	00H
	DB	00H
	DB	00H
	DB	00H
	DB	00H
	DB	00H
	DB	00H
	DB	00H
	DB	00H
	DB	00H
	DB	00H
	DB	00H
	DB	00H
	DB	00H
	DB	00H
	DB	00H
	DB	00H
	DB	00H
	DB	00H
	DB	00H
	DB	00H
	DB	00H
	DB	00H
	DB	00H
	DB	00H
	DB	00H
	DB	00H
	DB	00H
	DB	00H
	DB	00H
	DB	00H
	DB	00H
	DB	00H
	DB	00H
	DB	00H
	DB	00H
	DB	00H
	DB	00H
	DB	00H
	DB	00H
	DB	00H
	DB	00H
	DB	00H
	DB	00H
	DB	00H
	DB	00H
	DB	00H
	DB	00H
	DB	00H
	DB	00H
	DB	00H
	DB	00H
	DB	00H
	DB	00H
	DB	00H
	DB	00H
	DB	00H
	DB	00H
	DB	00H
	DB	00H
	DB	00H
	DB	00H
	DB	00H
	DB	00H
	DB	00H
	DB	00H
	DB	00H
	DB	00H
	DB	00H
	DB	00H
	DB	00H
	DB	00H
	DB	00H
	DB	00H
	DB	00H
	DB	00H
	DB	00H
	DB	00H
	DB	00H
	DB	00H
	DB	00H
	DB	00H
	DB	00H
	DB	00H
	DB	00H
	DB	00H
	DB	00H
	DB	00H
	DB	00H
	DB	00H
	DB	00H
	DB	00H
	DB	00H
	DB	00H
	DB	00H
	DB	00H
	DB	00H
	DB	00H
	DB	00H
	DB	00H
	DB	00H
	DB	00H
	DB	00H
	DB	00H
	DB	00H
	DB	00H
	DB	00H
	DB	00H
	DB	00H
	DB	00H
	DB	00H
	DB	00H
	DB	00H
	DB	00H
	DB	00H
	DB	00H
	DB	00H
	DB	00H
	DB	00H
	DB	00H
	DB	00H
	DB	00H
	DB	00H
	DB	00H
	DB	00H
	DB	00H
	DB	00H
	DB	00H
	DB	00H
	DB	00H
	DB	00H
	DB	00H
	DB	00H
	DB	00H
	DB	00H
	DB	00H
	DB	00H
	DB	00H
	DB	00H
	DB	00H
	DB	00H
	DB	00H
	DB	00H
	DB	00H
	DB	00H
	DB	00H
	DB	00H
	DB	00H
	DB	00H
	DB	00H
	DB	00H
	DB	00H
	DB	00H
	DB	00H
	DB	00H
	DB	00H
	DB	00H
	DB	00H
	DB	00H
	DB	00H
	DB	00H
	DB	00H
	DB	00H
	DB	00H
	DB	00H
	DB	00H
	DB	00H
	DB	00H
	DB	00H
	DB	00H
	DB	00H
	DB	00H
	DB	00H
	DB	00H
	DB	00H
	DB	00H
	DB	00H
	DB	00H
	DB	00H
	DB	00H
	DB	00H
	DB	00H
	DB	00H
	DB	00H
	DB	00H
	DB	00H
	DB	00H
	DB	00H
	DB	00H
	DB	00H
	DB	00H
	DB	00H
	DB	00H
	DB	00H
	DB	00H
	DB	00H
	DB	00H
	DB	00H
	DB	00H
	DB	00H
	DB	00H
	DB	00H
	DB	00H
	DB	00H
	DB	00H
	DB	00H
	DB	00H
	DB	00H
	DB	00H
	DB	00H
	DB	00H
	DB	00H
	DB	00H
	DB	00H
	DB	00H
	DB	00H
	DB	00H
	DB	00H
	DB	00H
	DB	00H
	DB	00H
	DB	00H
	DB	00H
	DB	00H
	DB	00H
	DB	00H
	DB	00H
	DB	00H
	DB	00H
	DB	00H
	DB	00H
	DB	00H
	DB	00H
	DB	00H
	DB	00H
	DB	00H
	DB	00H
	DB	00H
	DB	00H
	DB	00H
	DB	00H
	DB	00H
	DB	00H
	DB	00H
	DB	00H
	DB	00H
	DB	00H
	DB	00H
	DB	00H
	DB	00H
	DB	00H
	DB	00H
	DB	00H
	DB	00H
	DB	00H
	DB	00H
	DB	00H
	DB	00H
	DB	00H
	DB	00H
	DB	00H
	DB	00H
	DB	00H
	DB	00H
	DB	00H
	DB	00H
	DB	00H
	DB	00H
	DB	00H
	DB	00H
	DB	00H
	DB	00H
	DB	00H
	DB	00H
	DB	00H
	DB	00H
	DB	00H
	DB	00H
	DB	00H
	DB	00H
	DB	00H
	DB	00H
	DB	00H
	DB	00H
	DB	00H
	DB	00H
	DB	00H
	DB	00H
	DB	00H
	DB	00H
	DB	00H
	DB	00H
	DB	00H
	DB	00H
	DB	00H
	DB	00H
	DB	00H
	DB	00H
	DB	00H
	DB	00H
	DB	00H
	DB	00H
	DB	00H
	DB	00H
	DB	00H
	DB	00H
	DB	00H
	DB	00H
	DB	00H
	DB	00H
	DB	00H
	DB	00H
	DB	00H
	DB	00H
	DB	00H
	DB	00H
	DB	00H
	DB	00H
	DB	00H
	DB	00H
	DB	00H
	DB	00H
	DB	00H
	DB	00H
	DB	00H
	DB	00H
	DB	00H
	DB	00H
	DB	00H
	DB	00H
	DB	00H
	DB	00H
	DB	00H
	DB	00H
	DB	00H
	DB	00H
	DB	00H
	DB	00H
	DB	00H
	DB	00H
	DB	00H
	DB	00H
	DB	00H
	DB	00H
	DB	00H
	DB	00H
	DB	00H
	DB	00H
	DB	00H
	DB	00H
	DB	00H
	DB	00H
	DB	00H
	DB	00H
	DB	00H
	DB	00H
	DB	00H
	DB	00H
	DB	00H
	DB	00H
	DB	00H
	DB	00H
	DB	00H
	DB	00H
	DB	00H
	DB	00H
	DB	00H
	DB	055H
	DB	055H
	DB	055H
	DB	075H
	DB	056H
	DB	056H
	DB	056H
	DB	0fdH
	DB	056H
	DB	056H
	DB	056H
	DB	0ffH
	DB	033H
	DB	033H
	DB	033H
	DB	0ffH
	DB	0bH
	DB	0bH
	DB	0bH
	DB	0ffH
	DB	0bH
	DB	0bH
	DB	0bH
	DB	0ffH
	DB	0bH
	DB	0bH
	DB	0bH
	DB	0ffH
	DB	0bH
	DB	0bH
	DB	0bH
	DB	0ffH
	DB	0bH
	DB	0bH
	DB	0bH
	DB	0ffH
	DB	0bH
	DB	0bH
	DB	0bH
	DB	0ffH
	DB	0bH
	DB	0bH
	DB	0bH
	DB	0ffH
	DB	0bH
	DB	0bH
	DB	0bH
	DB	0ffH
	DB	0bH
	DB	0bH
	DB	0bH
	DB	0ffH
	DB	0bH
	DB	0bH
	DB	0bH
	DB	0ffH
	DB	0bH
	DB	0bH
	DB	0bH
	DB	0ffH
	DB	0bH
	DB	0bH
	DB	0bH
	DB	0ffH
	DB	0bH
	DB	0bH
	DB	0bH
	DB	0ffH
	DB	0bH
	DB	0bH
	DB	0bH
	DB	0ffH
	DB	0bH
	DB	0bH
	DB	0bH
	DB	0ffH
	DB	0bH
	DB	0bH
	DB	0bH
	DB	0ffH
	DB	0bH
	DB	0bH
	DB	0bH
	DB	0ffH
	DB	0bH
	DB	0bH
	DB	0bH
	DB	0ffH
	DB	0bH
	DB	0bH
	DB	0bH
	DB	0ffH
	DB	026H
	DB	026H
	DB	026H
	DB	0ffH
	DB	056H
	DB	056H
	DB	056H
	DB	0ffH
	DB	056H
	DB	056H
	DB	056H
	DB	0f4H
	DB	055H
	DB	055H
	DB	055H
	DB	027H
	DB	00H
	DB	00H
	DB	00H
	DB	00H
	DB	00H
	DB	00H
	DB	00H
	DB	00H
	DB	00H
	DB	00H
	DB	00H
	DB	00H
	DB	00H
	DB	00H
	DB	00H
	DB	00H
	DB	00H
	DB	00H
	DB	00H
	DB	00H
	DB	00H
	DB	00H
	DB	00H
	DB	00H
	DB	00H
	DB	00H
	DB	00H
	DB	00H
	DB	00H
	DB	00H
	DB	00H
	DB	00H
	DB	00H
	DB	00H
	DB	00H
	DB	00H
	DB	00H
	DB	00H
	DB	00H
	DB	00H
	DB	00H
	DB	00H
	DB	00H
	DB	00H
	DB	00H
	DB	00H
	DB	00H
	DB	00H
	DB	00H
	DB	00H
	DB	00H
	DB	00H
	DB	00H
	DB	00H
	DB	00H
	DB	00H
	DB	00H
	DB	00H
	DB	00H
	DB	00H
	DB	00H
	DB	00H
	DB	00H
	DB	00H
	DB	00H
	DB	00H
	DB	00H
	DB	00H
	DB	00H
	DB	00H
	DB	00H
	DB	00H
	DB	00H
	DB	00H
	DB	00H
	DB	00H
	DB	00H
	DB	00H
	DB	00H
	DB	00H
	DB	00H
	DB	00H
	DB	00H
	DB	00H
	DB	00H
	DB	00H
	DB	00H
	DB	00H
	DB	00H
	DB	00H
	DB	00H
	DB	00H
	DB	00H
	DB	00H
	DB	00H
	DB	00H
	DB	00H
	DB	00H
	DB	00H
	DB	00H
	DB	00H
	DB	00H
	DB	00H
	DB	00H
	DB	00H
	DB	00H
	DB	00H
	DB	00H
	DB	00H
	DB	00H
	DB	00H
	DB	00H
	DB	00H
	DB	00H
	DB	00H
	DB	00H
	DB	00H
	DB	00H
	DB	00H
	DB	00H
	DB	00H
	DB	00H
	DB	00H
	DB	00H
	DB	00H
	DB	00H
	DB	00H
	DB	00H
	DB	00H
	DB	00H
	DB	00H
	DB	00H
	DB	049H
	DB	049H
	DB	049H
	DB	07H
	DB	056H
	DB	056H
	DB	056H
	DB	0cfH
	DB	056H
	DB	056H
	DB	056H
	DB	0ffH
	DB	039H
	DB	039H
	DB	039H
	DB	0ffH
	DB	0bH
	DB	0bH
	DB	0bH
	DB	0ffH
	DB	0bH
	DB	0bH
	DB	0bH
	DB	0ffH
	DB	0bH
	DB	0bH
	DB	0bH
	DB	0ffH
	DB	0bH
	DB	0bH
	DB	0bH
	DB	0ffH
	DB	0bH
	DB	0bH
	DB	0bH
	DB	0ffH
	DB	0bH
	DB	0bH
	DB	0bH
	DB	0ffH
	DB	0bH
	DB	0bH
	DB	0bH
	DB	0ffH
	DB	0bH
	DB	0bH
	DB	0bH
	DB	0ffH
	DB	0bH
	DB	0bH
	DB	0bH
	DB	0ffH
	DB	0bH
	DB	0bH
	DB	0bH
	DB	0ffH
	DB	0bH
	DB	0bH
	DB	0bH
	DB	0ffH
	DB	0bH
	DB	0bH
	DB	0bH
	DB	0ffH
	DB	0bH
	DB	0bH
	DB	0bH
	DB	0ffH
	DB	0bH
	DB	0bH
	DB	0bH
	DB	0ffH
	DB	0bH
	DB	0bH
	DB	0bH
	DB	0ffH
	DB	0bH
	DB	0bH
	DB	0bH
	DB	0ffH
	DB	0bH
	DB	0bH
	DB	0bH
	DB	0ffH
	DB	0bH
	DB	0bH
	DB	0bH
	DB	0ffH
	DB	0bH
	DB	0bH
	DB	0bH
	DB	0ffH
	DB	034H
	DB	034H
	DB	034H
	DB	0ffH
	DB	056H
	DB	056H
	DB	056H
	DB	0ffH
	DB	056H
	DB	056H
	DB	056H
	DB	0fcH
	DB	056H
	DB	056H
	DB	056H
	DB	05fH
	DB	00H
	DB	00H
	DB	00H
	DB	00H
	DB	00H
	DB	00H
	DB	00H
	DB	00H
	DB	00H
	DB	00H
	DB	00H
	DB	00H
	DB	00H
	DB	00H
	DB	00H
	DB	00H
	DB	00H
	DB	00H
	DB	00H
	DB	00H
	DB	00H
	DB	00H
	DB	00H
	DB	00H
	DB	00H
	DB	00H
	DB	00H
	DB	00H
	DB	00H
	DB	00H
	DB	00H
	DB	00H
	DB	00H
	DB	00H
	DB	00H
	DB	00H
	DB	00H
	DB	00H
	DB	00H
	DB	00H
	DB	00H
	DB	00H
	DB	00H
	DB	00H
	DB	00H
	DB	00H
	DB	00H
	DB	00H
	DB	00H
	DB	00H
	DB	00H
	DB	00H
	DB	00H
	DB	00H
	DB	00H
	DB	00H
	DB	00H
	DB	00H
	DB	00H
	DB	00H
	DB	00H
	DB	00H
	DB	00H
	DB	00H
	DB	00H
	DB	00H
	DB	00H
	DB	00H
	DB	00H
	DB	00H
	DB	00H
	DB	00H
	DB	00H
	DB	00H
	DB	00H
	DB	00H
	DB	00H
	DB	00H
	DB	00H
	DB	00H
	DB	00H
	DB	00H
	DB	00H
	DB	00H
	DB	00H
	DB	00H
	DB	00H
	DB	00H
	DB	00H
	DB	00H
	DB	00H
	DB	00H
	DB	00H
	DB	00H
	DB	00H
	DB	00H
	DB	00H
	DB	00H
	DB	00H
	DB	00H
	DB	00H
	DB	00H
	DB	00H
	DB	00H
	DB	00H
	DB	00H
	DB	00H
	DB	00H
	DB	00H
	DB	00H
	DB	00H
	DB	00H
	DB	00H
	DB	00H
	DB	00H
	DB	00H
	DB	00H
	DB	00H
	DB	00H
	DB	00H
	DB	00H
	DB	00H
	DB	00H
	DB	00H
	DB	00H
	DB	00H
	DB	00H
	DB	00H
	DB	00H
	DB	00H
	DB	00H
	DB	00H
	DB	00H
	DB	00H
	DB	00H
	DB	00H
	DB	00H
	DB	00H
	DB	00H
	DB	00H
	DB	00H
	DB	00H
	DB	00H
	DB	00H
	DB	00H
	DB	00H
	DB	00H
	DB	00H
	DB	00H
	DB	00H
	DB	00H
	DB	00H
	DB	00H
	DB	00H
	DB	00H
	DB	00H
	DB	00H
	DB	00H
	DB	00H
	DB	00H
	DB	00H
	DB	00H
	DB	00H
	DB	00H
	DB	00H
	DB	00H
	DB	00H
	DB	00H
	DB	00H
	DB	00H
	DB	00H
	DB	00H
	DB	00H
	DB	00H
	DB	00H
	DB	00H
	DB	00H
	DB	00H
	DB	00H
	DB	00H
	DB	00H
	DB	00H
	DB	00H
	DB	00H
	DB	00H
	DB	00H
	DB	00H
	DB	00H
	DB	00H
	DB	00H
	DB	00H
	DB	00H
	DB	00H
	DB	00H
	DB	00H
	DB	00H
	DB	00H
	DB	00H
	DB	00H
	DB	00H
	DB	00H
	DB	00H
	DB	00H
	DB	00H
	DB	00H
	DB	00H
	DB	00H
	DB	00H
	DB	00H
	DB	00H
	DB	00H
	DB	00H
	DB	00H
	DB	00H
	DB	00H
	DB	00H
	DB	00H
	DB	00H
	DB	00H
	DB	00H
	DB	00H
	DB	00H
	DB	00H
	DB	00H
	DB	00H
	DB	00H
	DB	00H
	DB	00H
	DB	00H
	DB	00H
	DB	00H
	DB	00H
	DB	00H
	DB	00H
	DB	00H
	DB	00H
	DB	00H
	DB	00H
	DB	00H
	DB	00H
	DB	00H
	DB	00H
	DB	00H
	DB	00H
	DB	00H
	DB	00H
	DB	00H
	DB	00H
	DB	00H
	DB	00H
	DB	00H
	DB	00H
	DB	00H
	DB	00H
	DB	00H
	DB	00H
	DB	00H
	DB	00H
	DB	00H
	DB	00H
	DB	00H
	DB	00H
	DB	00H
	DB	00H
	DB	00H
	DB	00H
	DB	00H
	DB	00H
	DB	00H
	DB	00H
	DB	00H
	DB	00H
	DB	00H
	DB	00H
	DB	00H
	DB	00H
	DB	00H
	DB	00H
	DB	00H
	DB	00H
	DB	00H
	DB	00H
	DB	00H
	DB	00H
	DB	00H
	DB	00H
	DB	00H
	DB	00H
	DB	00H
	DB	00H
	DB	00H
	DB	00H
	DB	00H
	DB	00H
	DB	00H
	DB	00H
	DB	00H
	DB	00H
	DB	00H
	DB	00H
	DB	00H
	DB	00H
	DB	00H
	DB	00H
	DB	00H
	DB	00H
	DB	00H
	DB	00H
	DB	00H
	DB	00H
	DB	00H
	DB	00H
	DB	00H
	DB	00H
	DB	00H
	DB	00H
	DB	00H
	DB	00H
	DB	00H
	DB	00H
	DB	00H
	DB	00H
	DB	00H
	DB	00H
	DB	00H
	DB	00H
	DB	00H
	DB	00H
	DB	00H
	DB	00H
	DB	00H
	DB	00H
	DB	00H
	DB	00H
	DB	00H
	DB	00H
	DB	00H
	DB	00H
	DB	00H
	DB	00H
	DB	00H
	DB	00H
	DB	00H
	DB	00H
	DB	00H
	DB	00H
	DB	00H
	DB	00H
	DB	00H
	DB	00H
	DB	00H
	DB	00H
	DB	00H
	DB	00H
	DB	00H
	DB	00H
	DB	00H
	DB	00H
	DB	00H
	DB	00H
	DB	00H
	DB	00H
	DB	00H
	DB	00H
	DB	00H
	DB	00H
	DB	00H
	DB	00H
	DB	00H
	DB	00H
	DB	00H
	DB	00H
	DB	00H
	DB	00H
	DB	00H
	DB	00H
	DB	00H
	DB	00H
	DB	00H
	DB	00H
	DB	00H
	DB	00H
	DB	00H
	DB	00H
	DB	00H
	DB	00H
	DB	00H
	DB	00H
	DB	00H
	DB	00H
	DB	00H
	DB	00H
	DB	055H
	DB	055H
	DB	055H
	DB	05aH
	DB	056H
	DB	056H
	DB	056H
	DB	0fbH
	DB	056H
	DB	056H
	DB	056H
	DB	0ffH
	DB	034H
	DB	034H
	DB	034H
	DB	0ffH
	DB	0bH
	DB	0bH
	DB	0bH
	DB	0ffH
	DB	0bH
	DB	0bH
	DB	0bH
	DB	0ffH
	DB	0bH
	DB	0bH
	DB	0bH
	DB	0ffH
	DB	0bH
	DB	0bH
	DB	0bH
	DB	0ffH
	DB	0bH
	DB	0bH
	DB	0bH
	DB	0ffH
	DB	0bH
	DB	0bH
	DB	0bH
	DB	0ffH
	DB	0bH
	DB	0bH
	DB	0bH
	DB	0ffH
	DB	0bH
	DB	0bH
	DB	0bH
	DB	0ffH
	DB	0bH
	DB	0bH
	DB	0bH
	DB	0ffH
	DB	0bH
	DB	0bH
	DB	0bH
	DB	0ffH
	DB	0bH
	DB	0bH
	DB	0bH
	DB	0ffH
	DB	0bH
	DB	0bH
	DB	0bH
	DB	0ffH
	DB	0bH
	DB	0bH
	DB	0bH
	DB	0ffH
	DB	0bH
	DB	0bH
	DB	0bH
	DB	0ffH
	DB	0bH
	DB	0bH
	DB	0bH
	DB	0ffH
	DB	0bH
	DB	0bH
	DB	0bH
	DB	0ffH
	DB	0bH
	DB	0bH
	DB	0bH
	DB	0ffH
	DB	0bH
	DB	0bH
	DB	0bH
	DB	0ffH
	DB	0bH
	DB	0bH
	DB	0bH
	DB	0ffH
	DB	03aH
	DB	03aH
	DB	03aH
	DB	0ffH
	DB	056H
	DB	056H
	DB	056H
	DB	0ffH
	DB	056H
	DB	056H
	DB	056H
	DB	0cdH
	DB	055H
	DB	055H
	DB	055H
	DB	06H
	DB	00H
	DB	00H
	DB	00H
	DB	00H
	DB	00H
	DB	00H
	DB	00H
	DB	00H
	DB	00H
	DB	00H
	DB	00H
	DB	00H
	DB	00H
	DB	00H
	DB	00H
	DB	00H
	DB	00H
	DB	00H
	DB	00H
	DB	00H
	DB	00H
	DB	00H
	DB	00H
	DB	00H
	DB	00H
	DB	00H
	DB	00H
	DB	00H
	DB	00H
	DB	00H
	DB	00H
	DB	00H
	DB	00H
	DB	00H
	DB	00H
	DB	00H
	DB	00H
	DB	00H
	DB	00H
	DB	00H
	DB	00H
	DB	00H
	DB	00H
	DB	00H
	DB	00H
	DB	00H
	DB	00H
	DB	00H
	DB	00H
	DB	00H
	DB	00H
	DB	00H
	DB	00H
	DB	00H
	DB	00H
	DB	00H
	DB	00H
	DB	00H
	DB	00H
	DB	00H
	DB	00H
	DB	00H
	DB	00H
	DB	00H
	DB	00H
	DB	00H
	DB	00H
	DB	00H
	DB	00H
	DB	00H
	DB	00H
	DB	00H
	DB	00H
	DB	00H
	DB	00H
	DB	00H
	DB	00H
	DB	00H
	DB	00H
	DB	00H
	DB	00H
	DB	00H
	DB	00H
	DB	00H
	DB	00H
	DB	00H
	DB	00H
	DB	00H
	DB	00H
	DB	00H
	DB	00H
	DB	00H
	DB	00H
	DB	00H
	DB	00H
	DB	00H
	DB	00H
	DB	00H
	DB	00H
	DB	00H
	DB	00H
	DB	00H
	DB	00H
	DB	00H
	DB	00H
	DB	00H
	DB	00H
	DB	00H
	DB	00H
	DB	00H
	DB	00H
	DB	00H
	DB	00H
	DB	00H
	DB	00H
	DB	00H
	DB	00H
	DB	00H
	DB	00H
	DB	00H
	DB	00H
	DB	00H
	DB	00H
	DB	00H
	DB	00H
	DB	00H
	DB	00H
	DB	00H
	DB	056H
	DB	056H
	DB	056H
	DB	08cH
	DB	056H
	DB	056H
	DB	056H
	DB	0ffH
	DB	04cH
	DB	04cH
	DB	04cH
	DB	0ffH
	DB	0eH
	DB	0eH
	DB	0eH
	DB	0ffH
	DB	0bH
	DB	0bH
	DB	0bH
	DB	0ffH
	DB	0bH
	DB	0bH
	DB	0bH
	DB	0ffH
	DB	0bH
	DB	0bH
	DB	0bH
	DB	0ffH
	DB	0bH
	DB	0bH
	DB	0bH
	DB	0ffH
	DB	0bH
	DB	0bH
	DB	0bH
	DB	0ffH
	DB	0bH
	DB	0bH
	DB	0bH
	DB	0ffH
	DB	0bH
	DB	0bH
	DB	0bH
	DB	0ffH
	DB	0bH
	DB	0bH
	DB	0bH
	DB	0ffH
	DB	0bH
	DB	0bH
	DB	0bH
	DB	0ffH
	DB	0bH
	DB	0bH
	DB	0bH
	DB	0ffH
	DB	0bH
	DB	0bH
	DB	0bH
	DB	0ffH
	DB	0bH
	DB	0bH
	DB	0bH
	DB	0ffH
	DB	0bH
	DB	0bH
	DB	0bH
	DB	0ffH
	DB	0bH
	DB	0bH
	DB	0bH
	DB	0ffH
	DB	0bH
	DB	0bH
	DB	0bH
	DB	0ffH
	DB	0bH
	DB	0bH
	DB	0bH
	DB	0ffH
	DB	0bH
	DB	0bH
	DB	0bH
	DB	0ffH
	DB	0bH
	DB	0bH
	DB	0bH
	DB	0ffH
	DB	033H
	DB	033H
	DB	033H
	DB	0ffH
	DB	056H
	DB	056H
	DB	056H
	DB	0ffH
	DB	056H
	DB	056H
	DB	056H
	DB	0f9H
	DB	057H
	DB	057H
	DB	057H
	DB	052H
	DB	00H
	DB	00H
	DB	00H
	DB	00H
	DB	00H
	DB	00H
	DB	00H
	DB	00H
	DB	00H
	DB	00H
	DB	00H
	DB	00H
	DB	00H
	DB	00H
	DB	00H
	DB	00H
	DB	00H
	DB	00H
	DB	00H
	DB	00H
	DB	00H
	DB	00H
	DB	00H
	DB	00H
	DB	00H
	DB	00H
	DB	00H
	DB	00H
	DB	00H
	DB	00H
	DB	00H
	DB	00H
	DB	00H
	DB	00H
	DB	00H
	DB	00H
	DB	00H
	DB	00H
	DB	00H
	DB	00H
	DB	00H
	DB	00H
	DB	00H
	DB	00H
	DB	00H
	DB	00H
	DB	00H
	DB	00H
	DB	00H
	DB	00H
	DB	00H
	DB	00H
	DB	00H
	DB	00H
	DB	00H
	DB	00H
	DB	00H
	DB	00H
	DB	00H
	DB	00H
	DB	00H
	DB	00H
	DB	00H
	DB	00H
	DB	00H
	DB	00H
	DB	00H
	DB	00H
	DB	00H
	DB	00H
	DB	00H
	DB	00H
	DB	00H
	DB	00H
	DB	00H
	DB	00H
	DB	00H
	DB	00H
	DB	00H
	DB	00H
	DB	00H
	DB	00H
	DB	00H
	DB	00H
	DB	00H
	DB	00H
	DB	00H
	DB	00H
	DB	00H
	DB	00H
	DB	00H
	DB	00H
	DB	00H
	DB	00H
	DB	00H
	DB	00H
	DB	00H
	DB	00H
	DB	00H
	DB	00H
	DB	00H
	DB	00H
	DB	00H
	DB	00H
	DB	00H
	DB	00H
	DB	00H
	DB	00H
	DB	00H
	DB	00H
	DB	00H
	DB	00H
	DB	00H
	DB	00H
	DB	00H
	DB	00H
	DB	00H
	DB	00H
	DB	00H
	DB	00H
	DB	00H
	DB	00H
	DB	00H
	DB	00H
	DB	00H
	DB	00H
	DB	00H
	DB	00H
	DB	00H
	DB	00H
	DB	00H
	DB	00H
	DB	00H
	DB	00H
	DB	00H
	DB	00H
	DB	00H
	DB	00H
	DB	00H
	DB	00H
	DB	00H
	DB	00H
	DB	00H
	DB	00H
	DB	00H
	DB	00H
	DB	00H
	DB	00H
	DB	00H
	DB	00H
	DB	00H
	DB	00H
	DB	00H
	DB	00H
	DB	00H
	DB	00H
	DB	00H
	DB	00H
	DB	00H
	DB	00H
	DB	00H
	DB	00H
	DB	00H
	DB	00H
	DB	00H
	DB	00H
	DB	00H
	DB	00H
	DB	00H
	DB	00H
	DB	00H
	DB	00H
	DB	00H
	DB	00H
	DB	00H
	DB	00H
	DB	00H
	DB	00H
	DB	00H
	DB	00H
	DB	00H
	DB	00H
	DB	00H
	DB	00H
	DB	00H
	DB	00H
	DB	00H
	DB	00H
	DB	00H
	DB	00H
	DB	00H
	DB	00H
	DB	00H
	DB	00H
	DB	00H
	DB	00H
	DB	00H
	DB	00H
	DB	00H
	DB	00H
	DB	00H
	DB	00H
	DB	00H
	DB	00H
	DB	00H
	DB	00H
	DB	00H
	DB	00H
	DB	00H
	DB	00H
	DB	00H
	DB	00H
	DB	00H
	DB	00H
	DB	00H
	DB	00H
	DB	00H
	DB	00H
	DB	00H
	DB	00H
	DB	00H
	DB	00H
	DB	00H
	DB	00H
	DB	00H
	DB	00H
	DB	00H
	DB	00H
	DB	00H
	DB	00H
	DB	00H
	DB	00H
	DB	00H
	DB	00H
	DB	00H
	DB	00H
	DB	00H
	DB	00H
	DB	00H
	DB	00H
	DB	00H
	DB	00H
	DB	00H
	DB	00H
	DB	00H
	DB	00H
	DB	00H
	DB	00H
	DB	00H
	DB	00H
	DB	00H
	DB	00H
	DB	00H
	DB	00H
	DB	00H
	DB	00H
	DB	00H
	DB	00H
	DB	00H
	DB	00H
	DB	00H
	DB	00H
	DB	00H
	DB	00H
	DB	00H
	DB	00H
	DB	00H
	DB	00H
	DB	00H
	DB	00H
	DB	00H
	DB	00H
	DB	00H
	DB	00H
	DB	00H
	DB	00H
	DB	00H
	DB	00H
	DB	00H
	DB	00H
	DB	00H
	DB	00H
	DB	00H
	DB	00H
	DB	00H
	DB	00H
	DB	00H
	DB	00H
	DB	00H
	DB	00H
	DB	00H
	DB	00H
	DB	00H
	DB	00H
	DB	00H
	DB	00H
	DB	00H
	DB	00H
	DB	00H
	DB	00H
	DB	00H
	DB	00H
	DB	00H
	DB	00H
	DB	00H
	DB	00H
	DB	00H
	DB	00H
	DB	00H
	DB	00H
	DB	00H
	DB	00H
	DB	00H
	DB	00H
	DB	00H
	DB	00H
	DB	00H
	DB	00H
	DB	00H
	DB	00H
	DB	00H
	DB	00H
	DB	00H
	DB	00H
	DB	00H
	DB	00H
	DB	00H
	DB	00H
	DB	00H
	DB	00H
	DB	00H
	DB	00H
	DB	00H
	DB	00H
	DB	00H
	DB	00H
	DB	00H
	DB	00H
	DB	00H
	DB	00H
	DB	00H
	DB	00H
	DB	00H
	DB	00H
	DB	00H
	DB	00H
	DB	00H
	DB	00H
	DB	00H
	DB	00H
	DB	00H
	DB	00H
	DB	00H
	DB	00H
	DB	00H
	DB	00H
	DB	00H
	DB	00H
	DB	00H
	DB	00H
	DB	00H
	DB	00H
	DB	00H
	DB	00H
	DB	00H
	DB	00H
	DB	00H
	DB	00H
	DB	00H
	DB	00H
	DB	00H
	DB	00H
	DB	00H
	DB	00H
	DB	00H
	DB	00H
	DB	00H
	DB	00H
	DB	00H
	DB	00H
	DB	00H
	DB	00H
	DB	00H
	DB	00H
	DB	00H
	DB	00H
	DB	00H
	DB	00H
	DB	00H
	DB	00H
	DB	00H
	DB	00H
	DB	00H
	DB	00H
	DB	00H
	DB	00H
	DB	00H
	DB	00H
	DB	00H
	DB	00H
	DB	055H
	DB	055H
	DB	055H
	DB	054H
	DB	056H
	DB	056H
	DB	056H
	DB	0f9H
	DB	056H
	DB	056H
	DB	056H
	DB	0ffH
	DB	035H
	DB	035H
	DB	035H
	DB	0ffH
	DB	0bH
	DB	0bH
	DB	0bH
	DB	0ffH
	DB	0bH
	DB	0bH
	DB	0bH
	DB	0ffH
	DB	0bH
	DB	0bH
	DB	0bH
	DB	0ffH
	DB	0bH
	DB	0bH
	DB	0bH
	DB	0ffH
	DB	0bH
	DB	0bH
	DB	0bH
	DB	0ffH
	DB	0bH
	DB	0bH
	DB	0bH
	DB	0ffH
	DB	0bH
	DB	0bH
	DB	0bH
	DB	0ffH
	DB	0bH
	DB	0bH
	DB	0bH
	DB	0ffH
	DB	0bH
	DB	0bH
	DB	0bH
	DB	0ffH
	DB	0bH
	DB	0bH
	DB	0bH
	DB	0ffH
	DB	0bH
	DB	0bH
	DB	0bH
	DB	0ffH
	DB	0bH
	DB	0bH
	DB	0bH
	DB	0ffH
	DB	0bH
	DB	0bH
	DB	0bH
	DB	0ffH
	DB	0bH
	DB	0bH
	DB	0bH
	DB	0ffH
	DB	0bH
	DB	0bH
	DB	0bH
	DB	0ffH
	DB	0bH
	DB	0bH
	DB	0bH
	DB	0ffH
	DB	0bH
	DB	0bH
	DB	0bH
	DB	0ffH
	DB	0bH
	DB	0bH
	DB	0bH
	DB	0ffH
	DB	0eH
	DB	0eH
	DB	0eH
	DB	0ffH
	DB	04cH
	DB	04cH
	DB	04cH
	DB	0ffH
	DB	056H
	DB	056H
	DB	056H
	DB	0ffH
	DB	056H
	DB	056H
	DB	056H
	DB	088H
	DB	00H
	DB	00H
	DB	00H
	DB	00H
	DB	00H
	DB	00H
	DB	00H
	DB	00H
	DB	00H
	DB	00H
	DB	00H
	DB	00H
	DB	00H
	DB	00H
	DB	00H
	DB	00H
	DB	00H
	DB	00H
	DB	00H
	DB	00H
	DB	00H
	DB	00H
	DB	00H
	DB	00H
	DB	00H
	DB	00H
	DB	00H
	DB	00H
	DB	00H
	DB	00H
	DB	00H
	DB	00H
	DB	00H
	DB	00H
	DB	00H
	DB	00H
	DB	00H
	DB	00H
	DB	00H
	DB	00H
	DB	00H
	DB	00H
	DB	00H
	DB	00H
	DB	00H
	DB	00H
	DB	00H
	DB	00H
	DB	00H
	DB	00H
	DB	00H
	DB	00H
	DB	00H
	DB	00H
	DB	00H
	DB	00H
	DB	00H
	DB	00H
	DB	00H
	DB	00H
	DB	00H
	DB	00H
	DB	00H
	DB	00H
	DB	00H
	DB	00H
	DB	00H
	DB	00H
	DB	00H
	DB	00H
	DB	00H
	DB	00H
	DB	00H
	DB	00H
	DB	00H
	DB	00H
	DB	00H
	DB	00H
	DB	00H
	DB	00H
	DB	00H
	DB	00H
	DB	00H
	DB	00H
	DB	00H
	DB	00H
	DB	00H
	DB	00H
	DB	00H
	DB	00H
	DB	00H
	DB	00H
	DB	00H
	DB	00H
	DB	00H
	DB	00H
	DB	00H
	DB	00H
	DB	00H
	DB	00H
	DB	00H
	DB	00H
	DB	00H
	DB	00H
	DB	00H
	DB	00H
	DB	00H
	DB	00H
	DB	00H
	DB	00H
	DB	00H
	DB	00H
	DB	00H
	DB	00H
	DB	00H
	DB	00H
	DB	00H
	DB	00H
	DB	00H
	DB	00H
	DB	00H
	DB	00H
	DB	00H
	DB	00H
	DB	056H
	DB	056H
	DB	056H
	DB	041H
	DB	056H
	DB	056H
	DB	056H
	DB	0fdH
	DB	055H
	DB	055H
	DB	055H
	DB	0ffH
	DB	01cH
	DB	01cH
	DB	01cH
	DB	0ffH
	DB	0bH
	DB	0bH
	DB	0bH
	DB	0ffH
	DB	0bH
	DB	0bH
	DB	0bH
	DB	0ffH
	DB	0bH
	DB	0bH
	DB	0bH
	DB	0ffH
	DB	0bH
	DB	0bH
	DB	0bH
	DB	0ffH
	DB	0bH
	DB	0bH
	DB	0bH
	DB	0ffH
	DB	0bH
	DB	0bH
	DB	0bH
	DB	0ffH
	DB	0bH
	DB	0bH
	DB	0bH
	DB	0ffH
	DB	0bH
	DB	0bH
	DB	0bH
	DB	0ffH
	DB	0bH
	DB	0bH
	DB	0bH
	DB	0ffH
	DB	0bH
	DB	0bH
	DB	0bH
	DB	0ffH
	DB	0bH
	DB	0bH
	DB	0bH
	DB	0ffH
	DB	0bH
	DB	0bH
	DB	0bH
	DB	0ffH
	DB	0bH
	DB	0bH
	DB	0bH
	DB	0ffH
	DB	0bH
	DB	0bH
	DB	0bH
	DB	0ffH
	DB	0bH
	DB	0bH
	DB	0bH
	DB	0ffH
	DB	0bH
	DB	0bH
	DB	0bH
	DB	0ffH
	DB	0bH
	DB	0bH
	DB	0bH
	DB	0ffH
	DB	0bH
	DB	0bH
	DB	0bH
	DB	0ffH
	DB	031H
	DB	031H
	DB	031H
	DB	0ffH
	DB	056H
	DB	056H
	DB	056H
	DB	0ffH
	DB	056H
	DB	056H
	DB	056H
	DB	0f9H
	DB	055H
	DB	055H
	DB	055H
	DB	04bH
	DB	00H
	DB	00H
	DB	00H
	DB	00H
	DB	00H
	DB	00H
	DB	00H
	DB	00H
	DB	00H
	DB	00H
	DB	00H
	DB	00H
	DB	00H
	DB	00H
	DB	00H
	DB	00H
	DB	00H
	DB	00H
	DB	00H
	DB	00H
	DB	00H
	DB	00H
	DB	00H
	DB	00H
	DB	00H
	DB	00H
	DB	00H
	DB	00H
	DB	00H
	DB	00H
	DB	00H
	DB	00H
	DB	00H
	DB	00H
	DB	00H
	DB	00H
	DB	00H
	DB	00H
	DB	00H
	DB	00H
	DB	00H
	DB	00H
	DB	00H
	DB	00H
	DB	00H
	DB	00H
	DB	00H
	DB	00H
	DB	00H
	DB	00H
	DB	00H
	DB	00H
	DB	00H
	DB	00H
	DB	00H
	DB	00H
	DB	00H
	DB	00H
	DB	00H
	DB	00H
	DB	00H
	DB	00H
	DB	00H
	DB	00H
	DB	00H
	DB	00H
	DB	00H
	DB	00H
	DB	00H
	DB	00H
	DB	00H
	DB	00H
	DB	00H
	DB	00H
	DB	00H
	DB	00H
	DB	00H
	DB	00H
	DB	00H
	DB	00H
	DB	00H
	DB	00H
	DB	00H
	DB	00H
	DB	00H
	DB	00H
	DB	00H
	DB	00H
	DB	00H
	DB	00H
	DB	00H
	DB	00H
	DB	00H
	DB	00H
	DB	00H
	DB	00H
	DB	00H
	DB	00H
	DB	00H
	DB	00H
	DB	00H
	DB	00H
	DB	00H
	DB	00H
	DB	00H
	DB	00H
	DB	00H
	DB	00H
	DB	00H
	DB	00H
	DB	00H
	DB	00H
	DB	00H
	DB	00H
	DB	00H
	DB	00H
	DB	00H
	DB	00H
	DB	00H
	DB	00H
	DB	00H
	DB	00H
	DB	00H
	DB	00H
	DB	00H
	DB	00H
	DB	00H
	DB	00H
	DB	00H
	DB	00H
	DB	00H
	DB	00H
	DB	00H
	DB	00H
	DB	00H
	DB	00H
	DB	00H
	DB	00H
	DB	00H
	DB	00H
	DB	00H
	DB	00H
	DB	00H
	DB	00H
	DB	00H
	DB	00H
	DB	00H
	DB	00H
	DB	00H
	DB	00H
	DB	00H
	DB	00H
	DB	00H
	DB	00H
	DB	00H
	DB	00H
	DB	00H
	DB	00H
	DB	00H
	DB	00H
	DB	00H
	DB	00H
	DB	00H
	DB	00H
	DB	00H
	DB	00H
	DB	00H
	DB	00H
	DB	00H
	DB	00H
	DB	00H
	DB	00H
	DB	00H
	DB	00H
	DB	00H
	DB	00H
	DB	00H
	DB	00H
	DB	00H
	DB	00H
	DB	00H
	DB	00H
	DB	00H
	DB	00H
	DB	00H
	DB	00H
	DB	00H
	DB	00H
	DB	00H
	DB	00H
	DB	00H
	DB	00H
	DB	00H
	DB	00H
	DB	00H
	DB	00H
	DB	00H
	DB	00H
	DB	00H
	DB	00H
	DB	00H
	DB	00H
	DB	00H
	DB	00H
	DB	00H
	DB	00H
	DB	00H
	DB	00H
	DB	00H
	DB	00H
	DB	00H
	DB	00H
	DB	00H
	DB	00H
	DB	00H
	DB	00H
	DB	00H
	DB	00H
	DB	00H
	DB	00H
	DB	00H
	DB	00H
	DB	00H
	DB	00H
	DB	00H
	DB	00H
	DB	00H
	DB	00H
	DB	00H
	DB	00H
	DB	00H
	DB	00H
	DB	00H
	DB	00H
	DB	00H
	DB	00H
	DB	00H
	DB	00H
	DB	00H
	DB	00H
	DB	00H
	DB	00H
	DB	00H
	DB	00H
	DB	00H
	DB	00H
	DB	00H
	DB	00H
	DB	00H
	DB	00H
	DB	00H
	DB	00H
	DB	00H
	DB	00H
	DB	00H
	DB	00H
	DB	00H
	DB	00H
	DB	00H
	DB	00H
	DB	00H
	DB	00H
	DB	00H
	DB	00H
	DB	00H
	DB	00H
	DB	00H
	DB	00H
	DB	00H
	DB	00H
	DB	00H
	DB	00H
	DB	00H
	DB	00H
	DB	00H
	DB	00H
	DB	00H
	DB	00H
	DB	00H
	DB	00H
	DB	00H
	DB	00H
	DB	00H
	DB	00H
	DB	00H
	DB	00H
	DB	00H
	DB	00H
	DB	00H
	DB	00H
	DB	00H
	DB	00H
	DB	00H
	DB	00H
	DB	00H
	DB	00H
	DB	00H
	DB	00H
	DB	00H
	DB	00H
	DB	00H
	DB	00H
	DB	00H
	DB	00H
	DB	00H
	DB	00H
	DB	00H
	DB	00H
	DB	00H
	DB	00H
	DB	00H
	DB	00H
	DB	00H
	DB	00H
	DB	00H
	DB	00H
	DB	00H
	DB	00H
	DB	00H
	DB	00H
	DB	00H
	DB	00H
	DB	00H
	DB	00H
	DB	00H
	DB	00H
	DB	00H
	DB	00H
	DB	00H
	DB	00H
	DB	00H
	DB	00H
	DB	00H
	DB	00H
	DB	00H
	DB	00H
	DB	00H
	DB	00H
	DB	00H
	DB	00H
	DB	00H
	DB	00H
	DB	00H
	DB	00H
	DB	00H
	DB	00H
	DB	00H
	DB	00H
	DB	00H
	DB	00H
	DB	00H
	DB	00H
	DB	00H
	DB	00H
	DB	00H
	DB	00H
	DB	00H
	DB	00H
	DB	00H
	DB	00H
	DB	00H
	DB	00H
	DB	00H
	DB	00H
	DB	00H
	DB	00H
	DB	00H
	DB	00H
	DB	00H
	DB	00H
	DB	00H
	DB	00H
	DB	00H
	DB	00H
	DB	00H
	DB	00H
	DB	00H
	DB	00H
	DB	00H
	DB	00H
	DB	00H
	DB	00H
	DB	00H
	DB	00H
	DB	00H
	DB	00H
	DB	00H
	DB	00H
	DB	00H
	DB	00H
	DB	00H
	DB	00H
	DB	00H
	DB	00H
	DB	00H
	DB	00H
	DB	00H
	DB	00H
	DB	00H
	DB	00H
	DB	00H
	DB	00H
	DB	00H
	DB	00H
	DB	00H
	DB	00H
	DB	00H
	DB	00H
	DB	057H
	DB	057H
	DB	057H
	DB	04cH
	DB	056H
	DB	056H
	DB	056H
	DB	0f9H
	DB	056H
	DB	056H
	DB	056H
	DB	0ffH
	DB	030H
	DB	030H
	DB	030H
	DB	0ffH
	DB	0bH
	DB	0bH
	DB	0bH
	DB	0ffH
	DB	0bH
	DB	0bH
	DB	0bH
	DB	0ffH
	DB	0bH
	DB	0bH
	DB	0bH
	DB	0ffH
	DB	0bH
	DB	0bH
	DB	0bH
	DB	0ffH
	DB	0bH
	DB	0bH
	DB	0bH
	DB	0ffH
	DB	0bH
	DB	0bH
	DB	0bH
	DB	0ffH
	DB	0bH
	DB	0bH
	DB	0bH
	DB	0ffH
	DB	0bH
	DB	0bH
	DB	0bH
	DB	0ffH
	DB	0bH
	DB	0bH
	DB	0bH
	DB	0ffH
	DB	0bH
	DB	0bH
	DB	0bH
	DB	0ffH
	DB	0bH
	DB	0bH
	DB	0bH
	DB	0ffH
	DB	0bH
	DB	0bH
	DB	0bH
	DB	0ffH
	DB	0bH
	DB	0bH
	DB	0bH
	DB	0ffH
	DB	0bH
	DB	0bH
	DB	0bH
	DB	0ffH
	DB	0bH
	DB	0bH
	DB	0bH
	DB	0ffH
	DB	0bH
	DB	0bH
	DB	0bH
	DB	0ffH
	DB	0bH
	DB	0bH
	DB	0bH
	DB	0ffH
	DB	0bH
	DB	0bH
	DB	0bH
	DB	0ffH
	DB	01bH
	DB	01bH
	DB	01bH
	DB	0ffH
	DB	054H
	DB	054H
	DB	054H
	DB	0ffH
	DB	056H
	DB	056H
	DB	056H
	DB	0fdH
	DB	055H
	DB	055H
	DB	055H
	DB	03fH
	DB	00H
	DB	00H
	DB	00H
	DB	00H
	DB	00H
	DB	00H
	DB	00H
	DB	00H
	DB	00H
	DB	00H
	DB	00H
	DB	00H
	DB	00H
	DB	00H
	DB	00H
	DB	00H
	DB	00H
	DB	00H
	DB	00H
	DB	00H
	DB	00H
	DB	00H
	DB	00H
	DB	00H
	DB	00H
	DB	00H
	DB	00H
	DB	00H
	DB	00H
	DB	00H
	DB	00H
	DB	00H
	DB	00H
	DB	00H
	DB	00H
	DB	00H
	DB	00H
	DB	00H
	DB	00H
	DB	00H
	DB	00H
	DB	00H
	DB	00H
	DB	00H
	DB	00H
	DB	00H
	DB	00H
	DB	00H
	DB	00H
	DB	00H
	DB	00H
	DB	00H
	DB	00H
	DB	00H
	DB	00H
	DB	00H
	DB	00H
	DB	00H
	DB	00H
	DB	00H
	DB	00H
	DB	00H
	DB	00H
	DB	00H
	DB	00H
	DB	00H
	DB	00H
	DB	00H
	DB	00H
	DB	00H
	DB	00H
	DB	00H
	DB	00H
	DB	00H
	DB	00H
	DB	00H
	DB	00H
	DB	00H
	DB	00H
	DB	00H
	DB	00H
	DB	00H
	DB	00H
	DB	00H
	DB	00H
	DB	00H
	DB	00H
	DB	00H
	DB	00H
	DB	00H
	DB	00H
	DB	00H
	DB	00H
	DB	00H
	DB	00H
	DB	00H
	DB	00H
	DB	00H
	DB	00H
	DB	00H
	DB	00H
	DB	00H
	DB	00H
	DB	00H
	DB	00H
	DB	00H
	DB	00H
	DB	00H
	DB	00H
	DB	00H
	DB	00H
	DB	00H
	DB	00H
	DB	00H
	DB	00H
	DB	00H
	DB	04dH
	DB	04dH
	DB	04dH
	DB	0aH
	DB	056H
	DB	056H
	DB	056H
	DB	0dbH
	DB	056H
	DB	056H
	DB	056H
	DB	0ffH
	DB	030H
	DB	030H
	DB	030H
	DB	0ffH
	DB	0bH
	DB	0bH
	DB	0bH
	DB	0ffH
	DB	0bH
	DB	0bH
	DB	0bH
	DB	0ffH
	DB	0bH
	DB	0bH
	DB	0bH
	DB	0ffH
	DB	0bH
	DB	0bH
	DB	0bH
	DB	0ffH
	DB	0bH
	DB	0bH
	DB	0bH
	DB	0ffH
	DB	0bH
	DB	0bH
	DB	0bH
	DB	0ffH
	DB	0bH
	DB	0bH
	DB	0bH
	DB	0ffH
	DB	0bH
	DB	0bH
	DB	0bH
	DB	0ffH
	DB	0bH
	DB	0bH
	DB	0bH
	DB	0ffH
	DB	0bH
	DB	0bH
	DB	0bH
	DB	0ffH
	DB	0bH
	DB	0bH
	DB	0bH
	DB	0ffH
	DB	0bH
	DB	0bH
	DB	0bH
	DB	0ffH
	DB	0bH
	DB	0bH
	DB	0bH
	DB	0ffH
	DB	0bH
	DB	0bH
	DB	0bH
	DB	0ffH
	DB	0bH
	DB	0bH
	DB	0bH
	DB	0ffH
	DB	0bH
	DB	0bH
	DB	0bH
	DB	0ffH
	DB	0bH
	DB	0bH
	DB	0bH
	DB	0ffH
	DB	0bH
	DB	0bH
	DB	0bH
	DB	0ffH
	DB	02dH
	DB	02dH
	DB	02dH
	DB	0ffH
	DB	056H
	DB	056H
	DB	056H
	DB	0ffH
	DB	056H
	DB	056H
	DB	056H
	DB	0fcH
	DB	056H
	DB	056H
	DB	056H
	DB	056H
	DB	00H
	DB	00H
	DB	00H
	DB	00H
	DB	00H
	DB	00H
	DB	00H
	DB	00H
	DB	00H
	DB	00H
	DB	00H
	DB	00H
	DB	00H
	DB	00H
	DB	00H
	DB	00H
	DB	00H
	DB	00H
	DB	00H
	DB	00H
	DB	00H
	DB	00H
	DB	00H
	DB	00H
	DB	00H
	DB	00H
	DB	00H
	DB	00H
	DB	00H
	DB	00H
	DB	00H
	DB	00H
	DB	00H
	DB	00H
	DB	00H
	DB	00H
	DB	00H
	DB	00H
	DB	00H
	DB	00H
	DB	00H
	DB	00H
	DB	00H
	DB	00H
	DB	00H
	DB	00H
	DB	00H
	DB	00H
	DB	00H
	DB	00H
	DB	00H
	DB	00H
	DB	00H
	DB	00H
	DB	00H
	DB	00H
	DB	00H
	DB	00H
	DB	00H
	DB	00H
	DB	00H
	DB	00H
	DB	00H
	DB	00H
	DB	00H
	DB	00H
	DB	00H
	DB	00H
	DB	00H
	DB	00H
	DB	00H
	DB	00H
	DB	00H
	DB	00H
	DB	00H
	DB	00H
	DB	00H
	DB	00H
	DB	00H
	DB	00H
	DB	00H
	DB	00H
	DB	00H
	DB	00H
	DB	00H
	DB	00H
	DB	00H
	DB	00H
	DB	00H
	DB	00H
	DB	00H
	DB	00H
	DB	00H
	DB	00H
	DB	00H
	DB	00H
	DB	00H
	DB	00H
	DB	00H
	DB	00H
	DB	00H
	DB	00H
	DB	00H
	DB	00H
	DB	00H
	DB	00H
	DB	00H
	DB	00H
	DB	00H
	DB	00H
	DB	00H
	DB	00H
	DB	00H
	DB	00H
	DB	00H
	DB	00H
	DB	00H
	DB	00H
	DB	00H
	DB	00H
	DB	00H
	DB	00H
	DB	00H
	DB	00H
	DB	00H
	DB	00H
	DB	00H
