; Listing generated by Microsoft (R) Optimizing Compiler Version 19.22.27905.0 

	TITLE	C:\TouchGFXProjects\Dashboard\TouchGFX\generated\fonts\src\FontCache.cpp
	.686P
	.XMM
	include listing.inc
	.model	flat

INCLUDELIB MSVCRTD
INCLUDELIB OLDNAMES

msvcjmc	SEGMENT
__285B227C_Types@hpp DB 01H
__FB4E853A_Unicode@hpp DB 01H
__3A8A7BA5_Font@hpp DB 01H
__1DAFD7EA_FontManager@hpp DB 01H
__CFC461D7_vcruntime_new@h DB 01H
__8DB28DB8_Texts@hpp DB 01H
__FB4ADB3D_TypedText@hpp DB 01H
__B468A739_FontCache@hpp DB 01H
__E48AE72E_ConstFont@hpp DB 01H
__74D5B664_GeneratedFont@hpp DB 01H
__83791248_CachedFont@hpp DB 01H
__941D13D0_ctype@h DB 01H
__DF6784BA_basetsd@h DB 01H
__82CA083D_corecrt_memcpy_s@h DB 01H
__F8BB3D43_corecrt_memory@h DB 01H
__61E6ED1F_corecrt_wstring@h DB 01H
__B0CBCB7B_string@h DB 01H
__73E5A5AE_guiddef@h DB 01H
__20E88E2C_winnt@h DB 01H
__B0708975_processthreadsapi@h DB 01H
__14D8E0CB_memoryapi@h DB 01H
__0A5E6AC9_winerror@h DB 01H
__95229982_winbase@h DB 01H
__FDCAD2F5_winuser@h DB 01H
__253F0A20_winioctl@h DB 01H
__36B85FDF_stdlib@h DB 01H
__CA946E7A_propidl@h DB 01H
__4B69DDF6_oleauto@h DB 01H
__7F05D861_stralign@h DB 01H
__23AD7809_corecrt_stdio_config@h DB 01H
__DD74D44A_corecrt_wstdio@h DB 01H
__4B3541EE_stdio@h DB 01H
__992811F5_Bitmap@hpp DB 01H
__AEB314D6_FontCache@cpp DB 01H
msvcjmc	ENDS
PUBLIC	?width@GlyphNode@touchgfx@@QBEGXZ		; touchgfx::GlyphNode::width
PUBLIC	?height@GlyphNode@touchgfx@@QBEGXZ		; touchgfx::GlyphNode::height
PUBLIC	??1Font@touchgfx@@UAE@XZ			; touchgfx::Font::~Font
PUBLIC	?getGlyph@Font@touchgfx@@UBEPBUGlyphNode@2@G@Z	; touchgfx::Font::getGlyph
PUBLIC	?getFallbackChar@Font@touchgfx@@UBEGXZ		; touchgfx::Font::getFallbackChar
PUBLIC	?getEllipsisChar@Font@touchgfx@@UBEGXZ		; touchgfx::Font::getEllipsisChar
PUBLIC	?getFontHeight@Font@touchgfx@@UBEGXZ		; touchgfx::Font::getFontHeight
PUBLIC	?getMinimumTextHeight@Font@touchgfx@@UBEGXZ	; touchgfx::Font::getMinimumTextHeight
PUBLIC	?getBitsPerPixel@Font@touchgfx@@UBEEXZ		; touchgfx::Font::getBitsPerPixel
PUBLIC	?getDataFormatA4@Font@touchgfx@@UBEEXZ		; touchgfx::Font::getDataFormatA4
PUBLIC	?getKerning@Font@touchgfx@@UBECGPBUGlyphNode@2@@Z ; touchgfx::Font::getKerning
PUBLIC	?getGSUBTable@Font@touchgfx@@UBEPBGXZ		; touchgfx::Font::getGSUBTable
PUBLIC	??4Font@touchgfx@@QAEAAV01@ABV01@@Z		; touchgfx::Font::operator=
PUBLIC	??_GFont@touchgfx@@UAEPAXI@Z			; touchgfx::Font::`scalar deleting destructor'
PUBLIC	?getFont@TypedText@touchgfx@@QBEPBVFont@2@XZ	; touchgfx::TypedText::getFont
PUBLIC	?getFontId@TypedText@touchgfx@@QBEGXZ		; touchgfx::TypedText::getFontId
PUBLIC	?assertValid@TypedText@touchgfx@@ABEXXZ		; touchgfx::TypedText::assertValid
PUBLIC	??0FontCache@touchgfx@@QAE@XZ			; touchgfx::FontCache::FontCache
PUBLIC	?setReader@FontCache@touchgfx@@QAEXPAVFontDataReader@2@@Z ; touchgfx::FontCache::setReader
PUBLIC	?clear@FontCache@touchgfx@@QAEXXZ		; touchgfx::FontCache::clear
PUBLIC	?setMemory@FontCache@touchgfx@@QAEXPAEI@Z	; touchgfx::FontCache::setMemory
PUBLIC	?initializeCachedFont@FontCache@touchgfx@@QAEXVTypedText@2@PAVCachedFont@2@@Z ; touchgfx::FontCache::initializeCachedFont
PUBLIC	?cacheString@FontCache@touchgfx@@QAE_NVTypedText@2@PBG@Z ; touchgfx::FontCache::cacheString
PUBLIC	?getGlyph@FontCache@touchgfx@@QBEPBUGlyphNode@2@GG@Z ; touchgfx::FontCache::getGlyph
PUBLIC	?open@FontCache@touchgfx@@QAEXXZ		; touchgfx::FontCache::open
PUBLIC	?close@FontCache@touchgfx@@QAEXXZ		; touchgfx::FontCache::close
PUBLIC	?contains@FontCache@touchgfx@@ABE_NGG@Z		; touchgfx::FontCache::contains
PUBLIC	?insert@FontCache@touchgfx@@AAEXGGIAA_N@Z	; touchgfx::FontCache::insert
PUBLIC	?copyGlyph@FontCache@touchgfx@@AAEPAEPAEGGIAA_N@Z ; touchgfx::FontCache::copyGlyph
PUBLIC	?cacheData@FontCache@touchgfx@@AAEXIPAUGlyphNode@2@@Z ; touchgfx::FontCache::cacheData
PUBLIC	?createSortedString@FontCache@touchgfx@@AAE_NPBG@Z ; touchgfx::FontCache::createSortedString
PUBLIC	?setPosition@FontCache@touchgfx@@AAEXI@Z	; touchgfx::FontCache::setPosition
PUBLIC	?readData@FontCache@touchgfx@@AAEXPAXI@Z	; touchgfx::FontCache::readData
PUBLIC	??1ConstFont@touchgfx@@UAE@XZ			; touchgfx::ConstFont::~ConstFont
PUBLIC	??4ConstFont@touchgfx@@QAEAAV01@$$QAV01@@Z	; touchgfx::ConstFont::operator=
PUBLIC	?getGSUBTable@GeneratedFont@touchgfx@@UBEPBGXZ	; touchgfx::GeneratedFont::getGSUBTable
PUBLIC	??1GeneratedFont@touchgfx@@UAE@XZ		; touchgfx::GeneratedFont::~GeneratedFont
PUBLIC	??4GeneratedFont@touchgfx@@QAEAAV01@$$QAV01@@Z	; touchgfx::GeneratedFont::operator=
PUBLIC	??0CachedFont@touchgfx@@QAE@PBUBinaryFontData@1@GPAVFontCache@1@PBVGeneratedFont@1@@Z ; touchgfx::CachedFont::CachedFont
PUBLIC	??1CachedFont@touchgfx@@UAE@XZ			; touchgfx::CachedFont::~CachedFont
PUBLIC	??4CachedFont@touchgfx@@QAEAAV01@$$QAV01@@Z	; touchgfx::CachedFont::operator=
PUBLIC	??_GCachedFont@touchgfx@@UAEPAXI@Z		; touchgfx::CachedFont::`scalar deleting destructor'
PUBLIC	__JustMyCode_Default
PUBLIC	??_7Font@touchgfx@@6B@				; touchgfx::Font::`vftable'
PUBLIC	??_C@_0CN@OFCNDKEN@TypedText?5database?5has?5not?5been@ ; `string'
PUBLIC	??_C@_1NA@LFFADKGC@?$AAC?$AA?3?$AA?2?$AAT?$AAo?$AAu?$AAc?$AAh?$AAG?$AAF?$AAX?$AAP?$AAr?$AAo?$AAj@ ; `string'
PUBLIC	??_C@_1IE@NPIIMJBA@?$AAt?$AAy?$AAp?$AAe?$AAd?$AAT?$AAe?$AAx?$AAt?$AAs?$AA?5?$AA?$CB?$AA?$DN?$AA?5?$AA0@ ; `string'
PUBLIC	??_C@_0CM@IOAPKHHD@typedTextId?5larger?5than?5numberO@ ; `string'
PUBLIC	??_C@_1KE@IMIJNMJM@?$AAt?$AAy?$AAp?$AAe?$AAd?$AAT?$AAe?$AAx?$AAt?$AAI?$AAd?$AA?5?$AA?$DM?$AA?5?$AAn@ ; `string'
PUBLIC	??_7CachedFont@touchgfx@@6B@			; touchgfx::CachedFont::`vftable'
PUBLIC	??_R4Font@touchgfx@@6B@				; touchgfx::Font::`RTTI Complete Object Locator'
PUBLIC	??_R0?AVFont@touchgfx@@@8			; touchgfx::Font `RTTI Type Descriptor'
PUBLIC	??_R3Font@touchgfx@@8				; touchgfx::Font::`RTTI Class Hierarchy Descriptor'
PUBLIC	??_R2Font@touchgfx@@8				; touchgfx::Font::`RTTI Base Class Array'
PUBLIC	??_R1A@?0A@EA@Font@touchgfx@@8			; touchgfx::Font::`RTTI Base Class Descriptor at (0,-1,0,64)'
PUBLIC	??_R4CachedFont@touchgfx@@6B@			; touchgfx::CachedFont::`RTTI Complete Object Locator'
PUBLIC	??_R0?AVCachedFont@touchgfx@@@8			; touchgfx::CachedFont `RTTI Type Descriptor'
PUBLIC	??_R3CachedFont@touchgfx@@8			; touchgfx::CachedFont::`RTTI Class Hierarchy Descriptor'
PUBLIC	??_R2CachedFont@touchgfx@@8			; touchgfx::CachedFont::`RTTI Base Class Array'
PUBLIC	??_R1A@?0A@EA@CachedFont@touchgfx@@8		; touchgfx::CachedFont::`RTTI Base Class Descriptor at (0,-1,0,64)'
PUBLIC	??_R1A@?0A@EA@GeneratedFont@touchgfx@@8		; touchgfx::GeneratedFont::`RTTI Base Class Descriptor at (0,-1,0,64)'
PUBLIC	??_R0?AVGeneratedFont@touchgfx@@@8		; touchgfx::GeneratedFont `RTTI Type Descriptor'
PUBLIC	??_R3GeneratedFont@touchgfx@@8			; touchgfx::GeneratedFont::`RTTI Class Hierarchy Descriptor'
PUBLIC	??_R2GeneratedFont@touchgfx@@8			; touchgfx::GeneratedFont::`RTTI Base Class Array'
PUBLIC	??_R1A@?0A@EA@ConstFont@touchgfx@@8		; touchgfx::ConstFont::`RTTI Base Class Descriptor at (0,-1,0,64)'
PUBLIC	??_R0?AVConstFont@touchgfx@@@8			; touchgfx::ConstFont `RTTI Type Descriptor'
PUBLIC	??_R3ConstFont@touchgfx@@8			; touchgfx::ConstFont::`RTTI Class Hierarchy Descriptor'
PUBLIC	??_R2ConstFont@touchgfx@@8			; touchgfx::ConstFont::`RTTI Base Class Array'
EXTRN	__purecall:PROC
EXTRN	??3@YAXPAXI@Z:PROC				; operator delete
EXTRN	__imp___wassert:PROC
EXTRN	?strlen@Unicode@touchgfx@@SAGPBG@Z:PROC		; touchgfx::Unicode::strlen
EXTRN	?getStringWidth@Font@touchgfx@@UBAGPBGZZ:PROC	; touchgfx::Font::getStringWidth
EXTRN	?getStringWidth@Font@touchgfx@@UBAGEPBGZZ:PROC	; touchgfx::Font::getStringWidth
EXTRN	?getCharWidth@Font@touchgfx@@UBEGG@Z:PROC	; touchgfx::Font::getCharWidth
EXTRN	?getSpacingAbove@Font@touchgfx@@UBAEPBGZZ:PROC	; touchgfx::Font::getSpacingAbove
EXTRN	?getMaxTextHeight@Font@touchgfx@@UBAGPBGZZ:PROC	; touchgfx::Font::getMaxTextHeight
EXTRN	?getNumberOfLines@Font@touchgfx@@UBAGPBGZZ:PROC	; touchgfx::Font::getNumberOfLines
EXTRN	??_EFont@touchgfx@@UAEPAXI@Z:PROC		; touchgfx::Font::`vector deleting destructor'
EXTRN	??0GeneratedFont@touchgfx@@QAE@PBUGlyphNode@1@GGEEEEEPBQBEPBUKerningNode@1@GGQBG@Z:PROC ; touchgfx::GeneratedFont::GeneratedFont
EXTRN	?getGlyph@CachedFont@touchgfx@@UBEPBUGlyphNode@2@GAAPBEAAE@Z:PROC ; touchgfx::CachedFont::getGlyph
EXTRN	?getPixelData@CachedFont@touchgfx@@UBEPBEPBUGlyphNode@2@@Z:PROC ; touchgfx::CachedFont::getPixelData
EXTRN	?getKerning@CachedFont@touchgfx@@UBECGPBUGlyphNode@2@@Z:PROC ; touchgfx::CachedFont::getKerning
EXTRN	??_ECachedFont@touchgfx@@UAEPAXI@Z:PROC		; touchgfx::CachedFont::`vector deleting destructor'
EXTRN	?getFonts@TypedTextDatabase@@YAPAPBVFont@touchgfx@@XZ:PROC ; TypedTextDatabase::getFonts
EXTRN	?memset@touchgfx@@YAXPAXEI@Z:PROC		; touchgfx::memset
EXTRN	@_RTC_CheckStackVars@8:PROC
EXTRN	@__CheckForDebuggerJustMyCode@4:PROC
EXTRN	@__security_check_cookie@4:PROC
EXTRN	__RTC_CheckEsp:PROC
EXTRN	__RTC_InitBase:PROC
EXTRN	__RTC_Shutdown:PROC
EXTRN	___CxxFrameHandler3:PROC
EXTRN	?typedTexts@TypedText@touchgfx@@0PBUTypedTextData@12@B:DWORD ; touchgfx::TypedText::typedTexts
EXTRN	?fonts@TypedText@touchgfx@@0PBQBVFont@2@B:DWORD	; touchgfx::TypedText::fonts
EXTRN	?numberOfTypedTexts@TypedText@touchgfx@@0GA:WORD ; touchgfx::TypedText::numberOfTypedTexts
EXTRN	??_7type_info@@6B@:QWORD			; type_info::`vftable'
EXTRN	___security_cookie:DWORD
;	COMDAT rtc$TMZ
rtc$TMZ	SEGMENT
__RTC_Shutdown.rtc$TMZ DD FLAT:__RTC_Shutdown
rtc$TMZ	ENDS
;	COMDAT rtc$IMZ
rtc$IMZ	SEGMENT
__RTC_InitBase.rtc$IMZ DD FLAT:__RTC_InitBase
rtc$IMZ	ENDS
;	COMDAT ??_R2ConstFont@touchgfx@@8
rdata$r	SEGMENT
??_R2ConstFont@touchgfx@@8 DD FLAT:??_R1A@?0A@EA@ConstFont@touchgfx@@8 ; touchgfx::ConstFont::`RTTI Base Class Array'
	DD	FLAT:??_R1A@?0A@EA@Font@touchgfx@@8
rdata$r	ENDS
;	COMDAT ??_R3ConstFont@touchgfx@@8
rdata$r	SEGMENT
??_R3ConstFont@touchgfx@@8 DD 00H			; touchgfx::ConstFont::`RTTI Class Hierarchy Descriptor'
	DD	00H
	DD	02H
	DD	FLAT:??_R2ConstFont@touchgfx@@8
rdata$r	ENDS
;	COMDAT ??_R0?AVConstFont@touchgfx@@@8
data$r	SEGMENT
??_R0?AVConstFont@touchgfx@@@8 DD FLAT:??_7type_info@@6B@ ; touchgfx::ConstFont `RTTI Type Descriptor'
	DD	00H
	DB	'.?AVConstFont@touchgfx@@', 00H
data$r	ENDS
;	COMDAT ??_R1A@?0A@EA@ConstFont@touchgfx@@8
rdata$r	SEGMENT
??_R1A@?0A@EA@ConstFont@touchgfx@@8 DD FLAT:??_R0?AVConstFont@touchgfx@@@8 ; touchgfx::ConstFont::`RTTI Base Class Descriptor at (0,-1,0,64)'
	DD	01H
	DD	00H
	DD	0ffffffffH
	DD	00H
	DD	040H
	DD	FLAT:??_R3ConstFont@touchgfx@@8
rdata$r	ENDS
;	COMDAT ??_R2GeneratedFont@touchgfx@@8
rdata$r	SEGMENT
??_R2GeneratedFont@touchgfx@@8 DD FLAT:??_R1A@?0A@EA@GeneratedFont@touchgfx@@8 ; touchgfx::GeneratedFont::`RTTI Base Class Array'
	DD	FLAT:??_R1A@?0A@EA@ConstFont@touchgfx@@8
	DD	FLAT:??_R1A@?0A@EA@Font@touchgfx@@8
rdata$r	ENDS
;	COMDAT ??_R3GeneratedFont@touchgfx@@8
rdata$r	SEGMENT
??_R3GeneratedFont@touchgfx@@8 DD 00H			; touchgfx::GeneratedFont::`RTTI Class Hierarchy Descriptor'
	DD	00H
	DD	03H
	DD	FLAT:??_R2GeneratedFont@touchgfx@@8
rdata$r	ENDS
;	COMDAT ??_R0?AVGeneratedFont@touchgfx@@@8
data$r	SEGMENT
??_R0?AVGeneratedFont@touchgfx@@@8 DD FLAT:??_7type_info@@6B@ ; touchgfx::GeneratedFont `RTTI Type Descriptor'
	DD	00H
	DB	'.?AVGeneratedFont@touchgfx@@', 00H
data$r	ENDS
;	COMDAT ??_R1A@?0A@EA@GeneratedFont@touchgfx@@8
rdata$r	SEGMENT
??_R1A@?0A@EA@GeneratedFont@touchgfx@@8 DD FLAT:??_R0?AVGeneratedFont@touchgfx@@@8 ; touchgfx::GeneratedFont::`RTTI Base Class Descriptor at (0,-1,0,64)'
	DD	02H
	DD	00H
	DD	0ffffffffH
	DD	00H
	DD	040H
	DD	FLAT:??_R3GeneratedFont@touchgfx@@8
rdata$r	ENDS
;	COMDAT ??_R1A@?0A@EA@CachedFont@touchgfx@@8
rdata$r	SEGMENT
??_R1A@?0A@EA@CachedFont@touchgfx@@8 DD FLAT:??_R0?AVCachedFont@touchgfx@@@8 ; touchgfx::CachedFont::`RTTI Base Class Descriptor at (0,-1,0,64)'
	DD	03H
	DD	00H
	DD	0ffffffffH
	DD	00H
	DD	040H
	DD	FLAT:??_R3CachedFont@touchgfx@@8
rdata$r	ENDS
;	COMDAT ??_R2CachedFont@touchgfx@@8
rdata$r	SEGMENT
??_R2CachedFont@touchgfx@@8 DD FLAT:??_R1A@?0A@EA@CachedFont@touchgfx@@8 ; touchgfx::CachedFont::`RTTI Base Class Array'
	DD	FLAT:??_R1A@?0A@EA@GeneratedFont@touchgfx@@8
	DD	FLAT:??_R1A@?0A@EA@ConstFont@touchgfx@@8
	DD	FLAT:??_R1A@?0A@EA@Font@touchgfx@@8
rdata$r	ENDS
;	COMDAT ??_R3CachedFont@touchgfx@@8
rdata$r	SEGMENT
??_R3CachedFont@touchgfx@@8 DD 00H			; touchgfx::CachedFont::`RTTI Class Hierarchy Descriptor'
	DD	00H
	DD	04H
	DD	FLAT:??_R2CachedFont@touchgfx@@8
rdata$r	ENDS
;	COMDAT ??_R0?AVCachedFont@touchgfx@@@8
data$r	SEGMENT
??_R0?AVCachedFont@touchgfx@@@8 DD FLAT:??_7type_info@@6B@ ; touchgfx::CachedFont `RTTI Type Descriptor'
	DD	00H
	DB	'.?AVCachedFont@touchgfx@@', 00H
data$r	ENDS
;	COMDAT ??_R4CachedFont@touchgfx@@6B@
rdata$r	SEGMENT
??_R4CachedFont@touchgfx@@6B@ DD 00H			; touchgfx::CachedFont::`RTTI Complete Object Locator'
	DD	00H
	DD	00H
	DD	FLAT:??_R0?AVCachedFont@touchgfx@@@8
	DD	FLAT:??_R3CachedFont@touchgfx@@8
rdata$r	ENDS
;	COMDAT ??_R1A@?0A@EA@Font@touchgfx@@8
rdata$r	SEGMENT
??_R1A@?0A@EA@Font@touchgfx@@8 DD FLAT:??_R0?AVFont@touchgfx@@@8 ; touchgfx::Font::`RTTI Base Class Descriptor at (0,-1,0,64)'
	DD	00H
	DD	00H
	DD	0ffffffffH
	DD	00H
	DD	040H
	DD	FLAT:??_R3Font@touchgfx@@8
rdata$r	ENDS
;	COMDAT ??_R2Font@touchgfx@@8
rdata$r	SEGMENT
??_R2Font@touchgfx@@8 DD FLAT:??_R1A@?0A@EA@Font@touchgfx@@8 ; touchgfx::Font::`RTTI Base Class Array'
rdata$r	ENDS
;	COMDAT ??_R3Font@touchgfx@@8
rdata$r	SEGMENT
??_R3Font@touchgfx@@8 DD 00H				; touchgfx::Font::`RTTI Class Hierarchy Descriptor'
	DD	00H
	DD	01H
	DD	FLAT:??_R2Font@touchgfx@@8
rdata$r	ENDS
;	COMDAT ??_R0?AVFont@touchgfx@@@8
data$r	SEGMENT
??_R0?AVFont@touchgfx@@@8 DD FLAT:??_7type_info@@6B@	; touchgfx::Font `RTTI Type Descriptor'
	DD	00H
	DB	'.?AVFont@touchgfx@@', 00H
data$r	ENDS
;	COMDAT ??_R4Font@touchgfx@@6B@
rdata$r	SEGMENT
??_R4Font@touchgfx@@6B@ DD 00H				; touchgfx::Font::`RTTI Complete Object Locator'
	DD	00H
	DD	00H
	DD	FLAT:??_R0?AVFont@touchgfx@@@8
	DD	FLAT:??_R3Font@touchgfx@@8
rdata$r	ENDS
;	COMDAT ??_7CachedFont@touchgfx@@6B@
CONST	SEGMENT
??_7CachedFont@touchgfx@@6B@ DD FLAT:??_R4CachedFont@touchgfx@@6B@ ; touchgfx::CachedFont::`vftable'
	DD	FLAT:??_ECachedFont@touchgfx@@UAEPAXI@Z
	DD	FLAT:?getGlyph@Font@touchgfx@@UBEPBUGlyphNode@2@G@Z
	DD	FLAT:?getGlyph@CachedFont@touchgfx@@UBEPBUGlyphNode@2@GAAPBEAAE@Z
	DD	FLAT:?getFallbackChar@Font@touchgfx@@UBEGXZ
	DD	FLAT:?getEllipsisChar@Font@touchgfx@@UBEGXZ
	DD	FLAT:?getStringWidth@Font@touchgfx@@UBAGEPBGZZ
	DD	FLAT:?getStringWidth@Font@touchgfx@@UBAGPBGZZ
	DD	FLAT:?getCharWidth@Font@touchgfx@@UBEGG@Z
	DD	FLAT:?getSpacingAbove@Font@touchgfx@@UBAEPBGZZ
	DD	FLAT:?getMaxTextHeight@Font@touchgfx@@UBAGPBGZZ
	DD	FLAT:?getFontHeight@Font@touchgfx@@UBEGXZ
	DD	FLAT:?getMinimumTextHeight@Font@touchgfx@@UBEGXZ
	DD	FLAT:?getBitsPerPixel@Font@touchgfx@@UBEEXZ
	DD	FLAT:?getDataFormatA4@Font@touchgfx@@UBEEXZ
	DD	FLAT:?getKerning@CachedFont@touchgfx@@UBECGPBUGlyphNode@2@@Z
	DD	FLAT:?getNumberOfLines@Font@touchgfx@@UBAGPBGZZ
	DD	FLAT:?getGSUBTable@GeneratedFont@touchgfx@@UBEPBGXZ
	DD	FLAT:?getPixelData@CachedFont@touchgfx@@UBEPBEPBUGlyphNode@2@@Z
CONST	ENDS
;	COMDAT ??_C@_1KE@IMIJNMJM@?$AAt?$AAy?$AAp?$AAe?$AAd?$AAT?$AAe?$AAx?$AAt?$AAI?$AAd?$AA?5?$AA?$DM?$AA?5?$AAn@
CONST	SEGMENT
??_C@_1KE@IMIJNMJM@?$AAt?$AAy?$AAp?$AAe?$AAd?$AAT?$AAe?$AAx?$AAt?$AAI?$AAd?$AA?5?$AA?$DM?$AA?5?$AAn@ DB 't'
	DB	00H, 'y', 00H, 'p', 00H, 'e', 00H, 'd', 00H, 'T', 00H, 'e', 00H
	DB	'x', 00H, 't', 00H, 'I', 00H, 'd', 00H, ' ', 00H, '<', 00H, ' '
	DB	00H, 'n', 00H, 'u', 00H, 'm', 00H, 'b', 00H, 'e', 00H, 'r', 00H
	DB	'O', 00H, 'f', 00H, 'T', 00H, 'y', 00H, 'p', 00H, 'e', 00H, 'd'
	DB	00H, 'T', 00H, 'e', 00H, 'x', 00H, 't', 00H, 's', 00H, ' ', 00H
	DB	'&', 00H, '&', 00H, ' ', 00H, '"', 00H, 't', 00H, 'y', 00H, 'p'
	DB	00H, 'e', 00H, 'd', 00H, 'T', 00H, 'e', 00H, 'x', 00H, 't', 00H
	DB	'I', 00H, 'd', 00H, ' ', 00H, 'l', 00H, 'a', 00H, 'r', 00H, 'g'
	DB	00H, 'e', 00H, 'r', 00H, ' ', 00H, 't', 00H, 'h', 00H, 'a', 00H
	DB	'n', 00H, ' ', 00H, 'n', 00H, 'u', 00H, 'm', 00H, 'b', 00H, 'e'
	DB	00H, 'r', 00H, 'O', 00H, 'f', 00H, 'T', 00H, 'y', 00H, 'p', 00H
	DB	'e', 00H, 'd', 00H, 'T', 00H, 'e', 00H, 'x', 00H, 't', 00H, 's'
	DB	00H, '.', 00H, '"', 00H, 00H, 00H		; `string'
CONST	ENDS
;	COMDAT ??_C@_0CM@IOAPKHHD@typedTextId?5larger?5than?5numberO@
CONST	SEGMENT
??_C@_0CM@IOAPKHHD@typedTextId?5larger?5than?5numberO@ DB 'typedTextId la'
	DB	'rger than numberOfTypedTexts.', 00H		; `string'
CONST	ENDS
;	COMDAT ??_C@_1IE@NPIIMJBA@?$AAt?$AAy?$AAp?$AAe?$AAd?$AAT?$AAe?$AAx?$AAt?$AAs?$AA?5?$AA?$CB?$AA?$DN?$AA?5?$AA0@
CONST	SEGMENT
??_C@_1IE@NPIIMJBA@?$AAt?$AAy?$AAp?$AAe?$AAd?$AAT?$AAe?$AAx?$AAt?$AAs?$AA?5?$AA?$CB?$AA?$DN?$AA?5?$AA0@ DB 't'
	DB	00H, 'y', 00H, 'p', 00H, 'e', 00H, 'd', 00H, 'T', 00H, 'e', 00H
	DB	'x', 00H, 't', 00H, 's', 00H, ' ', 00H, '!', 00H, '=', 00H, ' '
	DB	00H, '0', 00H, ' ', 00H, '&', 00H, '&', 00H, ' ', 00H, '"', 00H
	DB	'T', 00H, 'y', 00H, 'p', 00H, 'e', 00H, 'd', 00H, 'T', 00H, 'e'
	DB	00H, 'x', 00H, 't', 00H, ' ', 00H, 'd', 00H, 'a', 00H, 't', 00H
	DB	'a', 00H, 'b', 00H, 'a', 00H, 's', 00H, 'e', 00H, ' ', 00H, 'h'
	DB	00H, 'a', 00H, 's', 00H, ' ', 00H, 'n', 00H, 'o', 00H, 't', 00H
	DB	' ', 00H, 'b', 00H, 'e', 00H, 'e', 00H, 'n', 00H, ' ', 00H, 'i'
	DB	00H, 'n', 00H, 'i', 00H, 't', 00H, 'i', 00H, 'a', 00H, 'l', 00H
	DB	'i', 00H, 'z', 00H, 'e', 00H, 'd', 00H, '.', 00H, '"', 00H, 00H
	DB	00H						; `string'
CONST	ENDS
;	COMDAT ??_C@_1NA@LFFADKGC@?$AAC?$AA?3?$AA?2?$AAT?$AAo?$AAu?$AAc?$AAh?$AAG?$AAF?$AAX?$AAP?$AAr?$AAo?$AAj@
CONST	SEGMENT
??_C@_1NA@LFFADKGC@?$AAC?$AA?3?$AA?2?$AAT?$AAo?$AAu?$AAc?$AAh?$AAG?$AAF?$AAX?$AAP?$AAr?$AAo?$AAj@ DB 'C'
	DB	00H, ':', 00H, '\', 00H, 'T', 00H, 'o', 00H, 'u', 00H, 'c', 00H
	DB	'h', 00H, 'G', 00H, 'F', 00H, 'X', 00H, 'P', 00H, 'r', 00H, 'o'
	DB	00H, 'j', 00H, 'e', 00H, 'c', 00H, 't', 00H, 's', 00H, '\', 00H
	DB	'D', 00H, 'a', 00H, 's', 00H, 'h', 00H, 'b', 00H, 'o', 00H, 'a'
	DB	00H, 'r', 00H, 'd', 00H, '\', 00H, 'M', 00H, 'i', 00H, 'd', 00H
	DB	'd', 00H, 'l', 00H, 'e', 00H, 'w', 00H, 'a', 00H, 'r', 00H, 'e'
	DB	00H, 's', 00H, '\', 00H, 'S', 00H, 'T', 00H, '\', 00H, 'T', 00H
	DB	'o', 00H, 'u', 00H, 'c', 00H, 'h', 00H, 'G', 00H, 'F', 00H, 'X'
	DB	00H, '\', 00H, 't', 00H, 'o', 00H, 'u', 00H, 'c', 00H, 'h', 00H
	DB	'g', 00H, 'f', 00H, 'x', 00H, '\', 00H, 'f', 00H, 'r', 00H, 'a'
	DB	00H, 'm', 00H, 'e', 00H, 'w', 00H, 'o', 00H, 'r', 00H, 'k', 00H
	DB	'\', 00H, 'i', 00H, 'n', 00H, 'c', 00H, 'l', 00H, 'u', 00H, 'd'
	DB	00H, 'e', 00H, '\', 00H, 't', 00H, 'o', 00H, 'u', 00H, 'c', 00H
	DB	'h', 00H, 'g', 00H, 'f', 00H, 'x', 00H, '\', 00H, 'T', 00H, 'y'
	DB	00H, 'p', 00H, 'e', 00H, 'd', 00H, 'T', 00H, 'e', 00H, 'x', 00H
	DB	't', 00H, '.', 00H, 'h', 00H, 'p', 00H, 'p', 00H, 00H, 00H ; `string'
CONST	ENDS
;	COMDAT ??_C@_0CN@OFCNDKEN@TypedText?5database?5has?5not?5been@
CONST	SEGMENT
??_C@_0CN@OFCNDKEN@TypedText?5database?5has?5not?5been@ DB 'TypedText dat'
	DB	'abase has not been initialized.', 00H	; `string'
CONST	ENDS
;	COMDAT ??_7Font@touchgfx@@6B@
CONST	SEGMENT
??_7Font@touchgfx@@6B@ DD FLAT:??_R4Font@touchgfx@@6B@	; touchgfx::Font::`vftable'
	DD	FLAT:??_EFont@touchgfx@@UAEPAXI@Z
	DD	FLAT:?getGlyph@Font@touchgfx@@UBEPBUGlyphNode@2@G@Z
	DD	FLAT:__purecall
	DD	FLAT:?getFallbackChar@Font@touchgfx@@UBEGXZ
	DD	FLAT:?getEllipsisChar@Font@touchgfx@@UBEGXZ
	DD	FLAT:?getStringWidth@Font@touchgfx@@UBAGEPBGZZ
	DD	FLAT:?getStringWidth@Font@touchgfx@@UBAGPBGZZ
	DD	FLAT:?getCharWidth@Font@touchgfx@@UBEGG@Z
	DD	FLAT:?getSpacingAbove@Font@touchgfx@@UBAEPBGZZ
	DD	FLAT:?getMaxTextHeight@Font@touchgfx@@UBAGPBGZZ
	DD	FLAT:?getFontHeight@Font@touchgfx@@UBEGXZ
	DD	FLAT:?getMinimumTextHeight@Font@touchgfx@@UBEGXZ
	DD	FLAT:?getBitsPerPixel@Font@touchgfx@@UBEEXZ
	DD	FLAT:?getDataFormatA4@Font@touchgfx@@UBEEXZ
	DD	FLAT:?getKerning@Font@touchgfx@@UBECGPBUGlyphNode@2@@Z
	DD	FLAT:?getNumberOfLines@Font@touchgfx@@UBAGPBGZZ
	DD	FLAT:?getGSUBTable@Font@touchgfx@@UBEPBGXZ
CONST	ENDS
;	COMDAT xdata$x
xdata$x	SEGMENT
__ehfuncinfo$??1Font@touchgfx@@UAE@XZ DD 019930522H
	DD	00H
	DD	00H
	DD	2 DUP(00H)
	DD	2 DUP(00H)
	DD	00H
	DD	05H
xdata$x	ENDS
; Function compile flags: /Odt
;	COMDAT __JustMyCode_Default
_TEXT	SEGMENT
__JustMyCode_Default PROC				; COMDAT
	push	ebp
	mov	ebp, esp
	pop	ebp
	ret	0
__JustMyCode_Default ENDP
_TEXT	ENDS
; Function compile flags: /Odtp /RTCsu /ZI
;	COMDAT ??_GCachedFont@touchgfx@@UAEPAXI@Z
_TEXT	SEGMENT
_this$ = -8						; size = 4
___flags$ = 8						; size = 4
??_GCachedFont@touchgfx@@UAEPAXI@Z PROC			; touchgfx::CachedFont::`scalar deleting destructor', COMDAT
; _this$ = ecx
	push	ebp
	mov	ebp, esp
	sub	esp, 204				; 000000ccH
	push	ebx
	push	esi
	push	edi
	push	ecx
	lea	edi, DWORD PTR [ebp-204]
	mov	ecx, 51					; 00000033H
	mov	eax, -858993460				; ccccccccH
	rep stosd
	pop	ecx
	mov	DWORD PTR _this$[ebp], ecx
	mov	ecx, DWORD PTR _this$[ebp]
	call	??1CachedFont@touchgfx@@UAE@XZ
	mov	eax, DWORD PTR ___flags$[ebp]
	and	eax, 1
	je	SHORT $LN2@scalar
	push	48					; 00000030H
	mov	eax, DWORD PTR _this$[ebp]
	push	eax
	call	??3@YAXPAXI@Z				; operator delete
	add	esp, 8
$LN2@scalar:
	mov	eax, DWORD PTR _this$[ebp]
	pop	edi
	pop	esi
	pop	ebx
	add	esp, 204				; 000000ccH
	cmp	ebp, esp
	call	__RTC_CheckEsp
	mov	esp, ebp
	pop	ebp
	ret	4
??_GCachedFont@touchgfx@@UAEPAXI@Z ENDP			; touchgfx::CachedFont::`scalar deleting destructor'
_TEXT	ENDS
; Function compile flags: /Odtp /RTCsu /ZI
;	COMDAT ??4CachedFont@touchgfx@@QAEAAV01@$$QAV01@@Z
_TEXT	SEGMENT
_this$ = -8						; size = 4
___that$ = 8						; size = 4
??4CachedFont@touchgfx@@QAEAAV01@$$QAV01@@Z PROC	; touchgfx::CachedFont::operator=, COMDAT
; _this$ = ecx
	push	ebp
	mov	ebp, esp
	sub	esp, 204				; 000000ccH
	push	ebx
	push	esi
	push	edi
	push	ecx
	lea	edi, DWORD PTR [ebp-204]
	mov	ecx, 51					; 00000033H
	mov	eax, -858993460				; ccccccccH
	rep stosd
	pop	ecx
	mov	DWORD PTR _this$[ebp], ecx
	mov	eax, DWORD PTR ___that$[ebp]
	push	eax
	mov	ecx, DWORD PTR _this$[ebp]
	call	??4GeneratedFont@touchgfx@@QAEAAV01@$$QAV01@@Z
	mov	eax, DWORD PTR _this$[ebp]
	mov	ecx, DWORD PTR ___that$[ebp]
	mov	dx, WORD PTR [ecx+36]
	mov	WORD PTR [eax+36], dx
	mov	eax, DWORD PTR _this$[ebp]
	mov	ecx, DWORD PTR ___that$[ebp]
	mov	edx, DWORD PTR [ecx+40]
	mov	DWORD PTR [eax+40], edx
	mov	eax, DWORD PTR _this$[ebp]
	mov	ecx, DWORD PTR ___that$[ebp]
	mov	edx, DWORD PTR [ecx+44]
	mov	DWORD PTR [eax+44], edx
	mov	eax, DWORD PTR _this$[ebp]
	pop	edi
	pop	esi
	pop	ebx
	add	esp, 204				; 000000ccH
	cmp	ebp, esp
	call	__RTC_CheckEsp
	mov	esp, ebp
	pop	ebp
	ret	4
??4CachedFont@touchgfx@@QAEAAV01@$$QAV01@@Z ENDP	; touchgfx::CachedFont::operator=
_TEXT	ENDS
; Function compile flags: /Odtp /RTCsu /ZI
;	COMDAT ??1CachedFont@touchgfx@@UAE@XZ
_TEXT	SEGMENT
_this$ = -8						; size = 4
??1CachedFont@touchgfx@@UAE@XZ PROC			; touchgfx::CachedFont::~CachedFont, COMDAT
; _this$ = ecx
	push	ebp
	mov	ebp, esp
	sub	esp, 204				; 000000ccH
	push	ebx
	push	esi
	push	edi
	push	ecx
	lea	edi, DWORD PTR [ebp-204]
	mov	ecx, 51					; 00000033H
	mov	eax, -858993460				; ccccccccH
	rep stosd
	pop	ecx
	mov	DWORD PTR _this$[ebp], ecx
	mov	ecx, DWORD PTR _this$[ebp]
	call	??1GeneratedFont@touchgfx@@UAE@XZ
	pop	edi
	pop	esi
	pop	ebx
	add	esp, 204				; 000000ccH
	cmp	ebp, esp
	call	__RTC_CheckEsp
	mov	esp, ebp
	pop	ebp
	ret	0
??1CachedFont@touchgfx@@UAE@XZ ENDP			; touchgfx::CachedFont::~CachedFont
_TEXT	ENDS
; Function compile flags: /Odtp /RTCsu /ZI
;	COMDAT ??0CachedFont@touchgfx@@QAE@PBUBinaryFontData@1@GPAVFontCache@1@PBVGeneratedFont@1@@Z
_TEXT	SEGMENT
_this$ = -8						; size = 4
_data$ = 8						; size = 4
_id$ = 12						; size = 2
__cache$ = 16						; size = 4
__flashFont$ = 20					; size = 4
??0CachedFont@touchgfx@@QAE@PBUBinaryFontData@1@GPAVFontCache@1@PBVGeneratedFont@1@@Z PROC ; touchgfx::CachedFont::CachedFont, COMDAT
; _this$ = ecx
; File C:\TouchGFXProjects\Dashboard\TouchGFX\generated\fonts\include\fonts\CachedFont.hpp
; Line 32
	push	ebp
	mov	ebp, esp
	sub	esp, 204				; 000000ccH
	push	ebx
	push	esi
	push	edi
	push	ecx
	lea	edi, DWORD PTR [ebp-204]
	mov	ecx, 51					; 00000033H
	mov	eax, -858993460				; ccccccccH
	rep stosd
	pop	ecx
	mov	DWORD PTR _this$[ebp], ecx
	mov	ecx, OFFSET __83791248_CachedFont@hpp
	call	@__CheckForDebuggerJustMyCode@4
; Line 16
	push	0
	mov	eax, DWORD PTR _data$[ebp]
	movzx	ecx, WORD PTR [eax+30]
	push	ecx
	mov	edx, DWORD PTR _data$[ebp]
	movzx	eax, WORD PTR [edx+28]
	push	eax
	push	0
	push	0
	mov	ecx, DWORD PTR _data$[ebp]
	movzx	edx, BYTE PTR [ecx+27]
	push	edx
	mov	eax, DWORD PTR _data$[ebp]
	movzx	ecx, BYTE PTR [eax+26]
	push	ecx
	mov	edx, DWORD PTR _data$[ebp]
	mov	al, BYTE PTR [edx+25]
	shr	al, 7
	and	al, 1
	movzx	ecx, al
	push	ecx
	mov	edx, DWORD PTR _data$[ebp]
	mov	al, BYTE PTR [edx+25]
	and	al, 127					; 0000007fH
	movzx	ecx, al
	push	ecx
	mov	edx, DWORD PTR _data$[ebp]
	movzx	eax, BYTE PTR [edx+24]
	push	eax
	mov	ecx, DWORD PTR _data$[ebp]
	movzx	edx, WORD PTR [ecx+22]
	push	edx
	mov	eax, DWORD PTR _data$[ebp]
	movzx	ecx, WORD PTR [eax+20]
	push	ecx
	mov	edx, DWORD PTR _data$[ebp]
	mov	eax, DWORD PTR _data$[ebp]
	add	eax, DWORD PTR [edx+4]
	push	eax
	mov	ecx, DWORD PTR _this$[ebp]
	call	??0GeneratedFont@touchgfx@@QAE@PBUGlyphNode@1@GGEEEEEPBQBEPBUKerningNode@1@GGQBG@Z ; touchgfx::GeneratedFont::GeneratedFont
; Line 32
	mov	eax, DWORD PTR _this$[ebp]
	mov	DWORD PTR [eax], OFFSET ??_7CachedFont@touchgfx@@6B@
; Line 29
	mov	eax, DWORD PTR _this$[ebp]
	mov	cx, WORD PTR _id$[ebp]
	mov	WORD PTR [eax+36], cx
; Line 30
	mov	eax, DWORD PTR _this$[ebp]
	mov	ecx, DWORD PTR __cache$[ebp]
	mov	DWORD PTR [eax+40], ecx
; Line 31
	mov	eax, DWORD PTR _this$[ebp]
	mov	ecx, DWORD PTR __flashFont$[ebp]
	mov	DWORD PTR [eax+44], ecx
; Line 32
	mov	eax, DWORD PTR _this$[ebp]
	pop	edi
	pop	esi
	pop	ebx
	add	esp, 204				; 000000ccH
	cmp	ebp, esp
	call	__RTC_CheckEsp
	mov	esp, ebp
	pop	ebp
	ret	16					; 00000010H
??0CachedFont@touchgfx@@QAE@PBUBinaryFontData@1@GPAVFontCache@1@PBVGeneratedFont@1@@Z ENDP ; touchgfx::CachedFont::CachedFont
_TEXT	ENDS
; Function compile flags: /Odtp /RTCsu /ZI
;	COMDAT ??4GeneratedFont@touchgfx@@QAEAAV01@$$QAV01@@Z
_TEXT	SEGMENT
_this$ = -8						; size = 4
___that$ = 8						; size = 4
??4GeneratedFont@touchgfx@@QAEAAV01@$$QAV01@@Z PROC	; touchgfx::GeneratedFont::operator=, COMDAT
; _this$ = ecx
	push	ebp
	mov	ebp, esp
	sub	esp, 204				; 000000ccH
	push	ebx
	push	esi
	push	edi
	push	ecx
	lea	edi, DWORD PTR [ebp-204]
	mov	ecx, 51					; 00000033H
	mov	eax, -858993460				; ccccccccH
	rep stosd
	pop	ecx
	mov	DWORD PTR _this$[ebp], ecx
	mov	eax, DWORD PTR ___that$[ebp]
	push	eax
	mov	ecx, DWORD PTR _this$[ebp]
	call	??4ConstFont@touchgfx@@QAEAAV01@$$QAV01@@Z
	mov	eax, DWORD PTR _this$[ebp]
	mov	ecx, DWORD PTR ___that$[ebp]
	mov	edx, DWORD PTR [ecx+24]
	mov	DWORD PTR [eax+24], edx
	mov	eax, DWORD PTR _this$[ebp]
	mov	ecx, DWORD PTR ___that$[ebp]
	mov	edx, DWORD PTR [ecx+28]
	mov	DWORD PTR [eax+28], edx
	mov	eax, DWORD PTR _this$[ebp]
	mov	ecx, DWORD PTR ___that$[ebp]
	mov	edx, DWORD PTR [ecx+32]
	mov	DWORD PTR [eax+32], edx
	mov	eax, DWORD PTR _this$[ebp]
	pop	edi
	pop	esi
	pop	ebx
	add	esp, 204				; 000000ccH
	cmp	ebp, esp
	call	__RTC_CheckEsp
	mov	esp, ebp
	pop	ebp
	ret	4
??4GeneratedFont@touchgfx@@QAEAAV01@$$QAV01@@Z ENDP	; touchgfx::GeneratedFont::operator=
_TEXT	ENDS
; Function compile flags: /Odtp /RTCsu /ZI
;	COMDAT ??1GeneratedFont@touchgfx@@UAE@XZ
_TEXT	SEGMENT
_this$ = -8						; size = 4
??1GeneratedFont@touchgfx@@UAE@XZ PROC			; touchgfx::GeneratedFont::~GeneratedFont, COMDAT
; _this$ = ecx
	push	ebp
	mov	ebp, esp
	sub	esp, 204				; 000000ccH
	push	ebx
	push	esi
	push	edi
	push	ecx
	lea	edi, DWORD PTR [ebp-204]
	mov	ecx, 51					; 00000033H
	mov	eax, -858993460				; ccccccccH
	rep stosd
	pop	ecx
	mov	DWORD PTR _this$[ebp], ecx
	mov	ecx, DWORD PTR _this$[ebp]
	call	??1ConstFont@touchgfx@@UAE@XZ
	pop	edi
	pop	esi
	pop	ebx
	add	esp, 204				; 000000ccH
	cmp	ebp, esp
	call	__RTC_CheckEsp
	mov	esp, ebp
	pop	ebp
	ret	0
??1GeneratedFont@touchgfx@@UAE@XZ ENDP			; touchgfx::GeneratedFont::~GeneratedFont
_TEXT	ENDS
; Function compile flags: /Odtp /RTCsu /ZI
;	COMDAT ?getGSUBTable@GeneratedFont@touchgfx@@UBEPBGXZ
_TEXT	SEGMENT
_this$ = -8						; size = 4
?getGSUBTable@GeneratedFont@touchgfx@@UBEPBGXZ PROC	; touchgfx::GeneratedFont::getGSUBTable, COMDAT
; _this$ = ecx
; File C:\TouchGFXProjects\Dashboard\TouchGFX\generated\fonts\include\fonts\GeneratedFont.hpp
; Line 92
	push	ebp
	mov	ebp, esp
	sub	esp, 204				; 000000ccH
	push	ebx
	push	esi
	push	edi
	push	ecx
	lea	edi, DWORD PTR [ebp-204]
	mov	ecx, 51					; 00000033H
	mov	eax, -858993460				; ccccccccH
	rep stosd
	pop	ecx
	mov	DWORD PTR _this$[ebp], ecx
	mov	ecx, OFFSET __74D5B664_GeneratedFont@hpp
	call	@__CheckForDebuggerJustMyCode@4
; Line 93
	mov	eax, DWORD PTR _this$[ebp]
	mov	eax, DWORD PTR [eax+32]
; Line 94
	pop	edi
	pop	esi
	pop	ebx
	add	esp, 204				; 000000ccH
	cmp	ebp, esp
	call	__RTC_CheckEsp
	mov	esp, ebp
	pop	ebp
	ret	0
?getGSUBTable@GeneratedFont@touchgfx@@UBEPBGXZ ENDP	; touchgfx::GeneratedFont::getGSUBTable
_TEXT	ENDS
; Function compile flags: /Odtp /RTCsu /ZI
;	COMDAT ??4ConstFont@touchgfx@@QAEAAV01@$$QAV01@@Z
_TEXT	SEGMENT
_this$ = -8						; size = 4
___that$ = 8						; size = 4
??4ConstFont@touchgfx@@QAEAAV01@$$QAV01@@Z PROC		; touchgfx::ConstFont::operator=, COMDAT
; _this$ = ecx
	push	ebp
	mov	ebp, esp
	sub	esp, 204				; 000000ccH
	push	ebx
	push	esi
	push	edi
	push	ecx
	lea	edi, DWORD PTR [ebp-204]
	mov	ecx, 51					; 00000033H
	mov	eax, -858993460				; ccccccccH
	rep stosd
	pop	ecx
	mov	DWORD PTR _this$[ebp], ecx
	mov	eax, DWORD PTR ___that$[ebp]
	push	eax
	mov	ecx, DWORD PTR _this$[ebp]
	call	??4Font@touchgfx@@QAEAAV01@ABV01@@Z
	mov	eax, DWORD PTR _this$[ebp]
	mov	ecx, DWORD PTR ___that$[ebp]
	mov	edx, DWORD PTR [ecx+16]
	mov	DWORD PTR [eax+16], edx
	mov	eax, DWORD PTR _this$[ebp]
	mov	ecx, DWORD PTR ___that$[ebp]
	mov	dx, WORD PTR [ecx+20]
	mov	WORD PTR [eax+20], dx
	mov	eax, DWORD PTR _this$[ebp]
	pop	edi
	pop	esi
	pop	ebx
	add	esp, 204				; 000000ccH
	cmp	ebp, esp
	call	__RTC_CheckEsp
	mov	esp, ebp
	pop	ebp
	ret	4
??4ConstFont@touchgfx@@QAEAAV01@$$QAV01@@Z ENDP		; touchgfx::ConstFont::operator=
_TEXT	ENDS
; Function compile flags: /Odtp /RTCsu /ZI
;	COMDAT ??1ConstFont@touchgfx@@UAE@XZ
_TEXT	SEGMENT
_this$ = -8						; size = 4
??1ConstFont@touchgfx@@UAE@XZ PROC			; touchgfx::ConstFont::~ConstFont, COMDAT
; _this$ = ecx
	push	ebp
	mov	ebp, esp
	sub	esp, 204				; 000000ccH
	push	ebx
	push	esi
	push	edi
	push	ecx
	lea	edi, DWORD PTR [ebp-204]
	mov	ecx, 51					; 00000033H
	mov	eax, -858993460				; ccccccccH
	rep stosd
	pop	ecx
	mov	DWORD PTR _this$[ebp], ecx
	mov	ecx, DWORD PTR _this$[ebp]
	call	??1Font@touchgfx@@UAE@XZ		; touchgfx::Font::~Font
	pop	edi
	pop	esi
	pop	ebx
	add	esp, 204				; 000000ccH
	cmp	ebp, esp
	call	__RTC_CheckEsp
	mov	esp, ebp
	pop	ebp
	ret	0
??1ConstFont@touchgfx@@UAE@XZ ENDP			; touchgfx::ConstFont::~ConstFont
_TEXT	ENDS
; Function compile flags: /Odtp /RTCsu /ZI
;	COMDAT ?readData@FontCache@touchgfx@@AAEXPAXI@Z
_TEXT	SEGMENT
_this$ = -8						; size = 4
_out$ = 8						; size = 4
_numberOfBytes$ = 12					; size = 4
?readData@FontCache@touchgfx@@AAEXPAXI@Z PROC		; touchgfx::FontCache::readData, COMDAT
; _this$ = ecx
; File C:\TouchGFXProjects\Dashboard\TouchGFX\generated\fonts\src\FontCache.cpp
; Line 321
	push	ebp
	mov	ebp, esp
	sub	esp, 204				; 000000ccH
	push	ebx
	push	esi
	push	edi
	push	ecx
	lea	edi, DWORD PTR [ebp-204]
	mov	ecx, 51					; 00000033H
	mov	eax, -858993460				; ccccccccH
	rep stosd
	pop	ecx
	mov	DWORD PTR _this$[ebp], ecx
	mov	ecx, OFFSET __AEB314D6_FontCache@cpp
	call	@__CheckForDebuggerJustMyCode@4
; Line 322
	mov	eax, DWORD PTR _this$[ebp]
	cmp	DWORD PTR [eax+60], 0
	je	SHORT $LN1@readData
; Line 324
	mov	esi, esp
	mov	eax, DWORD PTR _numberOfBytes$[ebp]
	push	eax
	mov	ecx, DWORD PTR _out$[ebp]
	push	ecx
	mov	edx, DWORD PTR _this$[ebp]
	mov	eax, DWORD PTR [edx+60]
	mov	ecx, DWORD PTR _this$[ebp]
	mov	edx, DWORD PTR [eax]
	mov	ecx, DWORD PTR [ecx+60]
	mov	eax, DWORD PTR [edx+16]
	call	eax
	cmp	esi, esp
	call	__RTC_CheckEsp
$LN1@readData:
; Line 326
	pop	edi
	pop	esi
	pop	ebx
	add	esp, 204				; 000000ccH
	cmp	ebp, esp
	call	__RTC_CheckEsp
	mov	esp, ebp
	pop	ebp
	ret	8
?readData@FontCache@touchgfx@@AAEXPAXI@Z ENDP		; touchgfx::FontCache::readData
_TEXT	ENDS
; Function compile flags: /Odtp /RTCsu /ZI
;	COMDAT ?setPosition@FontCache@touchgfx@@AAEXI@Z
_TEXT	SEGMENT
_this$ = -8						; size = 4
_position$ = 8						; size = 4
?setPosition@FontCache@touchgfx@@AAEXI@Z PROC		; touchgfx::FontCache::setPosition, COMDAT
; _this$ = ecx
; File C:\TouchGFXProjects\Dashboard\TouchGFX\generated\fonts\src\FontCache.cpp
; Line 313
	push	ebp
	mov	ebp, esp
	sub	esp, 204				; 000000ccH
	push	ebx
	push	esi
	push	edi
	push	ecx
	lea	edi, DWORD PTR [ebp-204]
	mov	ecx, 51					; 00000033H
	mov	eax, -858993460				; ccccccccH
	rep stosd
	pop	ecx
	mov	DWORD PTR _this$[ebp], ecx
	mov	ecx, OFFSET __AEB314D6_FontCache@cpp
	call	@__CheckForDebuggerJustMyCode@4
; Line 314
	mov	eax, DWORD PTR _this$[ebp]
	cmp	DWORD PTR [eax+60], 0
	je	SHORT $LN1@setPositio
; Line 316
	mov	esi, esp
	mov	eax, DWORD PTR _position$[ebp]
	push	eax
	mov	ecx, DWORD PTR _this$[ebp]
	mov	edx, DWORD PTR [ecx+60]
	mov	eax, DWORD PTR _this$[ebp]
	mov	edx, DWORD PTR [edx]
	mov	ecx, DWORD PTR [eax+60]
	mov	eax, DWORD PTR [edx+12]
	call	eax
	cmp	esi, esp
	call	__RTC_CheckEsp
$LN1@setPositio:
; Line 318
	pop	edi
	pop	esi
	pop	ebx
	add	esp, 204				; 000000ccH
	cmp	ebp, esp
	call	__RTC_CheckEsp
	mov	esp, ebp
	pop	ebp
	ret	4
?setPosition@FontCache@touchgfx@@AAEXI@Z ENDP		; touchgfx::FontCache::setPosition
_TEXT	ENDS
; Function compile flags: /Odtp /RTCsu /ZI
;	COMDAT ?createSortedString@FontCache@touchgfx@@AAE_NPBG@Z
_TEXT	SEGMENT
_temp$1 = -92						; size = 2
_swapped$ = -77						; size = 1
_j$ = -68						; size = 4
_i$ = -56						; size = 4
_uc$ = -44						; size = 4
_n$ = -32						; size = 4
_length$ = -20						; size = 4
_this$ = -8						; size = 4
_string$ = 8						; size = 4
?createSortedString@FontCache@touchgfx@@AAE_NPBG@Z PROC	; touchgfx::FontCache::createSortedString, COMDAT
; _this$ = ecx
; File C:\TouchGFXProjects\Dashboard\TouchGFX\generated\fonts\src\FontCache.cpp
; Line 268
	push	ebp
	mov	ebp, esp
	sub	esp, 288				; 00000120H
	push	ebx
	push	esi
	push	edi
	push	ecx
	lea	edi, DWORD PTR [ebp-288]
	mov	ecx, 72					; 00000048H
	mov	eax, -858993460				; ccccccccH
	rep stosd
	pop	ecx
	mov	DWORD PTR _this$[ebp], ecx
	mov	ecx, OFFSET __AEB314D6_FontCache@cpp
	call	@__CheckForDebuggerJustMyCode@4
; Line 269
	mov	eax, DWORD PTR _string$[ebp]
	push	eax
	call	?strlen@Unicode@touchgfx@@SAGPBG@Z	; touchgfx::Unicode::strlen
	add	esp, 4
	movzx	ecx, ax
	mov	DWORD PTR _length$[ebp], ecx
; Line 271
	mov	eax, DWORD PTR _this$[ebp]
	mov	ecx, DWORD PTR [eax+52]
	mov	edx, DWORD PTR _this$[ebp]
	add	ecx, DWORD PTR [edx+48]
	mov	eax, DWORD PTR _length$[ebp]
	lea	edx, DWORD PTR [eax+eax+2]
	sub	ecx, edx
	mov	eax, DWORD PTR _this$[ebp]
	mov	DWORD PTR [eax+64], ecx
; Line 272
	mov	eax, DWORD PTR _this$[ebp]
	mov	ecx, DWORD PTR _this$[ebp]
	mov	edx, DWORD PTR [eax+64]
	cmp	edx, DWORD PTR [ecx+56]
	jae	SHORT $LN10@createSort
; Line 275
	xor	al, al
	jmp	$LN1@createSort
$LN10@createSort:
; Line 277
	mov	DWORD PTR _n$[ebp], 0
; Line 278
	mov	eax, DWORD PTR _this$[ebp]
	mov	ecx, DWORD PTR [eax+64]
	mov	DWORD PTR _uc$[ebp], ecx
$LN2@createSort:
; Line 279
	mov	eax, DWORD PTR _string$[ebp]
	movzx	ecx, WORD PTR [eax]
	test	ecx, ecx
	je	SHORT $LN3@createSort
; Line 281
	mov	eax, DWORD PTR _uc$[ebp]
	mov	ecx, DWORD PTR _string$[ebp]
	mov	dx, WORD PTR [ecx]
	mov	WORD PTR [eax], dx
	mov	eax, DWORD PTR _uc$[ebp]
	add	eax, 2
	mov	DWORD PTR _uc$[ebp], eax
	mov	ecx, DWORD PTR _string$[ebp]
	add	ecx, 2
	mov	DWORD PTR _string$[ebp], ecx
; Line 282
	mov	eax, DWORD PTR _n$[ebp]
	add	eax, 1
	mov	DWORD PTR _n$[ebp], eax
; Line 283
	jmp	SHORT $LN2@createSort
$LN3@createSort:
; Line 284
	xor	eax, eax
	mov	ecx, DWORD PTR _uc$[ebp]
	mov	WORD PTR [ecx], ax
; Line 286
	mov	eax, DWORD PTR _this$[ebp]
	mov	ecx, DWORD PTR [eax+64]
	mov	DWORD PTR _uc$[ebp], ecx
; Line 289
	mov	DWORD PTR _i$[ebp], 0
	jmp	SHORT $LN6@createSort
$LN4@createSort:
	mov	eax, DWORD PTR _i$[ebp]
	add	eax, 1
	mov	DWORD PTR _i$[ebp], eax
$LN6@createSort:
	mov	eax, DWORD PTR _n$[ebp]
	sub	eax, 1
	cmp	DWORD PTR _i$[ebp], eax
	jge	$LN5@createSort
; Line 291
	mov	BYTE PTR _swapped$[ebp], 0
; Line 292
	mov	DWORD PTR _j$[ebp], 0
	jmp	SHORT $LN9@createSort
$LN7@createSort:
	mov	eax, DWORD PTR _j$[ebp]
	add	eax, 1
	mov	DWORD PTR _j$[ebp], eax
$LN9@createSort:
	mov	eax, DWORD PTR _n$[ebp]
	sub	eax, DWORD PTR _i$[ebp]
	sub	eax, 1
	cmp	DWORD PTR _j$[ebp], eax
	jge	SHORT $LN8@createSort
; Line 294
	mov	eax, DWORD PTR _j$[ebp]
	mov	ecx, DWORD PTR _uc$[ebp]
	movzx	edx, WORD PTR [ecx+eax*2]
	mov	eax, DWORD PTR _j$[ebp]
	mov	ecx, DWORD PTR _uc$[ebp]
	movzx	eax, WORD PTR [ecx+eax*2+2]
	cmp	edx, eax
	jle	SHORT $LN11@createSort
; Line 296
	mov	eax, DWORD PTR _j$[ebp]
	mov	ecx, DWORD PTR _uc$[ebp]
	mov	dx, WORD PTR [ecx+eax*2]
	mov	WORD PTR _temp$1[ebp], dx
; Line 297
	mov	eax, DWORD PTR _j$[ebp]
	mov	ecx, DWORD PTR _uc$[ebp]
	mov	edx, DWORD PTR _j$[ebp]
	mov	esi, DWORD PTR _uc$[ebp]
	mov	dx, WORD PTR [esi+edx*2+2]
	mov	WORD PTR [ecx+eax*2], dx
; Line 298
	mov	eax, DWORD PTR _j$[ebp]
	mov	ecx, DWORD PTR _uc$[ebp]
	mov	dx, WORD PTR _temp$1[ebp]
	mov	WORD PTR [ecx+eax*2+2], dx
; Line 299
	mov	BYTE PTR _swapped$[ebp], 1
$LN11@createSort:
; Line 301
	jmp	SHORT $LN7@createSort
$LN8@createSort:
; Line 304
	movzx	eax, BYTE PTR _swapped$[ebp]
	test	eax, eax
	jne	SHORT $LN12@createSort
; Line 306
	jmp	SHORT $LN5@createSort
$LN12@createSort:
; Line 308
	jmp	$LN4@createSort
$LN5@createSort:
; Line 309
	mov	al, 1
$LN1@createSort:
; Line 310
	pop	edi
	pop	esi
	pop	ebx
	add	esp, 288				; 00000120H
	cmp	ebp, esp
	call	__RTC_CheckEsp
	mov	esp, ebp
	pop	ebp
	ret	4
?createSortedString@FontCache@touchgfx@@AAE_NPBG@Z ENDP	; touchgfx::FontCache::createSortedString
_TEXT	ENDS
; Function compile flags: /Odtp /RTCsu /ZI
;	COMDAT ?cacheData@FontCache@touchgfx@@AAEXIPAUGlyphNode@2@@Z
_TEXT	SEGMENT
_next$1 = -56						; size = 4
_glyphSize$2 = -44					; size = 4
_p$3 = -32						; size = 4
_gn$ = -20						; size = 4
_this$ = -8						; size = 4
_bpp$ = 8						; size = 4
_first$ = 12						; size = 4
?cacheData@FontCache@touchgfx@@AAEXIPAUGlyphNode@2@@Z PROC ; touchgfx::FontCache::cacheData, COMDAT
; _this$ = ecx
; File C:\TouchGFXProjects\Dashboard\TouchGFX\generated\fonts\src\FontCache.cpp
; Line 242
	push	ebp
	mov	ebp, esp
	sub	esp, 252				; 000000fcH
	push	ebx
	push	esi
	push	edi
	push	ecx
	lea	edi, DWORD PTR [ebp-252]
	mov	ecx, 63					; 0000003fH
	mov	eax, -858993460				; ccccccccH
	rep stosd
	pop	ecx
	mov	DWORD PTR _this$[ebp], ecx
	mov	ecx, OFFSET __AEB314D6_FontCache@cpp
	call	@__CheckForDebuggerJustMyCode@4
; Line 243
	mov	eax, DWORD PTR _first$[ebp]
	mov	DWORD PTR _gn$[ebp], eax
$LN2@cacheData:
; Line 244
	cmp	DWORD PTR _gn$[ebp], 0
	je	$LN1@cacheData
; Line 246
	mov	eax, DWORD PTR _gn$[ebp]
	mov	DWORD PTR _p$3[ebp], eax
; Line 247
	mov	eax, DWORD PTR _gn$[ebp]
	cmp	DWORD PTR [eax], -1
	je	SHORT $LN4@cacheData
; Line 249
	mov	eax, DWORD PTR _p$3[ebp]
	add	eax, 16					; 00000010H
	mov	DWORD PTR _p$3[ebp], eax
; Line 251
	mov	eax, DWORD PTR _p$3[ebp]
	add	eax, 4
	mov	DWORD PTR _p$3[ebp], eax
; Line 254
	mov	eax, DWORD PTR _this$[ebp]
	mov	ecx, DWORD PTR [eax+136]
	mov	edx, DWORD PTR _gn$[ebp]
	add	ecx, DWORD PTR [edx]
	push	ecx
	mov	ecx, DWORD PTR _this$[ebp]
	call	?setPosition@FontCache@touchgfx@@AAEXI@Z ; touchgfx::FontCache::setPosition
; Line 255
	mov	ecx, DWORD PTR _gn$[ebp]
	call	?width@GlyphNode@touchgfx@@QBEGXZ	; touchgfx::GlyphNode::width
	movzx	esi, ax
	add	esi, 1
	and	esi, -2					; fffffffeH
	mov	ecx, DWORD PTR _gn$[ebp]
	call	?height@GlyphNode@touchgfx@@QBEGXZ	; touchgfx::GlyphNode::height
	movzx	eax, ax
	imul	esi, eax
	imul	esi, DWORD PTR _bpp$[ebp]
	shr	esi, 3
	mov	DWORD PTR _glyphSize$2[ebp], esi
; Line 256
	mov	eax, DWORD PTR _glyphSize$2[ebp]
	push	eax
	mov	ecx, DWORD PTR _p$3[ebp]
	push	ecx
	mov	ecx, DWORD PTR _this$[ebp]
	call	?readData@FontCache@touchgfx@@AAEXPAXI@Z ; touchgfx::FontCache::readData
; Line 259
	mov	eax, DWORD PTR _gn$[ebp]
	mov	DWORD PTR [eax], -1
$LN4@cacheData:
; Line 262
	mov	eax, DWORD PTR _gn$[ebp]
	add	eax, 16					; 00000010H
	mov	DWORD PTR _next$1[ebp], eax
; Line 263
	mov	eax, DWORD PTR _next$1[ebp]
	mov	ecx, DWORD PTR [eax]
	mov	DWORD PTR _gn$[ebp], ecx
; Line 264
	jmp	$LN2@cacheData
$LN1@cacheData:
; Line 265
	pop	edi
	pop	esi
	pop	ebx
	add	esp, 252				; 000000fcH
	cmp	ebp, esp
	call	__RTC_CheckEsp
	mov	esp, ebp
	pop	ebp
	ret	8
?cacheData@FontCache@touchgfx@@AAEXIPAUGlyphNode@2@@Z ENDP ; touchgfx::FontCache::cacheData
_TEXT	ENDS
; Function compile flags: /Odtp /RTCsu /ZI
;	COMDAT ?copyGlyph@FontCache@touchgfx@@AAEPAEPAEGGIAA_N@Z
_TEXT	SEGMENT
_glyphSize$ = -20					; size = 4
_this$ = -8						; size = 4
_top$ = 8						; size = 4
_unicode$ = 12						; size = 2
_font$ = 16						; size = 2
_bpp$ = 20						; size = 4
_outOfMemory$ = 24					; size = 4
?copyGlyph@FontCache@touchgfx@@AAEPAEPAEGGIAA_N@Z PROC	; touchgfx::FontCache::copyGlyph, COMDAT
; _this$ = ecx
; File C:\TouchGFXProjects\Dashboard\TouchGFX\generated\fonts\src\FontCache.cpp
; Line 189
	push	ebp
	mov	ebp, esp
	sub	esp, 216				; 000000d8H
	push	ebx
	push	esi
	push	edi
	push	ecx
	lea	edi, DWORD PTR [ebp-216]
	mov	ecx, 54					; 00000036H
	mov	eax, -858993460				; ccccccccH
	rep stosd
	pop	ecx
	mov	DWORD PTR _this$[ebp], ecx
	mov	ecx, OFFSET __AEB314D6_FontCache@cpp
	call	@__CheckForDebuggerJustMyCode@4
$LN2@copyGlyph:
; Line 190
	mov	eax, DWORD PTR _this$[ebp]
	mov	ecx, DWORD PTR _this$[ebp]
	mov	edx, DWORD PTR [eax+168]
	cmp	edx, DWORD PTR [ecx+148]
	jae	$LN3@copyGlyph
; Line 192
	mov	eax, DWORD PTR _this$[ebp]
	movzx	ecx, BYTE PTR [eax+172]
	test	ecx, ecx
	jne	SHORT $LN4@copyGlyph
; Line 194
	push	14					; 0000000eH
	mov	eax, DWORD PTR _this$[ebp]
	add	eax, 152				; 00000098H
	push	eax
	mov	ecx, DWORD PTR _this$[ebp]
	call	?readData@FontCache@touchgfx@@AAEXPAXI@Z ; touchgfx::FontCache::readData
; Line 195
	mov	eax, DWORD PTR _this$[ebp]
	mov	ecx, DWORD PTR [eax+168]
	add	ecx, 1
	mov	edx, DWORD PTR _this$[ebp]
	mov	DWORD PTR [edx+168], ecx
; Line 197
	jmp	SHORT $LN5@copyGlyph
$LN4@copyGlyph:
; Line 199
	mov	eax, DWORD PTR _this$[ebp]
	mov	BYTE PTR [eax+172], 0
$LN5@copyGlyph:
; Line 201
	mov	eax, DWORD PTR _this$[ebp]
	movzx	ecx, WORD PTR [eax+156]
	movzx	edx, WORD PTR _unicode$[ebp]
	cmp	ecx, edx
	jne	SHORT $LN6@copyGlyph
; Line 203
	jmp	SHORT $LN3@copyGlyph
	jmp	SHORT $LN7@copyGlyph
$LN6@copyGlyph:
; Line 205
	mov	eax, DWORD PTR _this$[ebp]
	movzx	ecx, WORD PTR [eax+156]
	movzx	edx, WORD PTR _unicode$[ebp]
	cmp	ecx, edx
	jle	SHORT $LN7@copyGlyph
; Line 208
	mov	eax, DWORD PTR _this$[ebp]
	mov	BYTE PTR [eax+172], 1
; Line 209
	mov	eax, DWORD PTR _top$[ebp]
	jmp	$LN1@copyGlyph
$LN7@copyGlyph:
; Line 211
	jmp	$LN2@copyGlyph
$LN3@copyGlyph:
; Line 214
	mov	eax, DWORD PTR _this$[ebp]
	movzx	ecx, WORD PTR [eax+156]
	movzx	edx, WORD PTR _unicode$[ebp]
	cmp	ecx, edx
	je	SHORT $LN9@copyGlyph
; Line 216
	mov	eax, DWORD PTR _top$[ebp]
	jmp	$LN1@copyGlyph
$LN9@copyGlyph:
; Line 220
	mov	ecx, DWORD PTR _this$[ebp]
	add	ecx, 152				; 00000098H
	call	?width@GlyphNode@touchgfx@@QBEGXZ	; touchgfx::GlyphNode::width
	movzx	esi, ax
	add	esi, 1
	and	esi, -2					; fffffffeH
	mov	ecx, DWORD PTR _this$[ebp]
	add	ecx, 152				; 00000098H
	call	?height@GlyphNode@touchgfx@@QBEGXZ	; touchgfx::GlyphNode::height
	movzx	eax, ax
	imul	esi, eax
	imul	esi, DWORD PTR _bpp$[ebp]
	shr	esi, 3
	mov	DWORD PTR _glyphSize$[ebp], esi
; Line 221
	mov	eax, DWORD PTR _glyphSize$[ebp]
	add	eax, 3
	and	eax, -4					; fffffffcH
	mov	DWORD PTR _glyphSize$[ebp], eax
; Line 224
	mov	eax, DWORD PTR _glyphSize$[ebp]
	mov	ecx, DWORD PTR _top$[ebp]
	lea	edx, DWORD PTR [ecx+eax+20]
	mov	eax, DWORD PTR _this$[ebp]
	cmp	edx, DWORD PTR [eax+64]
	jbe	SHORT $LN10@copyGlyph
; Line 226
	mov	eax, DWORD PTR _outOfMemory$[ebp]
	mov	BYTE PTR [eax], 1
; Line 227
	mov	eax, DWORD PTR _top$[ebp]
	jmp	SHORT $LN1@copyGlyph
$LN10@copyGlyph:
; Line 230
	mov	eax, DWORD PTR _this$[ebp]
	add	eax, 152				; 00000098H
	mov	ecx, DWORD PTR _top$[ebp]
	mov	edx, DWORD PTR [eax]
	mov	DWORD PTR [ecx], edx
	mov	edx, DWORD PTR [eax+4]
	mov	DWORD PTR [ecx+4], edx
	mov	edx, DWORD PTR [eax+8]
	mov	DWORD PTR [ecx+8], edx
	mov	ax, WORD PTR [eax+12]
	mov	WORD PTR [ecx+12], ax
; Line 232
	mov	eax, DWORD PTR _top$[ebp]
	add	eax, 16					; 00000010H
	mov	DWORD PTR _top$[ebp], eax
; Line 234
	mov	eax, DWORD PTR _top$[ebp]
	add	eax, 4
	mov	DWORD PTR _top$[ebp], eax
; Line 237
	mov	eax, DWORD PTR _top$[ebp]
	add	eax, DWORD PTR _glyphSize$[ebp]
	mov	DWORD PTR _top$[ebp], eax
; Line 238
	mov	eax, DWORD PTR _top$[ebp]
$LN1@copyGlyph:
; Line 239
	pop	edi
	pop	esi
	pop	ebx
	add	esp, 216				; 000000d8H
	cmp	ebp, esp
	call	__RTC_CheckEsp
	mov	esp, ebp
	pop	ebp
	ret	20					; 00000014H
?copyGlyph@FontCache@touchgfx@@AAEPAEPAEGGIAA_N@Z ENDP	; touchgfx::FontCache::copyGlyph
_TEXT	ENDS
; Function compile flags: /Odtp /RTCsu /ZI
;	COMDAT ?insert@FontCache@touchgfx@@AAEXGGIAA_N@Z
_TEXT	SEGMENT
_old_next$1 = -32					; size = 4
_oldTop$ = -20						; size = 4
_this$ = -8						; size = 4
_unicode$ = 8						; size = 2
_font$ = 12						; size = 2
_bpp$ = 16						; size = 4
_outOfMemory$ = 20					; size = 4
?insert@FontCache@touchgfx@@AAEXGGIAA_N@Z PROC		; touchgfx::FontCache::insert, COMDAT
; _this$ = ecx
; File C:\TouchGFXProjects\Dashboard\TouchGFX\generated\fonts\src\FontCache.cpp
; Line 161
	push	ebp
	mov	ebp, esp
	sub	esp, 228				; 000000e4H
	push	ebx
	push	esi
	push	edi
	push	ecx
	lea	edi, DWORD PTR [ebp-228]
	mov	ecx, 57					; 00000039H
	mov	eax, -858993460				; ccccccccH
	rep stosd
	pop	ecx
	mov	DWORD PTR _this$[ebp], ecx
	mov	ecx, OFFSET __AEB314D6_FontCache@cpp
	call	@__CheckForDebuggerJustMyCode@4
; Line 163
	mov	eax, DWORD PTR _this$[ebp]
	mov	ecx, DWORD PTR [eax+56]
	mov	DWORD PTR _oldTop$[ebp], ecx
; Line 164
	mov	eax, DWORD PTR _outOfMemory$[ebp]
	push	eax
	mov	ecx, DWORD PTR _bpp$[ebp]
	push	ecx
	movzx	edx, WORD PTR _font$[ebp]
	push	edx
	movzx	eax, WORD PTR _unicode$[ebp]
	push	eax
	mov	ecx, DWORD PTR _this$[ebp]
	mov	edx, DWORD PTR [ecx+56]
	push	edx
	mov	ecx, DWORD PTR _this$[ebp]
	call	?copyGlyph@FontCache@touchgfx@@AAEPAEPAEGGIAA_N@Z ; touchgfx::FontCache::copyGlyph
	mov	ecx, DWORD PTR _this$[ebp]
	mov	DWORD PTR [ecx+56], eax
; Line 166
	mov	eax, DWORD PTR _this$[ebp]
	mov	ecx, DWORD PTR [eax+56]
	cmp	ecx, DWORD PTR _oldTop$[ebp]
	jne	SHORT $LN2@insert
; Line 168
	jmp	SHORT $LN1@insert
$LN2@insert:
; Line 171
	movzx	eax, WORD PTR _font$[ebp]
	mov	ecx, DWORD PTR _this$[ebp]
	cmp	DWORD PTR [ecx+eax*8+4], 0
	jne	SHORT $LN3@insert
; Line 174
	movzx	eax, WORD PTR _font$[ebp]
	mov	ecx, DWORD PTR _this$[ebp]
	mov	edx, DWORD PTR _oldTop$[ebp]
	mov	DWORD PTR [ecx+eax*8], edx
; Line 175
	movzx	eax, WORD PTR _font$[ebp]
	mov	ecx, DWORD PTR _this$[ebp]
	mov	edx, DWORD PTR _oldTop$[ebp]
	mov	DWORD PTR [ecx+eax*8+4], edx
; Line 177
	jmp	SHORT $LN1@insert
$LN3@insert:
; Line 180
	movzx	eax, WORD PTR _font$[ebp]
	mov	ecx, DWORD PTR _this$[ebp]
	mov	edx, DWORD PTR [ecx+eax*8+4]
	add	edx, 16					; 00000010H
	mov	DWORD PTR _old_next$1[ebp], edx
; Line 181
	mov	eax, DWORD PTR _old_next$1[ebp]
	mov	ecx, DWORD PTR _oldTop$[ebp]
	mov	DWORD PTR [eax], ecx
; Line 184
	movzx	eax, WORD PTR _font$[ebp]
	mov	ecx, DWORD PTR _this$[ebp]
	mov	edx, DWORD PTR _oldTop$[ebp]
	mov	DWORD PTR [ecx+eax*8+4], edx
$LN1@insert:
; Line 186
	pop	edi
	pop	esi
	pop	ebx
	add	esp, 228				; 000000e4H
	cmp	ebp, esp
	call	__RTC_CheckEsp
	mov	esp, ebp
	pop	ebp
	ret	16					; 00000010H
?insert@FontCache@touchgfx@@AAEXGGIAA_N@Z ENDP		; touchgfx::FontCache::insert
_TEXT	ENDS
; Function compile flags: /Odtp /RTCsu /ZI
;	COMDAT ?contains@FontCache@touchgfx@@ABE_NGG@Z
_TEXT	SEGMENT
_next$1 = -32						; size = 4
_g$ = -20						; size = 4
_this$ = -8						; size = 4
_unicode$ = 8						; size = 2
_font$ = 12						; size = 2
?contains@FontCache@touchgfx@@ABE_NGG@Z PROC		; touchgfx::FontCache::contains, COMDAT
; _this$ = ecx
; File C:\TouchGFXProjects\Dashboard\TouchGFX\generated\fonts\src\FontCache.cpp
; Line 146
	push	ebp
	mov	ebp, esp
	sub	esp, 228				; 000000e4H
	push	ebx
	push	esi
	push	edi
	push	ecx
	lea	edi, DWORD PTR [ebp-228]
	mov	ecx, 57					; 00000039H
	mov	eax, -858993460				; ccccccccH
	rep stosd
	pop	ecx
	mov	DWORD PTR _this$[ebp], ecx
	mov	ecx, OFFSET __AEB314D6_FontCache@cpp
	call	@__CheckForDebuggerJustMyCode@4
; Line 147
	movzx	eax, WORD PTR _font$[ebp]
	mov	ecx, DWORD PTR _this$[ebp]
	mov	edx, DWORD PTR [ecx+eax*8]
	mov	DWORD PTR _g$[ebp], edx
$LN2@contains:
; Line 148
	cmp	DWORD PTR _g$[ebp], 0
	je	SHORT $LN3@contains
; Line 150
	mov	eax, DWORD PTR _g$[ebp]
	movzx	ecx, WORD PTR [eax+4]
	movzx	edx, WORD PTR _unicode$[ebp]
	cmp	ecx, edx
	jne	SHORT $LN4@contains
; Line 152
	mov	al, 1
	jmp	SHORT $LN1@contains
$LN4@contains:
; Line 154
	mov	eax, DWORD PTR _g$[ebp]
	add	eax, 16					; 00000010H
	mov	DWORD PTR _next$1[ebp], eax
; Line 155
	mov	eax, DWORD PTR _next$1[ebp]
	mov	ecx, DWORD PTR [eax]
	mov	DWORD PTR _g$[ebp], ecx
; Line 156
	jmp	SHORT $LN2@contains
$LN3@contains:
; Line 157
	xor	al, al
$LN1@contains:
; Line 158
	pop	edi
	pop	esi
	pop	ebx
	add	esp, 228				; 000000e4H
	cmp	ebp, esp
	call	__RTC_CheckEsp
	mov	esp, ebp
	pop	ebp
	ret	8
?contains@FontCache@touchgfx@@ABE_NGG@Z ENDP		; touchgfx::FontCache::contains
_TEXT	ENDS
; Function compile flags: /Odtp /RTCsu /ZI
;	COMDAT ?close@FontCache@touchgfx@@QAEXXZ
_TEXT	SEGMENT
_this$ = -8						; size = 4
?close@FontCache@touchgfx@@QAEXXZ PROC			; touchgfx::FontCache::close, COMDAT
; _this$ = ecx
; File C:\TouchGFXProjects\Dashboard\TouchGFX\generated\fonts\src\FontCache.cpp
; Line 61
	push	ebp
	mov	ebp, esp
	sub	esp, 204				; 000000ccH
	push	ebx
	push	esi
	push	edi
	push	ecx
	lea	edi, DWORD PTR [ebp-204]
	mov	ecx, 51					; 00000033H
	mov	eax, -858993460				; ccccccccH
	rep stosd
	pop	ecx
	mov	DWORD PTR _this$[ebp], ecx
	mov	ecx, OFFSET __AEB314D6_FontCache@cpp
	call	@__CheckForDebuggerJustMyCode@4
; Line 62
	mov	eax, DWORD PTR _this$[ebp]
	cmp	DWORD PTR [eax+60], 0
	je	SHORT $LN1@close
; Line 64
	mov	eax, DWORD PTR _this$[ebp]
	mov	ecx, DWORD PTR [eax+60]
	mov	edx, DWORD PTR _this$[ebp]
	mov	eax, DWORD PTR [ecx]
	mov	esi, esp
	mov	ecx, DWORD PTR [edx+60]
	mov	edx, DWORD PTR [eax+8]
	call	edx
	cmp	esi, esp
	call	__RTC_CheckEsp
$LN1@close:
; Line 66
	pop	edi
	pop	esi
	pop	ebx
	add	esp, 204				; 000000ccH
	cmp	ebp, esp
	call	__RTC_CheckEsp
	mov	esp, ebp
	pop	ebp
	ret	0
?close@FontCache@touchgfx@@QAEXXZ ENDP			; touchgfx::FontCache::close
_TEXT	ENDS
; Function compile flags: /Odtp /RTCsu /ZI
;	COMDAT ?open@FontCache@touchgfx@@QAEXXZ
_TEXT	SEGMENT
_this$ = -8						; size = 4
?open@FontCache@touchgfx@@QAEXXZ PROC			; touchgfx::FontCache::open, COMDAT
; _this$ = ecx
; File C:\TouchGFXProjects\Dashboard\TouchGFX\generated\fonts\src\FontCache.cpp
; Line 53
	push	ebp
	mov	ebp, esp
	sub	esp, 204				; 000000ccH
	push	ebx
	push	esi
	push	edi
	push	ecx
	lea	edi, DWORD PTR [ebp-204]
	mov	ecx, 51					; 00000033H
	mov	eax, -858993460				; ccccccccH
	rep stosd
	pop	ecx
	mov	DWORD PTR _this$[ebp], ecx
	mov	ecx, OFFSET __AEB314D6_FontCache@cpp
	call	@__CheckForDebuggerJustMyCode@4
; Line 54
	mov	eax, DWORD PTR _this$[ebp]
	cmp	DWORD PTR [eax+60], 0
	je	SHORT $LN1@open
; Line 56
	mov	eax, DWORD PTR _this$[ebp]
	mov	ecx, DWORD PTR [eax+60]
	mov	edx, DWORD PTR _this$[ebp]
	mov	eax, DWORD PTR [ecx]
	mov	esi, esp
	mov	ecx, DWORD PTR [edx+60]
	mov	edx, DWORD PTR [eax+4]
	call	edx
	cmp	esi, esp
	call	__RTC_CheckEsp
$LN1@open:
; Line 58
	pop	edi
	pop	esi
	pop	ebx
	add	esp, 204				; 000000ccH
	cmp	ebp, esp
	call	__RTC_CheckEsp
	mov	esp, ebp
	pop	ebp
	ret	0
?open@FontCache@touchgfx@@QAEXXZ ENDP			; touchgfx::FontCache::open
_TEXT	ENDS
; Function compile flags: /Odtp /RTCsu /ZI
;	COMDAT ?getGlyph@FontCache@touchgfx@@QBEPBUGlyphNode@2@GG@Z
_TEXT	SEGMENT
_next$1 = -32						; size = 4
_g$ = -20						; size = 4
_this$ = -8						; size = 4
_unicode$ = 8						; size = 2
_font$ = 12						; size = 2
?getGlyph@FontCache@touchgfx@@QBEPBUGlyphNode@2@GG@Z PROC ; touchgfx::FontCache::getGlyph, COMDAT
; _this$ = ecx
; File C:\TouchGFXProjects\Dashboard\TouchGFX\generated\fonts\src\FontCache.cpp
; Line 38
	push	ebp
	mov	ebp, esp
	sub	esp, 228				; 000000e4H
	push	ebx
	push	esi
	push	edi
	push	ecx
	lea	edi, DWORD PTR [ebp-228]
	mov	ecx, 57					; 00000039H
	mov	eax, -858993460				; ccccccccH
	rep stosd
	pop	ecx
	mov	DWORD PTR _this$[ebp], ecx
	mov	ecx, OFFSET __AEB314D6_FontCache@cpp
	call	@__CheckForDebuggerJustMyCode@4
; Line 39
	movzx	eax, WORD PTR _font$[ebp]
	mov	ecx, DWORD PTR _this$[ebp]
	mov	edx, DWORD PTR [ecx+eax*8]
	mov	DWORD PTR _g$[ebp], edx
$LN2@getGlyph:
; Line 40
	cmp	DWORD PTR _g$[ebp], 0
	je	SHORT $LN3@getGlyph
; Line 42
	mov	eax, DWORD PTR _g$[ebp]
	movzx	ecx, WORD PTR [eax+4]
	movzx	edx, WORD PTR _unicode$[ebp]
	cmp	ecx, edx
	jne	SHORT $LN4@getGlyph
; Line 44
	mov	eax, DWORD PTR _g$[ebp]
	jmp	SHORT $LN1@getGlyph
$LN4@getGlyph:
; Line 46
	mov	eax, DWORD PTR _g$[ebp]
	add	eax, 16					; 00000010H
	mov	DWORD PTR _next$1[ebp], eax
; Line 47
	mov	eax, DWORD PTR _next$1[ebp]
	mov	ecx, DWORD PTR [eax]
	mov	DWORD PTR _g$[ebp], ecx
; Line 48
	jmp	SHORT $LN2@getGlyph
$LN3@getGlyph:
; Line 49
	xor	eax, eax
$LN1@getGlyph:
; Line 50
	pop	edi
	pop	esi
	pop	ebx
	add	esp, 228				; 000000e4H
	cmp	ebp, esp
	call	__RTC_CheckEsp
	mov	esp, ebp
	pop	ebp
	ret	8
?getGlyph@FontCache@touchgfx@@QBEPBUGlyphNode@2@GG@Z ENDP ; touchgfx::FontCache::getGlyph
_TEXT	ENDS
; Function compile flags: /Odtp /RTCsu /ZI
;	COMDAT ?cacheString@FontCache@touchgfx@@QAE_NVTypedText@2@PBG@Z
_TEXT	SEGMENT
tv169 = -304						; size = 4
_ch$1 = -104						; size = 2
_outOfMemory$ = -89					; size = 1
_firstNewGlyph$ = -80					; size = 4
_last$ = -68						; size = 2
_data$ = -56						; size = 4
_bpp$ = -44						; size = 4
_font$ = -32						; size = 4
_fontId$ = -20						; size = 2
_this$ = -8						; size = 4
_t$ = 8							; size = 2
_string$ = 12						; size = 4
?cacheString@FontCache@touchgfx@@QAE_NVTypedText@2@PBG@Z PROC ; touchgfx::FontCache::cacheString, COMDAT
; _this$ = ecx
; File C:\TouchGFXProjects\Dashboard\TouchGFX\generated\fonts\src\FontCache.cpp
; Line 83
	push	ebp
	mov	ebp, esp
	sub	esp, 304				; 00000130H
	push	ebx
	push	esi
	push	edi
	push	ecx
	lea	edi, DWORD PTR [ebp-304]
	mov	ecx, 76					; 0000004cH
	mov	eax, -858993460				; ccccccccH
	rep stosd
	pop	ecx
	mov	DWORD PTR _this$[ebp], ecx
	mov	ecx, OFFSET __AEB314D6_FontCache@cpp
	call	@__CheckForDebuggerJustMyCode@4
; Line 85
	lea	ecx, DWORD PTR _t$[ebp]
	call	?getFontId@TypedText@touchgfx@@QBEGXZ	; touchgfx::TypedText::getFontId
	mov	WORD PTR _fontId$[ebp], ax
; Line 87
	lea	ecx, DWORD PTR _t$[ebp]
	call	?getFont@TypedText@touchgfx@@QBEPBVFont@2@XZ ; touchgfx::TypedText::getFont
	mov	DWORD PTR _font$[ebp], eax
; Line 88
	mov	eax, DWORD PTR _font$[ebp]
	mov	edx, DWORD PTR [eax]
	mov	esi, esp
	mov	ecx, DWORD PTR _font$[ebp]
	mov	eax, DWORD PTR [edx+48]
	call	eax
	cmp	esi, esp
	call	__RTC_CheckEsp
	movzx	ecx, al
	mov	DWORD PTR _bpp$[ebp], ecx
; Line 89
	mov	eax, DWORD PTR _this$[ebp]
	add	eax, 68					; 00000044H
	mov	DWORD PTR _data$[ebp], eax
; Line 91
	mov	eax, DWORD PTR _string$[ebp]
	push	eax
	mov	ecx, DWORD PTR _this$[ebp]
	call	?createSortedString@FontCache@touchgfx@@AAE_NPBG@Z ; touchgfx::FontCache::createSortedString
	movzx	ecx, al
	test	ecx, ecx
	jne	SHORT $LN4@cacheStrin
; Line 93
	xor	al, al
	jmp	$LN1@cacheStrin
$LN4@cacheStrin:
; Line 96
	push	4
	mov	ecx, DWORD PTR _this$[ebp]
	call	?setPosition@FontCache@touchgfx@@AAEXI@Z ; touchgfx::FontCache::setPosition
; Line 98
	push	4
	mov	eax, DWORD PTR _data$[ebp]
	push	eax
	mov	ecx, DWORD PTR _this$[ebp]
	call	?readData@FontCache@touchgfx@@AAEXPAXI@Z ; touchgfx::FontCache::readData
; Line 99
	mov	eax, DWORD PTR _this$[ebp]
	mov	ecx, DWORD PTR _data$[ebp]
	mov	edx, DWORD PTR [ecx]
	mov	DWORD PTR [eax+132], edx
; Line 100
	push	4
	mov	eax, DWORD PTR _data$[ebp]
	push	eax
	mov	ecx, DWORD PTR _this$[ebp]
	call	?readData@FontCache@touchgfx@@AAEXPAXI@Z ; touchgfx::FontCache::readData
; Line 101
	mov	eax, DWORD PTR _this$[ebp]
	mov	ecx, DWORD PTR _data$[ebp]
	mov	edx, DWORD PTR [ecx]
	mov	DWORD PTR [eax+140], edx
; Line 102
	push	4
	mov	eax, DWORD PTR _data$[ebp]
	push	eax
	mov	ecx, DWORD PTR _this$[ebp]
	call	?readData@FontCache@touchgfx@@AAEXPAXI@Z ; touchgfx::FontCache::readData
; Line 103
	mov	eax, DWORD PTR _this$[ebp]
	mov	ecx, DWORD PTR _data$[ebp]
	mov	edx, DWORD PTR [ecx]
	mov	DWORD PTR [eax+136], edx
; Line 104
	push	4
	mov	eax, DWORD PTR _data$[ebp]
	push	eax
	mov	ecx, DWORD PTR _this$[ebp]
	call	?readData@FontCache@touchgfx@@AAEXPAXI@Z ; touchgfx::FontCache::readData
; Line 105
	mov	eax, DWORD PTR _this$[ebp]
	mov	ecx, DWORD PTR _data$[ebp]
	mov	edx, DWORD PTR [ecx]
	mov	DWORD PTR [eax+144], edx
; Line 106
	push	2
	mov	eax, DWORD PTR _data$[ebp]
	push	eax
	mov	ecx, DWORD PTR _this$[ebp]
	call	?readData@FontCache@touchgfx@@AAEXPAXI@Z ; touchgfx::FontCache::readData
; Line 107
	mov	eax, DWORD PTR _this$[ebp]
	mov	ecx, DWORD PTR _data$[ebp]
	mov	edx, DWORD PTR [ecx]
	mov	DWORD PTR [eax+148], edx
; Line 110
	mov	eax, DWORD PTR _this$[ebp]
	mov	ecx, DWORD PTR [eax+132]
	push	ecx
	mov	ecx, DWORD PTR _this$[ebp]
	call	?setPosition@FontCache@touchgfx@@AAEXI@Z ; touchgfx::FontCache::setPosition
; Line 111
	mov	eax, DWORD PTR _this$[ebp]
	mov	DWORD PTR [eax+168], 0
; Line 113
	mov	eax, DWORD PTR _this$[ebp]
	mov	BYTE PTR [eax+172], 0
; Line 115
	mov	eax, DWORD PTR _this$[ebp]
	mov	ecx, DWORD PTR [eax+64]
	mov	DWORD PTR _string$[ebp], ecx
; Line 116
	xor	eax, eax
	mov	WORD PTR _last$[ebp], ax
; Line 117
	mov	DWORD PTR _firstNewGlyph$[ebp], 0
; Line 118
	mov	BYTE PTR _outOfMemory$[ebp], 0
$LN2@cacheStrin:
; Line 119
	mov	eax, DWORD PTR _string$[ebp]
	movzx	ecx, WORD PTR [eax]
	test	ecx, ecx
	je	SHORT $LN3@cacheStrin
; Line 121
	mov	eax, DWORD PTR _string$[ebp]
	mov	cx, WORD PTR [eax]
	mov	WORD PTR _ch$1[ebp], cx
; Line 122
	movzx	eax, WORD PTR _ch$1[ebp]
	movzx	ecx, WORD PTR _last$[ebp]
	cmp	eax, ecx
	je	SHORT $LN5@cacheStrin
; Line 124
	movzx	eax, WORD PTR _fontId$[ebp]
	push	eax
	movzx	ecx, WORD PTR _ch$1[ebp]
	push	ecx
	mov	ecx, DWORD PTR _this$[ebp]
	call	?contains@FontCache@touchgfx@@ABE_NGG@Z	; touchgfx::FontCache::contains
	movzx	edx, al
	test	edx, edx
	jne	SHORT $LN5@cacheStrin
; Line 126
	lea	eax, DWORD PTR _outOfMemory$[ebp]
	push	eax
	mov	ecx, DWORD PTR _bpp$[ebp]
	push	ecx
	movzx	edx, WORD PTR _fontId$[ebp]
	push	edx
	movzx	eax, WORD PTR _ch$1[ebp]
	push	eax
	mov	ecx, DWORD PTR _this$[ebp]
	call	?insert@FontCache@touchgfx@@AAEXGGIAA_N@Z ; touchgfx::FontCache::insert
; Line 127
	movzx	eax, BYTE PTR _outOfMemory$[ebp]
	test	eax, eax
	je	SHORT $LN7@cacheStrin
; Line 129
	jmp	SHORT $LN3@cacheStrin
$LN7@cacheStrin:
; Line 131
	cmp	DWORD PTR _firstNewGlyph$[ebp], 0
	jne	SHORT $LN5@cacheStrin
; Line 133
	movzx	eax, WORD PTR _fontId$[ebp]
	mov	ecx, DWORD PTR _this$[ebp]
	mov	edx, DWORD PTR [ecx+eax*8+4]
	mov	DWORD PTR _firstNewGlyph$[ebp], edx
$LN5@cacheStrin:
; Line 137
	mov	ax, WORD PTR _ch$1[ebp]
	mov	WORD PTR _last$[ebp], ax
; Line 138
	mov	eax, DWORD PTR _string$[ebp]
	add	eax, 2
	mov	DWORD PTR _string$[ebp], eax
; Line 139
	jmp	$LN2@cacheStrin
$LN3@cacheStrin:
; Line 141
	mov	eax, DWORD PTR _firstNewGlyph$[ebp]
	push	eax
	mov	ecx, DWORD PTR _bpp$[ebp]
	push	ecx
	mov	ecx, DWORD PTR _this$[ebp]
	call	?cacheData@FontCache@touchgfx@@AAEXIPAUGlyphNode@2@@Z ; touchgfx::FontCache::cacheData
; Line 142
	movzx	eax, BYTE PTR _outOfMemory$[ebp]
	test	eax, eax
	jne	SHORT $LN10@cacheStrin
	mov	DWORD PTR tv169[ebp], 1
	jmp	SHORT $LN11@cacheStrin
$LN10@cacheStrin:
	mov	DWORD PTR tv169[ebp], 0
$LN11@cacheStrin:
	mov	al, BYTE PTR tv169[ebp]
$LN1@cacheStrin:
; Line 143
	push	edx
	mov	ecx, ebp
	push	eax
	lea	edx, DWORD PTR $LN14@cacheStrin
	call	@_RTC_CheckStackVars@8
	pop	eax
	pop	edx
	pop	edi
	pop	esi
	pop	ebx
	add	esp, 304				; 00000130H
	cmp	ebp, esp
	call	__RTC_CheckEsp
	mov	esp, ebp
	pop	ebp
	ret	8
	npad	2
$LN14@cacheStrin:
	DD	1
	DD	$LN13@cacheStrin
$LN13@cacheStrin:
	DD	-89					; ffffffa7H
	DD	1
	DD	$LN12@cacheStrin
$LN12@cacheStrin:
	DB	111					; 0000006fH
	DB	117					; 00000075H
	DB	116					; 00000074H
	DB	79					; 0000004fH
	DB	102					; 00000066H
	DB	77					; 0000004dH
	DB	101					; 00000065H
	DB	109					; 0000006dH
	DB	111					; 0000006fH
	DB	114					; 00000072H
	DB	121					; 00000079H
	DB	0
?cacheString@FontCache@touchgfx@@QAE_NVTypedText@2@PBG@Z ENDP ; touchgfx::FontCache::cacheString
_TEXT	ENDS
; Function compile flags: /Odtp /RTCsu /ZI
;	COMDAT ?initializeCachedFont@FontCache@touchgfx@@QAEXVTypedText@2@PAVCachedFont@2@@Z
_TEXT	SEGMENT
tv93 = -300						; size = 4
$T1 = -292						; size = 48
_flashFont$ = -44					; size = 4
_flashFonts$ = -32					; size = 4
_fontId$ = -20						; size = 2
_this$ = -8						; size = 4
_t$ = 8							; size = 2
_font$ = 12						; size = 4
?initializeCachedFont@FontCache@touchgfx@@QAEXVTypedText@2@PAVCachedFont@2@@Z PROC ; touchgfx::FontCache::initializeCachedFont, COMDAT
; _this$ = ecx
; File C:\TouchGFXProjects\Dashboard\TouchGFX\generated\fonts\src\FontCache.cpp
; Line 69
	push	ebp
	mov	ebp, esp
	sub	esp, 300				; 0000012cH
	push	ebx
	push	esi
	push	edi
	push	ecx
	lea	edi, DWORD PTR [ebp-300]
	mov	ecx, 75					; 0000004bH
	mov	eax, -858993460				; ccccccccH
	rep stosd
	pop	ecx
	mov	DWORD PTR _this$[ebp], ecx
	mov	ecx, OFFSET __AEB314D6_FontCache@cpp
	call	@__CheckForDebuggerJustMyCode@4
; Line 71
	lea	ecx, DWORD PTR _t$[ebp]
	call	?getFontId@TypedText@touchgfx@@QBEGXZ	; touchgfx::TypedText::getFontId
	mov	WORD PTR _fontId$[ebp], ax
; Line 73
	push	0
	mov	ecx, DWORD PTR _this$[ebp]
	call	?setPosition@FontCache@touchgfx@@AAEXI@Z ; touchgfx::FontCache::setPosition
; Line 76
	push	32					; 00000020H
	mov	eax, DWORD PTR _this$[ebp]
	add	eax, 68					; 00000044H
	push	eax
	mov	ecx, DWORD PTR _this$[ebp]
	call	?readData@FontCache@touchgfx@@AAEXPAXI@Z ; touchgfx::FontCache::readData
; Line 77
	call	?getFonts@TypedTextDatabase@@YAPAPBVFont@touchgfx@@XZ ; TypedTextDatabase::getFonts
	mov	DWORD PTR _flashFonts$[ebp], eax
; Line 78
	movzx	eax, WORD PTR _fontId$[ebp]
	mov	ecx, DWORD PTR _flashFonts$[ebp]
	mov	edx, DWORD PTR [ecx+eax*4]
	mov	DWORD PTR _flashFont$[ebp], edx
; Line 79
	mov	eax, DWORD PTR _flashFont$[ebp]
	push	eax
	mov	ecx, DWORD PTR _this$[ebp]
	push	ecx
	movzx	edx, WORD PTR _fontId$[ebp]
	push	edx
	mov	eax, DWORD PTR _this$[ebp]
	add	eax, 68					; 00000044H
	push	eax
	lea	ecx, DWORD PTR $T1[ebp]
	call	??0CachedFont@touchgfx@@QAE@PBUBinaryFontData@1@GPAVFontCache@1@PBVGeneratedFont@1@@Z ; touchgfx::CachedFont::CachedFont
	mov	DWORD PTR tv93[ebp], eax
	mov	ecx, DWORD PTR tv93[ebp]
	push	ecx
	mov	ecx, DWORD PTR _font$[ebp]
	call	??4CachedFont@touchgfx@@QAEAAV01@$$QAV01@@Z
	lea	ecx, DWORD PTR $T1[ebp]
	call	??1CachedFont@touchgfx@@UAE@XZ
; Line 80
	pop	edi
	pop	esi
	pop	ebx
	add	esp, 300				; 0000012cH
	cmp	ebp, esp
	call	__RTC_CheckEsp
	mov	esp, ebp
	pop	ebp
	ret	8
?initializeCachedFont@FontCache@touchgfx@@QAEXVTypedText@2@PAVCachedFont@2@@Z ENDP ; touchgfx::FontCache::initializeCachedFont
_TEXT	ENDS
; Function compile flags: /Odtp /RTCsu /ZI
;	COMDAT ?setMemory@FontCache@touchgfx@@QAEXPAEI@Z
_TEXT	SEGMENT
_this$ = -8						; size = 4
__memory$ = 8						; size = 4
_size$ = 12						; size = 4
?setMemory@FontCache@touchgfx@@QAEXPAEI@Z PROC		; touchgfx::FontCache::setMemory, COMDAT
; _this$ = ecx
; File C:\TouchGFXProjects\Dashboard\TouchGFX\generated\fonts\src\FontCache.cpp
; Line 24
	push	ebp
	mov	ebp, esp
	sub	esp, 204				; 000000ccH
	push	ebx
	push	esi
	push	edi
	push	ecx
	lea	edi, DWORD PTR [ebp-204]
	mov	ecx, 51					; 00000033H
	mov	eax, -858993460				; ccccccccH
	rep stosd
	pop	ecx
	mov	DWORD PTR _this$[ebp], ecx
	mov	ecx, OFFSET __AEB314D6_FontCache@cpp
	call	@__CheckForDebuggerJustMyCode@4
; Line 25
	mov	eax, DWORD PTR _this$[ebp]
	mov	ecx, DWORD PTR __memory$[ebp]
	mov	DWORD PTR [eax+52], ecx
; Line 26
	mov	eax, DWORD PTR _this$[ebp]
	mov	ecx, DWORD PTR _this$[ebp]
	mov	edx, DWORD PTR [ecx+52]
	mov	DWORD PTR [eax+56], edx
; Line 27
	mov	eax, DWORD PTR _this$[ebp]
	mov	ecx, DWORD PTR _size$[ebp]
	mov	DWORD PTR [eax+48], ecx
; Line 29
	mov	ecx, DWORD PTR _this$[ebp]
	call	?clear@FontCache@touchgfx@@QAEXXZ	; touchgfx::FontCache::clear
; Line 30
	pop	edi
	pop	esi
	pop	ebx
	add	esp, 204				; 000000ccH
	cmp	ebp, esp
	call	__RTC_CheckEsp
	mov	esp, ebp
	pop	ebp
	ret	8
?setMemory@FontCache@touchgfx@@QAEXPAEI@Z ENDP		; touchgfx::FontCache::setMemory
_TEXT	ENDS
; Function compile flags: /Odtp /RTCsu /ZI
;	COMDAT ?clear@FontCache@touchgfx@@QAEXXZ
_TEXT	SEGMENT
_this$ = -8						; size = 4
?clear@FontCache@touchgfx@@QAEXXZ PROC			; touchgfx::FontCache::clear, COMDAT
; _this$ = ecx
; File C:\TouchGFXProjects\Dashboard\TouchGFX\generated\fonts\src\FontCache.cpp
; Line 18
	push	ebp
	mov	ebp, esp
	sub	esp, 204				; 000000ccH
	push	ebx
	push	esi
	push	edi
	push	ecx
	lea	edi, DWORD PTR [ebp-204]
	mov	ecx, 51					; 00000033H
	mov	eax, -858993460				; ccccccccH
	rep stosd
	pop	ecx
	mov	DWORD PTR _this$[ebp], ecx
	mov	ecx, OFFSET __AEB314D6_FontCache@cpp
	call	@__CheckForDebuggerJustMyCode@4
; Line 19
	mov	eax, DWORD PTR _this$[ebp]
	mov	ecx, DWORD PTR [eax+48]
	push	ecx
	push	0
	mov	edx, DWORD PTR _this$[ebp]
	mov	eax, DWORD PTR [edx+52]
	push	eax
	call	?memset@touchgfx@@YAXPAXEI@Z		; touchgfx::memset
	add	esp, 12					; 0000000cH
; Line 20
	push	48					; 00000030H
	push	0
	mov	eax, DWORD PTR _this$[ebp]
	push	eax
	call	?memset@touchgfx@@YAXPAXEI@Z		; touchgfx::memset
	add	esp, 12					; 0000000cH
; Line 21
	pop	edi
	pop	esi
	pop	ebx
	add	esp, 204				; 000000ccH
	cmp	ebp, esp
	call	__RTC_CheckEsp
	mov	esp, ebp
	pop	ebp
	ret	0
?clear@FontCache@touchgfx@@QAEXXZ ENDP			; touchgfx::FontCache::clear
_TEXT	ENDS
; Function compile flags: /Odtp /RTCsu /ZI
;	COMDAT ?setReader@FontCache@touchgfx@@QAEXPAVFontDataReader@2@@Z
_TEXT	SEGMENT
_this$ = -8						; size = 4
__reader$ = 8						; size = 4
?setReader@FontCache@touchgfx@@QAEXPAVFontDataReader@2@@Z PROC ; touchgfx::FontCache::setReader, COMDAT
; _this$ = ecx
; File C:\TouchGFXProjects\Dashboard\TouchGFX\generated\fonts\src\FontCache.cpp
; Line 33
	push	ebp
	mov	ebp, esp
	sub	esp, 204				; 000000ccH
	push	ebx
	push	esi
	push	edi
	push	ecx
	lea	edi, DWORD PTR [ebp-204]
	mov	ecx, 51					; 00000033H
	mov	eax, -858993460				; ccccccccH
	rep stosd
	pop	ecx
	mov	DWORD PTR _this$[ebp], ecx
	mov	ecx, OFFSET __AEB314D6_FontCache@cpp
	call	@__CheckForDebuggerJustMyCode@4
; Line 34
	mov	eax, DWORD PTR _this$[ebp]
	mov	ecx, DWORD PTR __reader$[ebp]
	mov	DWORD PTR [eax+60], ecx
; Line 35
	pop	edi
	pop	esi
	pop	ebx
	add	esp, 204				; 000000ccH
	cmp	ebp, esp
	call	__RTC_CheckEsp
	mov	esp, ebp
	pop	ebp
	ret	4
?setReader@FontCache@touchgfx@@QAEXPAVFontDataReader@2@@Z ENDP ; touchgfx::FontCache::setReader
_TEXT	ENDS
; Function compile flags: /Odtp /RTCsu /ZI
;	COMDAT ??0FontCache@touchgfx@@QAE@XZ
_TEXT	SEGMENT
_this$ = -8						; size = 4
??0FontCache@touchgfx@@QAE@XZ PROC			; touchgfx::FontCache::FontCache, COMDAT
; _this$ = ecx
; File C:\TouchGFXProjects\Dashboard\TouchGFX\generated\fonts\src\FontCache.cpp
; Line 14
	push	ebp
	mov	ebp, esp
	sub	esp, 204				; 000000ccH
	push	ebx
	push	esi
	push	edi
	push	ecx
	lea	edi, DWORD PTR [ebp-204]
	mov	ecx, 51					; 00000033H
	mov	eax, -858993460				; ccccccccH
	rep stosd
	pop	ecx
	mov	DWORD PTR _this$[ebp], ecx
	mov	ecx, OFFSET __AEB314D6_FontCache@cpp
	call	@__CheckForDebuggerJustMyCode@4
; Line 13
	mov	eax, DWORD PTR _this$[ebp]
	mov	DWORD PTR [eax+48], 0
	mov	eax, DWORD PTR _this$[ebp]
	mov	DWORD PTR [eax+52], 0
	mov	eax, DWORD PTR _this$[ebp]
	mov	DWORD PTR [eax+56], 0
	mov	eax, DWORD PTR _this$[ebp]
	mov	DWORD PTR [eax+60], 0
; Line 15
	mov	eax, DWORD PTR _this$[ebp]
	pop	edi
	pop	esi
	pop	ebx
	add	esp, 204				; 000000ccH
	cmp	ebp, esp
	call	__RTC_CheckEsp
	mov	esp, ebp
	pop	ebp
	ret	0
??0FontCache@touchgfx@@QAE@XZ ENDP			; touchgfx::FontCache::FontCache
_TEXT	ENDS
; Function compile flags: /Odtp /RTCsu /ZI
;	COMDAT ?assertValid@TypedText@touchgfx@@ABEXXZ
_TEXT	SEGMENT
_this$ = -8						; size = 4
?assertValid@TypedText@touchgfx@@ABEXXZ PROC		; touchgfx::TypedText::assertValid, COMDAT
; _this$ = ecx
; File C:\TouchGFXProjects\Dashboard\Middlewares\ST\TouchGFX\touchgfx\framework\include\touchgfx\TypedText.hpp
; Line 221
	push	ebp
	mov	ebp, esp
	sub	esp, 204				; 000000ccH
	push	ebx
	push	esi
	push	edi
	push	ecx
	lea	edi, DWORD PTR [ebp-204]
	mov	ecx, 51					; 00000033H
	mov	eax, -858993460				; ccccccccH
	rep stosd
	pop	ecx
	mov	DWORD PTR _this$[ebp], ecx
	mov	ecx, OFFSET __FB4ADB3D_TypedText@hpp
	call	@__CheckForDebuggerJustMyCode@4
; Line 222
	cmp	DWORD PTR ?typedTexts@TypedText@touchgfx@@0PBUTypedTextData@12@B, 0 ; touchgfx::TypedText::typedTexts
	je	SHORT $LN3@assertVali
	mov	eax, OFFSET ??_C@_0CN@OFCNDKEN@TypedText?5database?5has?5not?5been@
	test	eax, eax
	jne	SHORT $LN4@assertVali
$LN3@assertVali:
	mov	esi, esp
	push	222					; 000000deH
	push	OFFSET ??_C@_1NA@LFFADKGC@?$AAC?$AA?3?$AA?2?$AAT?$AAo?$AAu?$AAc?$AAh?$AAG?$AAF?$AAX?$AAP?$AAr?$AAo?$AAj@
	push	OFFSET ??_C@_1IE@NPIIMJBA@?$AAt?$AAy?$AAp?$AAe?$AAd?$AAT?$AAe?$AAx?$AAt?$AAs?$AA?5?$AA?$CB?$AA?$DN?$AA?5?$AA0@
	call	DWORD PTR __imp___wassert
	add	esp, 12					; 0000000cH
	cmp	esi, esp
	call	__RTC_CheckEsp
$LN4@assertVali:
; Line 223
	mov	eax, DWORD PTR _this$[ebp]
	movzx	ecx, WORD PTR [eax]
	movzx	edx, WORD PTR ?numberOfTypedTexts@TypedText@touchgfx@@0GA ; touchgfx::TypedText::numberOfTypedTexts
	cmp	ecx, edx
	jge	SHORT $LN5@assertVali
	mov	eax, OFFSET ??_C@_0CM@IOAPKHHD@typedTextId?5larger?5than?5numberO@
	test	eax, eax
	jne	SHORT $LN1@assertVali
$LN5@assertVali:
	mov	esi, esp
	push	223					; 000000dfH
	push	OFFSET ??_C@_1NA@LFFADKGC@?$AAC?$AA?3?$AA?2?$AAT?$AAo?$AAu?$AAc?$AAh?$AAG?$AAF?$AAX?$AAP?$AAr?$AAo?$AAj@
	push	OFFSET ??_C@_1KE@IMIJNMJM@?$AAt?$AAy?$AAp?$AAe?$AAd?$AAT?$AAe?$AAx?$AAt?$AAI?$AAd?$AA?5?$AA?$DM?$AA?5?$AAn@
	call	DWORD PTR __imp___wassert
	add	esp, 12					; 0000000cH
	cmp	esi, esp
	call	__RTC_CheckEsp
$LN1@assertVali:
; Line 224
	pop	edi
	pop	esi
	pop	ebx
	add	esp, 204				; 000000ccH
	cmp	ebp, esp
	call	__RTC_CheckEsp
	mov	esp, ebp
	pop	ebp
	ret	0
?assertValid@TypedText@touchgfx@@ABEXXZ ENDP		; touchgfx::TypedText::assertValid
_TEXT	ENDS
; Function compile flags: /Odtp /RTCsu /ZI
;	COMDAT ?getFontId@TypedText@touchgfx@@QBEGXZ
_TEXT	SEGMENT
_this$ = -8						; size = 4
?getFontId@TypedText@touchgfx@@QBEGXZ PROC		; touchgfx::TypedText::getFontId, COMDAT
; _this$ = ecx
; File C:\TouchGFXProjects\Dashboard\Middlewares\ST\TouchGFX\touchgfx\framework\include\touchgfx\TypedText.hpp
; Line 151
	push	ebp
	mov	ebp, esp
	sub	esp, 204				; 000000ccH
	push	ebx
	push	esi
	push	edi
	push	ecx
	lea	edi, DWORD PTR [ebp-204]
	mov	ecx, 51					; 00000033H
	mov	eax, -858993460				; ccccccccH
	rep stosd
	pop	ecx
	mov	DWORD PTR _this$[ebp], ecx
	mov	ecx, OFFSET __FB4ADB3D_TypedText@hpp
	call	@__CheckForDebuggerJustMyCode@4
; Line 152
	mov	ecx, DWORD PTR _this$[ebp]
	call	?assertValid@TypedText@touchgfx@@ABEXXZ	; touchgfx::TypedText::assertValid
; Line 153
	mov	eax, DWORD PTR _this$[ebp]
	movzx	ecx, WORD PTR [eax]
	mov	edx, DWORD PTR ?typedTexts@TypedText@touchgfx@@0PBUTypedTextData@12@B ; touchgfx::TypedText::typedTexts
	movzx	ax, BYTE PTR [edx+ecx*2]
; Line 154
	pop	edi
	pop	esi
	pop	ebx
	add	esp, 204				; 000000ccH
	cmp	ebp, esp
	call	__RTC_CheckEsp
	mov	esp, ebp
	pop	ebp
	ret	0
?getFontId@TypedText@touchgfx@@QBEGXZ ENDP		; touchgfx::TypedText::getFontId
_TEXT	ENDS
; Function compile flags: /Odtp /RTCsu /ZI
;	COMDAT ?getFont@TypedText@touchgfx@@QBEPBVFont@2@XZ
_TEXT	SEGMENT
_this$ = -8						; size = 4
?getFont@TypedText@touchgfx@@QBEPBVFont@2@XZ PROC	; touchgfx::TypedText::getFont, COMDAT
; _this$ = ecx
; File C:\TouchGFXProjects\Dashboard\Middlewares\ST\TouchGFX\touchgfx\framework\include\touchgfx\TypedText.hpp
; Line 136
	push	ebp
	mov	ebp, esp
	sub	esp, 204				; 000000ccH
	push	ebx
	push	esi
	push	edi
	push	ecx
	lea	edi, DWORD PTR [ebp-204]
	mov	ecx, 51					; 00000033H
	mov	eax, -858993460				; ccccccccH
	rep stosd
	pop	ecx
	mov	DWORD PTR _this$[ebp], ecx
	mov	ecx, OFFSET __FB4ADB3D_TypedText@hpp
	call	@__CheckForDebuggerJustMyCode@4
; Line 137
	mov	ecx, DWORD PTR _this$[ebp]
	call	?assertValid@TypedText@touchgfx@@ABEXXZ	; touchgfx::TypedText::assertValid
; Line 138
	mov	eax, DWORD PTR _this$[ebp]
	movzx	ecx, WORD PTR [eax]
	mov	edx, DWORD PTR ?typedTexts@TypedText@touchgfx@@0PBUTypedTextData@12@B ; touchgfx::TypedText::typedTexts
	movzx	eax, BYTE PTR [edx+ecx*2]
	mov	ecx, DWORD PTR ?fonts@TypedText@touchgfx@@0PBQBVFont@2@B ; touchgfx::TypedText::fonts
	mov	eax, DWORD PTR [ecx+eax*4]
; Line 139
	pop	edi
	pop	esi
	pop	ebx
	add	esp, 204				; 000000ccH
	cmp	ebp, esp
	call	__RTC_CheckEsp
	mov	esp, ebp
	pop	ebp
	ret	0
?getFont@TypedText@touchgfx@@QBEPBVFont@2@XZ ENDP	; touchgfx::TypedText::getFont
_TEXT	ENDS
; Function compile flags: /Odtp /RTCsu /ZI
;	COMDAT ??_GFont@touchgfx@@UAEPAXI@Z
_TEXT	SEGMENT
_this$ = -8						; size = 4
___flags$ = 8						; size = 4
??_GFont@touchgfx@@UAEPAXI@Z PROC			; touchgfx::Font::`scalar deleting destructor', COMDAT
; _this$ = ecx
	push	ebp
	mov	ebp, esp
	sub	esp, 204				; 000000ccH
	push	ebx
	push	esi
	push	edi
	push	ecx
	lea	edi, DWORD PTR [ebp-204]
	mov	ecx, 51					; 00000033H
	mov	eax, -858993460				; ccccccccH
	rep stosd
	pop	ecx
	mov	DWORD PTR _this$[ebp], ecx
	mov	ecx, DWORD PTR _this$[ebp]
	call	??1Font@touchgfx@@UAE@XZ		; touchgfx::Font::~Font
	mov	eax, DWORD PTR ___flags$[ebp]
	and	eax, 1
	je	SHORT $LN2@scalar
	push	16					; 00000010H
	mov	eax, DWORD PTR _this$[ebp]
	push	eax
	call	??3@YAXPAXI@Z				; operator delete
	add	esp, 8
$LN2@scalar:
	mov	eax, DWORD PTR _this$[ebp]
	pop	edi
	pop	esi
	pop	ebx
	add	esp, 204				; 000000ccH
	cmp	ebp, esp
	call	__RTC_CheckEsp
	mov	esp, ebp
	pop	ebp
	ret	4
??_GFont@touchgfx@@UAEPAXI@Z ENDP			; touchgfx::Font::`scalar deleting destructor'
_TEXT	ENDS
; Function compile flags: /Odtp /RTCsu /ZI
;	COMDAT ??4Font@touchgfx@@QAEAAV01@ABV01@@Z
_TEXT	SEGMENT
_this$ = -8						; size = 4
___that$ = 8						; size = 4
??4Font@touchgfx@@QAEAAV01@ABV01@@Z PROC		; touchgfx::Font::operator=, COMDAT
; _this$ = ecx
	push	ebp
	mov	ebp, esp
	sub	esp, 204				; 000000ccH
	push	ebx
	push	esi
	push	edi
	push	ecx
	lea	edi, DWORD PTR [ebp-204]
	mov	ecx, 51					; 00000033H
	mov	eax, -858993460				; ccccccccH
	rep stosd
	pop	ecx
	mov	DWORD PTR _this$[ebp], ecx
	mov	eax, DWORD PTR _this$[ebp]
	mov	ecx, DWORD PTR ___that$[ebp]
	mov	dx, WORD PTR [ecx+4]
	mov	WORD PTR [eax+4], dx
	mov	eax, DWORD PTR _this$[ebp]
	mov	ecx, DWORD PTR ___that$[ebp]
	mov	dl, BYTE PTR [ecx+6]
	mov	BYTE PTR [eax+6], dl
	mov	eax, DWORD PTR ___that$[ebp]
	mov	cl, BYTE PTR [eax+7]
	and	cl, 127					; 0000007fH
	and	cl, 127					; 0000007fH
	mov	edx, DWORD PTR _this$[ebp]
	mov	al, BYTE PTR [edx+7]
	and	al, 128					; 00000080H
	or	al, cl
	mov	ecx, DWORD PTR _this$[ebp]
	mov	BYTE PTR [ecx+7], al
	mov	eax, DWORD PTR ___that$[ebp]
	mov	cl, BYTE PTR [eax+7]
	shr	cl, 7
	and	cl, 1
	and	cl, 1
	shl	cl, 7
	mov	edx, DWORD PTR _this$[ebp]
	mov	al, BYTE PTR [edx+7]
	and	al, 127					; 0000007fH
	or	al, cl
	mov	ecx, DWORD PTR _this$[ebp]
	mov	BYTE PTR [ecx+7], al
	mov	eax, DWORD PTR _this$[ebp]
	mov	ecx, DWORD PTR ___that$[ebp]
	mov	dl, BYTE PTR [ecx+8]
	mov	BYTE PTR [eax+8], dl
	mov	eax, DWORD PTR _this$[ebp]
	mov	ecx, DWORD PTR ___that$[ebp]
	mov	dl, BYTE PTR [ecx+9]
	mov	BYTE PTR [eax+9], dl
	mov	eax, DWORD PTR _this$[ebp]
	mov	ecx, DWORD PTR ___that$[ebp]
	mov	dx, WORD PTR [ecx+10]
	mov	WORD PTR [eax+10], dx
	mov	eax, DWORD PTR _this$[ebp]
	mov	ecx, DWORD PTR ___that$[ebp]
	mov	dx, WORD PTR [ecx+12]
	mov	WORD PTR [eax+12], dx
	mov	eax, DWORD PTR _this$[ebp]
	pop	edi
	pop	esi
	pop	ebx
	mov	esp, ebp
	pop	ebp
	ret	4
??4Font@touchgfx@@QAEAAV01@ABV01@@Z ENDP		; touchgfx::Font::operator=
_TEXT	ENDS
; Function compile flags: /Odtp /RTCsu /ZI
;	COMDAT ?getGSUBTable@Font@touchgfx@@UBEPBGXZ
_TEXT	SEGMENT
_this$ = -8						; size = 4
?getGSUBTable@Font@touchgfx@@UBEPBGXZ PROC		; touchgfx::Font::getGSUBTable, COMDAT
; _this$ = ecx
; File C:\TouchGFXProjects\Dashboard\Middlewares\ST\TouchGFX\touchgfx\framework\include\touchgfx\Font.hpp
; Line 495
	push	ebp
	mov	ebp, esp
	sub	esp, 204				; 000000ccH
	push	ebx
	push	esi
	push	edi
	push	ecx
	lea	edi, DWORD PTR [ebp-204]
	mov	ecx, 51					; 00000033H
	mov	eax, -858993460				; ccccccccH
	rep stosd
	pop	ecx
	mov	DWORD PTR _this$[ebp], ecx
	mov	ecx, OFFSET __3A8A7BA5_Font@hpp
	call	@__CheckForDebuggerJustMyCode@4
; Line 496
	xor	eax, eax
; Line 497
	pop	edi
	pop	esi
	pop	ebx
	add	esp, 204				; 000000ccH
	cmp	ebp, esp
	call	__RTC_CheckEsp
	mov	esp, ebp
	pop	ebp
	ret	0
?getGSUBTable@Font@touchgfx@@UBEPBGXZ ENDP		; touchgfx::Font::getGSUBTable
_TEXT	ENDS
; Function compile flags: /Odtp /RTCsu /ZI
;	COMDAT ?getKerning@Font@touchgfx@@UBECGPBUGlyphNode@2@@Z
_TEXT	SEGMENT
_this$ = -8						; size = 4
_prevChar$ = 8						; size = 2
_glyph$ = 12						; size = 4
?getKerning@Font@touchgfx@@UBECGPBUGlyphNode@2@@Z PROC	; touchgfx::Font::getKerning, COMDAT
; _this$ = ecx
; File C:\TouchGFXProjects\Dashboard\Middlewares\ST\TouchGFX\touchgfx\framework\include\touchgfx\Font.hpp
; Line 467
	push	ebp
	mov	ebp, esp
	sub	esp, 204				; 000000ccH
	push	ebx
	push	esi
	push	edi
	push	ecx
	lea	edi, DWORD PTR [ebp-204]
	mov	ecx, 51					; 00000033H
	mov	eax, -858993460				; ccccccccH
	rep stosd
	pop	ecx
	mov	DWORD PTR _this$[ebp], ecx
	mov	ecx, OFFSET __3A8A7BA5_Font@hpp
	call	@__CheckForDebuggerJustMyCode@4
; Line 468
	xor	al, al
; Line 469
	pop	edi
	pop	esi
	pop	ebx
	add	esp, 204				; 000000ccH
	cmp	ebp, esp
	call	__RTC_CheckEsp
	mov	esp, ebp
	pop	ebp
	ret	8
?getKerning@Font@touchgfx@@UBECGPBUGlyphNode@2@@Z ENDP	; touchgfx::Font::getKerning
_TEXT	ENDS
; Function compile flags: /Odtp /RTCsu /ZI
;	COMDAT ?getDataFormatA4@Font@touchgfx@@UBEEXZ
_TEXT	SEGMENT
_this$ = -8						; size = 4
?getDataFormatA4@Font@touchgfx@@UBEEXZ PROC		; touchgfx::Font::getDataFormatA4, COMDAT
; _this$ = ecx
; File C:\TouchGFXProjects\Dashboard\Middlewares\ST\TouchGFX\touchgfx\framework\include\touchgfx\Font.hpp
; Line 418
	push	ebp
	mov	ebp, esp
	sub	esp, 204				; 000000ccH
	push	ebx
	push	esi
	push	edi
	push	ecx
	lea	edi, DWORD PTR [ebp-204]
	mov	ecx, 51					; 00000033H
	mov	eax, -858993460				; ccccccccH
	rep stosd
	pop	ecx
	mov	DWORD PTR _this$[ebp], ecx
	mov	ecx, OFFSET __3A8A7BA5_Font@hpp
	call	@__CheckForDebuggerJustMyCode@4
; Line 419
	mov	eax, DWORD PTR _this$[ebp]
	mov	al, BYTE PTR [eax+7]
	shr	al, 7
	and	al, 1
; Line 420
	pop	edi
	pop	esi
	pop	ebx
	add	esp, 204				; 000000ccH
	cmp	ebp, esp
	call	__RTC_CheckEsp
	mov	esp, ebp
	pop	ebp
	ret	0
?getDataFormatA4@Font@touchgfx@@UBEEXZ ENDP		; touchgfx::Font::getDataFormatA4
_TEXT	ENDS
; Function compile flags: /Odtp /RTCsu /ZI
;	COMDAT ?getBitsPerPixel@Font@touchgfx@@UBEEXZ
_TEXT	SEGMENT
_this$ = -8						; size = 4
?getBitsPerPixel@Font@touchgfx@@UBEEXZ PROC		; touchgfx::Font::getBitsPerPixel, COMDAT
; _this$ = ecx
; File C:\TouchGFXProjects\Dashboard\Middlewares\ST\TouchGFX\touchgfx\framework\include\touchgfx\Font.hpp
; Line 404
	push	ebp
	mov	ebp, esp
	sub	esp, 204				; 000000ccH
	push	ebx
	push	esi
	push	edi
	push	ecx
	lea	edi, DWORD PTR [ebp-204]
	mov	ecx, 51					; 00000033H
	mov	eax, -858993460				; ccccccccH
	rep stosd
	pop	ecx
	mov	DWORD PTR _this$[ebp], ecx
	mov	ecx, OFFSET __3A8A7BA5_Font@hpp
	call	@__CheckForDebuggerJustMyCode@4
; Line 405
	mov	eax, DWORD PTR _this$[ebp]
	mov	al, BYTE PTR [eax+7]
	and	al, 127					; 0000007fH
; Line 406
	pop	edi
	pop	esi
	pop	ebx
	add	esp, 204				; 000000ccH
	cmp	ebp, esp
	call	__RTC_CheckEsp
	mov	esp, ebp
	pop	ebp
	ret	0
?getBitsPerPixel@Font@touchgfx@@UBEEXZ ENDP		; touchgfx::Font::getBitsPerPixel
_TEXT	ENDS
; Function compile flags: /Odtp /RTCsu /ZI
;	COMDAT ?getMinimumTextHeight@Font@touchgfx@@UBEGXZ
_TEXT	SEGMENT
_this$ = -8						; size = 4
?getMinimumTextHeight@Font@touchgfx@@UBEGXZ PROC	; touchgfx::Font::getMinimumTextHeight, COMDAT
; _this$ = ecx
; File C:\TouchGFXProjects\Dashboard\Middlewares\ST\TouchGFX\touchgfx\framework\include\touchgfx\Font.hpp
; Line 390
	push	ebp
	mov	ebp, esp
	sub	esp, 204				; 000000ccH
	push	ebx
	push	esi
	push	edi
	push	ecx
	lea	edi, DWORD PTR [ebp-204]
	mov	ecx, 51					; 00000033H
	mov	eax, -858993460				; ccccccccH
	rep stosd
	pop	ecx
	mov	DWORD PTR _this$[ebp], ecx
	mov	ecx, OFFSET __3A8A7BA5_Font@hpp
	call	@__CheckForDebuggerJustMyCode@4
; Line 391
	mov	eax, DWORD PTR _this$[ebp]
	movzx	eax, WORD PTR [eax+4]
	mov	ecx, DWORD PTR _this$[ebp]
	movzx	edx, BYTE PTR [ecx+6]
	add	eax, edx
; Line 392
	pop	edi
	pop	esi
	pop	ebx
	add	esp, 204				; 000000ccH
	cmp	ebp, esp
	call	__RTC_CheckEsp
	mov	esp, ebp
	pop	ebp
	ret	0
?getMinimumTextHeight@Font@touchgfx@@UBEGXZ ENDP	; touchgfx::Font::getMinimumTextHeight
_TEXT	ENDS
; Function compile flags: /Odtp /RTCsu /ZI
;	COMDAT ?getFontHeight@Font@touchgfx@@UBEGXZ
_TEXT	SEGMENT
_this$ = -8						; size = 4
?getFontHeight@Font@touchgfx@@UBEGXZ PROC		; touchgfx::Font::getFontHeight, COMDAT
; _this$ = ecx
; File C:\TouchGFXProjects\Dashboard\Middlewares\ST\TouchGFX\touchgfx\framework\include\touchgfx\Font.hpp
; Line 374
	push	ebp
	mov	ebp, esp
	sub	esp, 204				; 000000ccH
	push	ebx
	push	esi
	push	edi
	push	ecx
	lea	edi, DWORD PTR [ebp-204]
	mov	ecx, 51					; 00000033H
	mov	eax, -858993460				; ccccccccH
	rep stosd
	pop	ecx
	mov	DWORD PTR _this$[ebp], ecx
	mov	ecx, OFFSET __3A8A7BA5_Font@hpp
	call	@__CheckForDebuggerJustMyCode@4
; Line 375
	mov	eax, DWORD PTR _this$[ebp]
	mov	ax, WORD PTR [eax+4]
; Line 376
	pop	edi
	pop	esi
	pop	ebx
	add	esp, 204				; 000000ccH
	cmp	ebp, esp
	call	__RTC_CheckEsp
	mov	esp, ebp
	pop	ebp
	ret	0
?getFontHeight@Font@touchgfx@@UBEGXZ ENDP		; touchgfx::Font::getFontHeight
_TEXT	ENDS
; Function compile flags: /Odtp /RTCsu /ZI
;	COMDAT ?getEllipsisChar@Font@touchgfx@@UBEGXZ
_TEXT	SEGMENT
_this$ = -8						; size = 4
?getEllipsisChar@Font@touchgfx@@UBEGXZ PROC		; touchgfx::Font::getEllipsisChar, COMDAT
; _this$ = ecx
; File C:\TouchGFXProjects\Dashboard\Middlewares\ST\TouchGFX\touchgfx\framework\include\touchgfx\Font.hpp
; Line 265
	push	ebp
	mov	ebp, esp
	sub	esp, 204				; 000000ccH
	push	ebx
	push	esi
	push	edi
	push	ecx
	lea	edi, DWORD PTR [ebp-204]
	mov	ecx, 51					; 00000033H
	mov	eax, -858993460				; ccccccccH
	rep stosd
	pop	ecx
	mov	DWORD PTR _this$[ebp], ecx
	mov	ecx, OFFSET __3A8A7BA5_Font@hpp
	call	@__CheckForDebuggerJustMyCode@4
; Line 266
	mov	eax, DWORD PTR _this$[ebp]
	mov	ax, WORD PTR [eax+12]
; Line 267
	pop	edi
	pop	esi
	pop	ebx
	add	esp, 204				; 000000ccH
	cmp	ebp, esp
	call	__RTC_CheckEsp
	mov	esp, ebp
	pop	ebp
	ret	0
?getEllipsisChar@Font@touchgfx@@UBEGXZ ENDP		; touchgfx::Font::getEllipsisChar
_TEXT	ENDS
; Function compile flags: /Odtp /RTCsu /ZI
;	COMDAT ?getFallbackChar@Font@touchgfx@@UBEGXZ
_TEXT	SEGMENT
_this$ = -8						; size = 4
?getFallbackChar@Font@touchgfx@@UBEGXZ PROC		; touchgfx::Font::getFallbackChar, COMDAT
; _this$ = ecx
; File C:\TouchGFXProjects\Dashboard\Middlewares\ST\TouchGFX\touchgfx\framework\include\touchgfx\Font.hpp
; Line 250
	push	ebp
	mov	ebp, esp
	sub	esp, 204				; 000000ccH
	push	ebx
	push	esi
	push	edi
	push	ecx
	lea	edi, DWORD PTR [ebp-204]
	mov	ecx, 51					; 00000033H
	mov	eax, -858993460				; ccccccccH
	rep stosd
	pop	ecx
	mov	DWORD PTR _this$[ebp], ecx
	mov	ecx, OFFSET __3A8A7BA5_Font@hpp
	call	@__CheckForDebuggerJustMyCode@4
; Line 251
	mov	eax, DWORD PTR _this$[ebp]
	mov	ax, WORD PTR [eax+10]
; Line 252
	pop	edi
	pop	esi
	pop	ebx
	add	esp, 204				; 000000ccH
	cmp	ebp, esp
	call	__RTC_CheckEsp
	mov	esp, ebp
	pop	ebp
	ret	0
?getFallbackChar@Font@touchgfx@@UBEGXZ ENDP		; touchgfx::Font::getFallbackChar
_TEXT	ENDS
; Function compile flags: /Odtp /RTCsu /ZI
;	COMDAT ?getGlyph@Font@touchgfx@@UBEPBUGlyphNode@2@G@Z
_TEXT	SEGMENT
_glyph$ = -44						; size = 4
_bitsPerPixelDummy$ = -29				; size = 1
_dummyPixelDataPointer$ = -20				; size = 4
_this$ = -8						; size = 4
_unicode$ = 8						; size = 2
?getGlyph@Font@touchgfx@@UBEPBUGlyphNode@2@G@Z PROC	; touchgfx::Font::getGlyph, COMDAT
; _this$ = ecx
; File C:\TouchGFXProjects\Dashboard\Middlewares\ST\TouchGFX\touchgfx\framework\include\touchgfx\Font.hpp
; Line 231
	push	ebp
	mov	ebp, esp
	sub	esp, 240				; 000000f0H
	push	ebx
	push	esi
	push	edi
	push	ecx
	lea	edi, DWORD PTR [ebp-240]
	mov	ecx, 60					; 0000003cH
	mov	eax, -858993460				; ccccccccH
	rep stosd
	pop	ecx
	mov	DWORD PTR _this$[ebp], ecx
	mov	ecx, OFFSET __3A8A7BA5_Font@hpp
	call	@__CheckForDebuggerJustMyCode@4
; Line 232
	mov	DWORD PTR _dummyPixelDataPointer$[ebp], 0
; Line 233
	mov	BYTE PTR _bitsPerPixelDummy$[ebp], 0
; Line 234
	mov	esi, esp
	lea	eax, DWORD PTR _bitsPerPixelDummy$[ebp]
	push	eax
	lea	ecx, DWORD PTR _dummyPixelDataPointer$[ebp]
	push	ecx
	movzx	edx, WORD PTR _unicode$[ebp]
	push	edx
	mov	eax, DWORD PTR _this$[ebp]
	mov	edx, DWORD PTR [eax]
	mov	ecx, DWORD PTR _this$[ebp]
	mov	eax, DWORD PTR [edx+8]
	call	eax
	cmp	esi, esp
	call	__RTC_CheckEsp
	mov	DWORD PTR _glyph$[ebp], eax
; Line 235
	mov	eax, DWORD PTR _glyph$[ebp]
; Line 236
	push	edx
	mov	ecx, ebp
	push	eax
	lea	edx, DWORD PTR $LN6@getGlyph
	call	@_RTC_CheckStackVars@8
	pop	eax
	pop	edx
	pop	edi
	pop	esi
	pop	ebx
	add	esp, 240				; 000000f0H
	cmp	ebp, esp
	call	__RTC_CheckEsp
	mov	esp, ebp
	pop	ebp
	ret	4
$LN6@getGlyph:
	DD	2
	DD	$LN5@getGlyph
$LN5@getGlyph:
	DD	-20					; ffffffecH
	DD	4
	DD	$LN3@getGlyph
	DD	-29					; ffffffe3H
	DD	1
	DD	$LN4@getGlyph
$LN4@getGlyph:
	DB	98					; 00000062H
	DB	105					; 00000069H
	DB	116					; 00000074H
	DB	115					; 00000073H
	DB	80					; 00000050H
	DB	101					; 00000065H
	DB	114					; 00000072H
	DB	80					; 00000050H
	DB	105					; 00000069H
	DB	120					; 00000078H
	DB	101					; 00000065H
	DB	108					; 0000006cH
	DB	68					; 00000044H
	DB	117					; 00000075H
	DB	109					; 0000006dH
	DB	109					; 0000006dH
	DB	121					; 00000079H
	DB	0
$LN3@getGlyph:
	DB	100					; 00000064H
	DB	117					; 00000075H
	DB	109					; 0000006dH
	DB	109					; 0000006dH
	DB	121					; 00000079H
	DB	80					; 00000050H
	DB	105					; 00000069H
	DB	120					; 00000078H
	DB	101					; 00000065H
	DB	108					; 0000006cH
	DB	68					; 00000044H
	DB	97					; 00000061H
	DB	116					; 00000074H
	DB	97					; 00000061H
	DB	80					; 00000050H
	DB	111					; 0000006fH
	DB	105					; 00000069H
	DB	110					; 0000006eH
	DB	116					; 00000074H
	DB	101					; 00000065H
	DB	114					; 00000072H
	DB	0
?getGlyph@Font@touchgfx@@UBEPBUGlyphNode@2@G@Z ENDP	; touchgfx::Font::getGlyph
_TEXT	ENDS
; Function compile flags: /Odtp /RTCsu /ZI
;	COMDAT ??1Font@touchgfx@@UAE@XZ
_TEXT	SEGMENT
_this$ = -20						; size = 4
__$EHRec$ = -12						; size = 12
??1Font@touchgfx@@UAE@XZ PROC				; touchgfx::Font::~Font, COMDAT
; _this$ = ecx
; File C:\TouchGFXProjects\Dashboard\Middlewares\ST\TouchGFX\touchgfx\framework\include\touchgfx\Font.hpp
; Line 193
	push	ebp
	mov	ebp, esp
	push	-1
	push	__ehhandler$??1Font@touchgfx@@UAE@XZ
	mov	eax, DWORD PTR fs:0
	push	eax
	sub	esp, 204				; 000000ccH
	push	ebx
	push	esi
	push	edi
	push	ecx
	lea	edi, DWORD PTR [ebp-216]
	mov	ecx, 51					; 00000033H
	mov	eax, -858993460				; ccccccccH
	rep stosd
	pop	ecx
	mov	eax, DWORD PTR ___security_cookie
	xor	eax, ebp
	push	eax
	lea	eax, DWORD PTR __$EHRec$[ebp]
	mov	DWORD PTR fs:0, eax
	mov	DWORD PTR _this$[ebp], ecx
	mov	ecx, OFFSET __3A8A7BA5_Font@hpp
	call	@__CheckForDebuggerJustMyCode@4
	mov	eax, DWORD PTR _this$[ebp]
	mov	DWORD PTR [eax], OFFSET ??_7Font@touchgfx@@6B@
	mov	ecx, DWORD PTR __$EHRec$[ebp]
	mov	DWORD PTR fs:0, ecx
	pop	ecx
	pop	edi
	pop	esi
	pop	ebx
	add	esp, 216				; 000000d8H
	cmp	ebp, esp
	call	__RTC_CheckEsp
	mov	esp, ebp
	pop	ebp
	ret	0
_TEXT	ENDS
;	COMDAT text$x
text$x	SEGMENT
__ehhandler$??1Font@touchgfx@@UAE@XZ:
	mov	edx, DWORD PTR [esp+8]
	lea	eax, DWORD PTR [edx+12]
	mov	ecx, DWORD PTR [edx-220]
	xor	ecx, eax
	call	@__security_check_cookie@4
	mov	eax, OFFSET __ehfuncinfo$??1Font@touchgfx@@UAE@XZ
	jmp	___CxxFrameHandler3
text$x	ENDS
??1Font@touchgfx@@UAE@XZ ENDP				; touchgfx::Font::~Font
; Function compile flags: /Odtp /RTCsu /ZI
;	COMDAT ?height@GlyphNode@touchgfx@@QBEGXZ
_TEXT	SEGMENT
tv68 = -208						; size = 4
_this$ = -8						; size = 4
?height@GlyphNode@touchgfx@@QBEGXZ PROC			; touchgfx::GlyphNode::height, COMDAT
; _this$ = ecx
; File C:\TouchGFXProjects\Dashboard\Middlewares\ST\TouchGFX\touchgfx\framework\include\touchgfx\Font.hpp
; Line 101
	push	ebp
	mov	ebp, esp
	sub	esp, 208				; 000000d0H
	push	ebx
	push	esi
	push	edi
	push	ecx
	lea	edi, DWORD PTR [ebp-208]
	mov	ecx, 52					; 00000034H
	mov	eax, -858993460				; ccccccccH
	rep stosd
	pop	ecx
	mov	DWORD PTR _this$[ebp], ecx
	mov	ecx, OFFSET __3A8A7BA5_Font@hpp
	call	@__CheckForDebuggerJustMyCode@4
; Line 102
	mov	eax, DWORD PTR _this$[ebp]
	movzx	ecx, BYTE PTR [eax+13]
	and	ecx, 16					; 00000010H
	je	SHORT $LN3@height
	mov	DWORD PTR tv68[ebp], 256		; 00000100H
	jmp	SHORT $LN4@height
$LN3@height:
	mov	DWORD PTR tv68[ebp], 0
$LN4@height:
	mov	edx, DWORD PTR _this$[ebp]
	movzx	eax, BYTE PTR [edx+7]
	or	eax, DWORD PTR tv68[ebp]
; Line 103
	pop	edi
	pop	esi
	pop	ebx
	add	esp, 208				; 000000d0H
	cmp	ebp, esp
	call	__RTC_CheckEsp
	mov	esp, ebp
	pop	ebp
	ret	0
?height@GlyphNode@touchgfx@@QBEGXZ ENDP			; touchgfx::GlyphNode::height
_TEXT	ENDS
; Function compile flags: /Odtp /RTCsu /ZI
;	COMDAT ?width@GlyphNode@touchgfx@@QBEGXZ
_TEXT	SEGMENT
tv68 = -208						; size = 4
_this$ = -8						; size = 4
?width@GlyphNode@touchgfx@@QBEGXZ PROC			; touchgfx::GlyphNode::width, COMDAT
; _this$ = ecx
; File C:\TouchGFXProjects\Dashboard\Middlewares\ST\TouchGFX\touchgfx\framework\include\touchgfx\Font.hpp
; Line 87
	push	ebp
	mov	ebp, esp
	sub	esp, 208				; 000000d0H
	push	ebx
	push	esi
	push	edi
	push	ecx
	lea	edi, DWORD PTR [ebp-208]
	mov	ecx, 52					; 00000034H
	mov	eax, -858993460				; ccccccccH
	rep stosd
	pop	ecx
	mov	DWORD PTR _this$[ebp], ecx
	mov	ecx, OFFSET __3A8A7BA5_Font@hpp
	call	@__CheckForDebuggerJustMyCode@4
; Line 88
	mov	eax, DWORD PTR _this$[ebp]
	movzx	ecx, BYTE PTR [eax+13]
	and	ecx, 8
	je	SHORT $LN3@width
	mov	DWORD PTR tv68[ebp], 256		; 00000100H
	jmp	SHORT $LN4@width
$LN3@width:
	mov	DWORD PTR tv68[ebp], 0
$LN4@width:
	mov	edx, DWORD PTR _this$[ebp]
	movzx	eax, BYTE PTR [edx+6]
	or	eax, DWORD PTR tv68[ebp]
; Line 89
	pop	edi
	pop	esi
	pop	ebx
	add	esp, 208				; 000000d0H
	cmp	ebp, esp
	call	__RTC_CheckEsp
	mov	esp, ebp
	pop	ebp
	ret	0
?width@GlyphNode@touchgfx@@QBEGXZ ENDP			; touchgfx::GlyphNode::width
_TEXT	ENDS
END
