; Listing generated by Microsoft (R) Optimizing Compiler Version 19.22.27905.0 

	TITLE	C:\TouchGFXProjects\Dashboard\TouchGFX\generated\fonts\src\Font_digifit_20_4bpp_0.cpp
	.686P
	.XMM
	include listing.inc
	.model	flat

INCLUDELIB MSVCRTD
INCLUDELIB OLDNAMES

PUBLIC	?unicodes_digifit_20_4bpp_0@@3QBEB		; unicodes_digifit_20_4bpp_0
msvcjmc	SEGMENT
__285B227C_Types@hpp DB 01H
msvcjmc	ENDS
CONST	SEGMENT
?unicodes_digifit_20_4bpp_0@@3QBEB DB 060H		; unicodes_digifit_20_4bpp_0
	DB	0feH
	DB	0ffH
	DB	0ffH
	DB	0ffH
	DB	0ffH
	DB	0ffH
	DB	09H
	DB	0e0H
	DB	0ffH
	DB	0ffH
	DB	0ffH
	DB	0ffH
	DB	0ffH
	DB	0ffH
	DB	03fH
	DB	0f1H
	DB	0ffH
	DB	0ffH
	DB	0ffH
	DB	0ffH
	DB	0ffH
	DB	0ffH
	DB	04fH
	DB	0f1H
	DB	0ffH
	DB	0ffH
	DB	0ffH
	DB	0ffH
	DB	0ffH
	DB	0ffH
	DB	04fH
	DB	0f1H
	DB	0ffH
	DB	0ffH
	DB	0ffH
	DB	0ffH
	DB	0ffH
	DB	0ffH
	DB	04fH
	DB	0f1H
	DB	0ffH
	DB	0ffH
	DB	0ffH
	DB	0ffH
	DB	0ffH
	DB	0ffH
	DB	04fH
	DB	0f1H
	DB	0ffH
	DB	0ffH
	DB	0ffH
	DB	0ffH
	DB	0ffH
	DB	0ffH
	DB	04fH
	DB	0f1H
	DB	0ffH
	DB	0ffH
	DB	0deH
	DB	0edH
	DB	0ffH
	DB	0ffH
	DB	04fH
	DB	0f1H
	DB	0ffH
	DB	05fH
	DB	00H
	DB	00H
	DB	0a0H
	DB	0ffH
	DB	04fH
	DB	0f1H
	DB	0ffH
	DB	0fH
	DB	00H
	DB	00H
	DB	050H
	DB	0ffH
	DB	04fH
	DB	0f1H
	DB	0ffH
	DB	0eH
	DB	00H
	DB	00H
	DB	040H
	DB	0ffH
	DB	04fH
	DB	0f1H
	DB	0ffH
	DB	0fH
	DB	00H
	DB	00H
	DB	050H
	DB	0ffH
	DB	04fH
	DB	0f1H
	DB	0ffH
	DB	04fH
	DB	00H
	DB	00H
	DB	0a0H
	DB	0ffH
	DB	04fH
	DB	0f1H
	DB	0ffH
	DB	0ffH
	DB	0deH
	DB	0ddH
	DB	0feH
	DB	0ffH
	DB	04fH
	DB	0f1H
	DB	0ffH
	DB	0ffH
	DB	0ffH
	DB	0ffH
	DB	0ffH
	DB	0ffH
	DB	04fH
	DB	0f1H
	DB	0ffH
	DB	0ffH
	DB	0ffH
	DB	0ffH
	DB	0ffH
	DB	0ffH
	DB	04fH
	DB	0f1H
	DB	0ffH
	DB	0ffH
	DB	0ffH
	DB	0ffH
	DB	0ffH
	DB	0ffH
	DB	04fH
	DB	0f1H
	DB	0ffH
	DB	0ffH
	DB	0ffH
	DB	0ffH
	DB	0ffH
	DB	0ffH
	DB	04fH
	DB	0f1H
	DB	0ffH
	DB	0ffH
	DB	0ffH
	DB	0ffH
	DB	0ffH
	DB	0ffH
	DB	04fH
	DB	0e0H
	DB	0ffH
	DB	0ffH
	DB	0ffH
	DB	0ffH
	DB	0ffH
	DB	0ffH
	DB	02fH
	DB	050H
	DB	0feH
	DB	0ffH
	DB	0ffH
	DB	0ffH
	DB	0ffH
	DB	0efH
	DB	07H
	DB	00H
	DB	010H
	DB	0ebH
	DB	09H
	DB	00H
	DB	090H
	DB	0ffH
	DB	05fH
	DB	00H
	DB	0b0H
	DB	0ffH
	DB	07fH
	DB	00H
	DB	0b0H
	DB	0ffH
	DB	07fH
	DB	00H
	DB	0b0H
	DB	0ffH
	DB	07fH
	DB	00H
	DB	0b0H
	DB	0ffH
	DB	07fH
	DB	00H
	DB	0b0H
	DB	0ffH
	DB	07fH
	DB	0a3H
	DB	0ecH
	DB	0ffH
	DB	07fH
	DB	0fcH
	DB	0ffH
	DB	0ffH
	DB	07fH
	DB	0feH
	DB	0ffH
	DB	0ffH
	DB	07fH
	DB	0feH
	DB	0ffH
	DB	0ffH
	DB	07fH
	DB	0feH
	DB	0ffH
	DB	0ffH
	DB	07fH
	DB	0feH
	DB	0ffH
	DB	0ffH
	DB	07fH
	DB	0feH
	DB	0ffH
	DB	0ffH
	DB	07fH
	DB	0feH
	DB	0ffH
	DB	0ffH
	DB	07fH
	DB	0feH
	DB	0ffH
	DB	0ffH
	DB	07fH
	DB	0feH
	DB	0ffH
	DB	0ffH
	DB	07fH
	DB	0feH
	DB	0ffH
	DB	0ffH
	DB	07fH
	DB	0feH
	DB	0ffH
	DB	0ffH
	DB	06fH
	DB	0f9H
	DB	0ffH
	DB	0ffH
	DB	02fH
	DB	081H
	DB	0fdH
	DB	0beH
	DB	04H
	DB	010H
	DB	0fbH
	DB	0ffH
	DB	0ffH
	DB	0ffH
	DB	0ffH
	DB	09eH
	DB	00H
	DB	0a0H
	DB	0ffH
	DB	0ffH
	DB	0ffH
	DB	0ffH
	DB	0ffH
	DB	0ffH
	DB	08H
	DB	0f0H
	DB	0ffH
	DB	0ffH
	DB	0ffH
	DB	0ffH
	DB	0ffH
	DB	0ffH
	DB	0dH
	DB	0f1H
	DB	0ffH
	DB	0ffH
	DB	0ffH
	DB	0ffH
	DB	0ffH
	DB	0ffH
	DB	01fH
	DB	0e0H
	DB	0ffH
	DB	0ffH
	DB	0ffH
	DB	0ffH
	DB	0ffH
	DB	0ffH
	DB	02fH
	DB	050H
	DB	0baH
	DB	0bbH
	DB	0bbH
	DB	0bbH
	DB	0fdH
	DB	0ffH
	DB	01fH
	DB	00H
	DB	00H
	DB	00H
	DB	00H
	DB	00H
	DB	0f6H
	DB	0ffH
	DB	0fH
	DB	00H
	DB	00H
	DB	0daH
	DB	0eeH
	DB	0eeH
	DB	0feH
	DB	0ffH
	DB	0bH
	DB	00H
	DB	080H
	DB	0ffH
	DB	0ffH
	DB	0ffH
	DB	0ffH
	DB	08fH
	DB	01H
	DB	050H
	DB	0fcH
	DB	0ffH
	DB	0ffH
	DB	0ffH
	DB	0ffH
	DB	0bH
	DB	00H
	DB	0e0H
	DB	0ffH
	DB	0ffH
	DB	0ffH
	DB	0ffH
	DB	0efH
	DB	04H
	DB	00H
	DB	0f1H
	DB	0ffH
	DB	05fH
	DB	00H
	DB	00H
	DB	00H
	DB	00H
	DB	00H
	DB	0f1H
	DB	0ffH
	DB	07fH
	DB	033H
	DB	033H
	DB	033H
	DB	013H
	DB	00H
	DB	0f1H
	DB	0ffH
	DB	0ffH
	DB	0ffH
	DB	0ffH
	DB	0ffH
	DB	0efH
	DB	04H
	DB	0f1H
	DB	0ffH
	DB	0ffH
	DB	0ffH
	DB	0ffH
	DB	0ffH
	DB	0ffH
	DB	0eH
	DB	0f1H
	DB	0ffH
	DB	0ffH
	DB	0ffH
	DB	0ffH
	DB	0ffH
	DB	0ffH
	DB	02fH
	DB	0f1H
	DB	0ffH
	DB	0ffH
	DB	0ffH
	DB	0ffH
	DB	0ffH
	DB	0ffH
	DB	02fH
	DB	0f1H
	DB	0ffH
	DB	0ffH
	DB	0ffH
	DB	0ffH
	DB	0ffH
	DB	0ffH
	DB	02fH
	DB	0f1H
	DB	0ffH
	DB	0ffH
	DB	0ffH
	DB	0ffH
	DB	0ffH
	DB	0ffH
	DB	02fH
	DB	0b0H
	DB	0ffH
	DB	0ffH
	DB	0ffH
	DB	0ffH
	DB	0ffH
	DB	0ffH
	DB	0cH
	DB	010H
	DB	0c8H
	DB	0feH
	DB	0ffH
	DB	0ffH
	DB	0efH
	DB	08cH
	DB	01H
	DB	00H
	DB	0e8H
	DB	0ffH
	DB	0ffH
	DB	0ffH
	DB	0ffH
	DB	0ffH
	DB	03dH
	DB	040H
	DB	0ffH
	DB	0ffH
	DB	0ffH
	DB	0ffH
	DB	0ffH
	DB	0ffH
	DB	0bfH
	DB	090H
	DB	0ffH
	DB	0ffH
	DB	0ffH
	DB	0ffH
	DB	0ffH
	DB	0ffH
	DB	0dfH
	DB	080H
	DB	0ffH
	DB	0ffH
	DB	0ffH
	DB	0ffH
	DB	0ffH
	DB	0ffH
	DB	0efH
	DB	020H
	DB	0feH
	DB	0ffH
	DB	0ffH
	DB	0ffH
	DB	0ffH
	DB	0ffH
	DB	0efH
	DB	00H
	DB	083H
	DB	099H
	DB	099H
	DB	099H
	DB	0e9H
	DB	0ffH
	DB	0efH
	DB	00H
	DB	00H
	DB	00H
	DB	00H
	DB	00H
	DB	0c0H
	DB	0ffH
	DB	0efH
	DB	00H
	DB	00H
	DB	00H
	DB	040H
	DB	0ecH
	DB	0feH
	DB	0ffH
	DB	0dfH
	DB	00H
	DB	00H
	DB	00H
	DB	0c0H
	DB	0ffH
	DB	0ffH
	DB	0ffH
	DB	03cH
	DB	00H
	DB	00H
	DB	00H
	DB	0c0H
	DB	0ffH
	DB	0ffH
	DB	0ffH
	DB	07H
	DB	00H
	DB	00H
	DB	00H
	DB	040H
	DB	0ecH
	DB	0ffH
	DB	0ffH
	DB	06fH
	DB	00H
	DB	00H
	DB	00H
	DB	00H
	DB	00H
	DB	0c0H
	DB	0ffH
	DB	0cfH
	DB	00H
	DB	030H
	DB	033H
	DB	033H
	DB	033H
	DB	0c3H
	DB	0ffH
	DB	0efH
	DB	030H
	DB	0feH
	DB	0ffH
	DB	0ffH
	DB	0ffH
	DB	0ffH
	DB	0ffH
	DB	0efH
	DB	0b0H
	DB	0ffH
	DB	0ffH
	DB	0ffH
	DB	0ffH
	DB	0ffH
	DB	0ffH
	DB	0dfH
	DB	0e0H
	DB	0ffH
	DB	0ffH
	DB	0ffH
	DB	0ffH
	DB	0ffH
	DB	0ffH
	DB	0dfH
	DB	0f1H
	DB	0ffH
	DB	0ffH
	DB	0ffH
	DB	0ffH
	DB	0ffH
	DB	0ffH
	DB	0dfH
	DB	0f0H
	DB	0ffH
	DB	0ffH
	DB	0ffH
	DB	0ffH
	DB	0ffH
	DB	0ffH
	DB	0bfH
	DB	0d0H
	DB	0ffH
	DB	0ffH
	DB	0ffH
	DB	0ffH
	DB	0ffH
	DB	0ffH
	DB	09fH
	DB	080H
	DB	0ffH
	DB	0ffH
	DB	0ffH
	DB	0ffH
	DB	0ffH
	DB	0ffH
	DB	05fH
	DB	010H
	DB	0fbH
	DB	0ffH
	DB	0ffH
	DB	0ffH
	DB	0ffH
	DB	0efH
	DB	08H
	DB	00H
	DB	00H
	DB	00H
	DB	00H
	DB	073H
	DB	02H
	DB	00H
	DB	00H
	DB	00H
	DB	00H
	DB	00H
	DB	020H
	DB	0ffH
	DB	01eH
	DB	00H
	DB	00H
	DB	050H
	DB	0deH
	DB	04H
	DB	040H
	DB	0ffH
	DB	03fH
	DB	00H
	DB	00H
	DB	0e0H
	DB	0ffH
	DB	0dH
	DB	040H
	DB	0ffH
	DB	04fH
	DB	00H
	DB	00H
	DB	0f1H
	DB	0ffH
	DB	0fH
	DB	040H
	DB	0ffH
	DB	04fH
	DB	00H
	DB	00H
	DB	0f1H
	DB	0ffH
	DB	0fH
	DB	040H
	DB	0ffH
	DB	04fH
	DB	00H
	DB	00H
	DB	0f1H
	DB	0ffH
	DB	0fH
	DB	040H
	DB	0ffH
	DB	04fH
	DB	00H
	DB	00H
	DB	0f1H
	DB	0ffH
	DB	0fH
	DB	040H
	DB	0ffH
	DB	04fH
	DB	00H
	DB	00H
	DB	0f1H
	DB	0ffH
	DB	0fH
	DB	040H
	DB	0ffH
	DB	05fH
	DB	01H
	DB	00H
	DB	0f1H
	DB	0ffH
	DB	01fH
	DB	040H
	DB	0ffH
	DB	0ffH
	DB	0dfH
	DB	03H
	DB	0f1H
	DB	0ffH
	DB	0bfH
	DB	0d6H
	DB	0ffH
	DB	0ffH
	DB	0ffH
	DB	09H
	DB	0f1H
	DB	0ffH
	DB	0ffH
	DB	0ffH
	DB	0ffH
	DB	0ffH
	DB	0ffH
	DB	0aH
	DB	0f1H
	DB	0ffH
	DB	0ffH
	DB	0ffH
	DB	0ffH
	DB	0ffH
	DB	0ffH
	DB	0aH
	DB	0f1H
	DB	0ffH
	DB	0ffH
	DB	0ffH
	DB	0ffH
	DB	0ffH
	DB	0ffH
	DB	08H
	DB	0f1H
	DB	0ffH
	DB	0ffH
	DB	0ffH
	DB	0ffH
	DB	0ffH
	DB	0efH
	DB	02H
	DB	020H
	DB	072H
	DB	0ffH
	DB	0ffH
	DB	0ffH
	DB	08fH
	DB	02H
	DB	00H
	DB	00H
	DB	070H
	DB	0ffH
	DB	0ffH
	DB	0ffH
	DB	0fH
	DB	00H
	DB	00H
	DB	00H
	DB	070H
	DB	0ffH
	DB	0ffH
	DB	0ffH
	DB	0eH
	DB	00H
	DB	00H
	DB	00H
	DB	070H
	DB	0ffH
	DB	0ffH
	DB	0ffH
	DB	0eH
	DB	00H
	DB	00H
	DB	00H
	DB	070H
	DB	0ffH
	DB	0ffH
	DB	0ffH
	DB	0eH
	DB	00H
	DB	00H
	DB	00H
	DB	060H
	DB	0ffH
	DB	0ffH
	DB	0ffH
	DB	0dH
	DB	00H
	DB	00H
	DB	00H
	DB	030H
	DB	0ffH
	DB	0ffH
	DB	0ffH
	DB	08H
	DB	00H
	DB	00H
	DB	00H
	DB	00H
	DB	0e6H
	DB	0ffH
	DB	0afH
	DB	00H
	DB	00H
	DB	00H
	DB	0a1H
	DB	0ffH
	DB	0ffH
	DB	0ffH
	DB	0ffH
	DB	0ffH
	DB	0bfH
	DB	00H
	DB	0faH
	DB	0ffH
	DB	0ffH
	DB	0ffH
	DB	0ffH
	DB	0ffH
	DB	0ffH
	DB	03H
	DB	0feH
	DB	0ffH
	DB	0ffH
	DB	0ffH
	DB	0ffH
	DB	0ffH
	DB	0ffH
	DB	05H
	DB	0feH
	DB	0ffH
	DB	0ffH
	DB	0ffH
	DB	0ffH
	DB	0ffH
	DB	0ffH
	DB	05H
	DB	0feH
	DB	0ffH
	DB	0ffH
	DB	0ffH
	DB	0ffH
	DB	0ffH
	DB	0ffH
	DB	03H
	DB	0feH
	DB	0ffH
	DB	09cH
	DB	099H
	DB	099H
	DB	099H
	DB	069H
	DB	00H
	DB	0feH
	DB	0ffH
	DB	08H
	DB	00H
	DB	00H
	DB	00H
	DB	00H
	DB	00H
	DB	0feH
	DB	0ffH
	DB	0efH
	DB	0eeH
	DB	0eeH
	DB	0eeH
	DB	05dH
	DB	00H
	DB	0feH
	DB	0ffH
	DB	0ffH
	DB	0ffH
	DB	0ffH
	DB	0ffH
	DB	0ffH
	DB	00H
	DB	0faH
	DB	0ffH
	DB	0ffH
	DB	0ffH
	DB	0ffH
	DB	0ffH
	DB	0ffH
	DB	02H
	DB	0a1H
	DB	0ffH
	DB	0ffH
	DB	0ffH
	DB	0ffH
	DB	0ffH
	DB	0ffH
	DB	03H
	DB	00H
	DB	00H
	DB	00H
	DB	00H
	DB	00H
	DB	0f7H
	DB	0ffH
	DB	03H
	DB	050H
	DB	066H
	DB	066H
	DB	066H
	DB	066H
	DB	0faH
	DB	0ffH
	DB	03H
	DB	0fbH
	DB	0ffH
	DB	0ffH
	DB	0ffH
	DB	0ffH
	DB	0ffH
	DB	0ffH
	DB	04H
	DB	0feH
	DB	0ffH
	DB	0ffH
	DB	0ffH
	DB	0ffH
	DB	0ffH
	DB	0ffH
	DB	03H
	DB	0feH
	DB	0ffH
	DB	0ffH
	DB	0ffH
	DB	0ffH
	DB	0ffH
	DB	0dfH
	DB	00H
	DB	0feH
	DB	0ffH
	DB	0ffH
	DB	0ffH
	DB	0ffH
	DB	0efH
	DB	016H
	DB	00H
	DB	0feH
	DB	0ffH
	DB	0ffH
	DB	0ffH
	DB	0ffH
	DB	0dfH
	DB	00H
	DB	00H
	DB	0feH
	DB	0ffH
	DB	0ffH
	DB	0ffH
	DB	0ffH
	DB	0cfH
	DB	00H
	DB	00H
	DB	0fdH
	DB	0ffH
	DB	0ffH
	DB	0ffH
	DB	0ffH
	DB	0afH
	DB	00H
	DB	00H
	DB	0c4H
	DB	0eeH
	DB	0ffH
	DB	0ffH
	DB	0efH
	DB	02bH
	DB	00H
	DB	00H
	DB	00H
	DB	0d5H
	DB	0ffH
	DB	0ffH
	DB	0ffH
	DB	0ffH
	DB	09fH
	DB	00H
	DB	070H
	DB	0ffH
	DB	0ffH
	DB	0ffH
	DB	0ffH
	DB	0ffH
	DB	0ffH
	DB	07H
	DB	0e0H
	DB	0ffH
	DB	0ffH
	DB	0ffH
	DB	0ffH
	DB	0ffH
	DB	0ffH
	DB	0cH
	DB	0f1H
	DB	0ffH
	DB	0ffH
	DB	0ffH
	DB	0ffH
	DB	0ffH
	DB	0ffH
	DB	0dH
	DB	0f1H
	DB	0ffH
	DB	0ffH
	DB	0ffH
	DB	0ffH
	DB	0ffH
	DB	0ffH
	DB	0cH
	DB	0f1H
	DB	0ffH
	DB	0ffH
	DB	0ffH
	DB	0ffH
	DB	0ffH
	DB	0ffH
	DB	06H
	DB	0f1H
	DB	0ffH
	DB	0afH
	DB	0aaH
	DB	0aaH
	DB	0aaH
	DB	06aH
	DB	00H
	DB	0f1H
	DB	0ffH
	DB	01fH
	DB	00H
	DB	00H
	DB	00H
	DB	00H
	DB	00H
	DB	0f1H
	DB	0ffH
	DB	01fH
	DB	0d2H
	DB	0ffH
	DB	0ffH
	DB	0ffH
	DB	0aH
	DB	0f1H
	DB	0ffH
	DB	01fH
	DB	0f7H
	DB	0ffH
	DB	0ffH
	DB	0ffH
	DB	0aH
	DB	0f1H
	DB	0ffH
	DB	01fH
	DB	0e3H
	DB	0ffH
	DB	0ffH
	DB	0ffH
	DB	0aH
	DB	0f1H
	DB	0ffH
	DB	01fH
	DB	00H
	DB	032H
	DB	0e3H
	DB	0ffH
	DB	0aH
	DB	0f1H
	DB	0ffH
	DB	06fH
	DB	055H
	DB	055H
	DB	0e5H
	DB	0ffH
	DB	0aH
	DB	0f1H
	DB	0ffH
	DB	0ffH
	DB	0ffH
	DB	0ffH
	DB	0ffH
	DB	0ffH
	DB	0aH
	DB	0f1H
	DB	0ffH
	DB	0ffH
	DB	0ffH
	DB	0ffH
	DB	0ffH
	DB	0ffH
	DB	0aH
	DB	0f1H
	DB	0ffH
	DB	0ffH
	DB	0ffH
	DB	0ffH
	DB	0ffH
	DB	0ffH
	DB	0aH
	DB	0f1H
	DB	0ffH
	DB	0ffH
	DB	0ffH
	DB	0ffH
	DB	0ffH
	DB	0ffH
	DB	0aH
	DB	0f1H
	DB	0ffH
	DB	0ffH
	DB	0ffH
	DB	0ffH
	DB	0ffH
	DB	0ffH
	DB	09H
	DB	0e0H
	DB	0ffH
	DB	0ffH
	DB	0ffH
	DB	0ffH
	DB	0ffH
	DB	0ffH
	DB	05H
	DB	070H
	DB	0ffH
	DB	0ffH
	DB	0ffH
	DB	0ffH
	DB	0ffH
	DB	0bfH
	DB	00H
	DB	00H
	DB	0a5H
	DB	0edH
	DB	0ffH
	DB	0efH
	DB	0bdH
	DB	06H
	DB	00H
	DB	060H
	DB	0fdH
	DB	0ffH
	DB	0ffH
	DB	0ceH
	DB	03H
	DB	00H
	DB	00H
	DB	0e0H
	DB	0ffH
	DB	0ffH
	DB	0ffH
	DB	0ffH
	DB	0bH
	DB	00H
	DB	00H
	DB	0f1H
	DB	0ffH
	DB	0ffH
	DB	0ffH
	DB	0ffH
	DB	0dH
	DB	00H
	DB	00H
	DB	0f1H
	DB	0ffH
	DB	0ffH
	DB	0ffH
	DB	0ffH
	DB	0dH
	DB	00H
	DB	00H
	DB	0f0H
	DB	0ffH
	DB	0ffH
	DB	0ffH
	DB	0ffH
	DB	0dH
	DB	00H
	DB	00H
	DB	0c0H
	DB	0ffH
	DB	0ffH
	DB	0ffH
	DB	0ffH
	DB	0dH
	DB	00H
	DB	00H
	DB	030H
	DB	0baH
	DB	0bbH
	DB	0fbH
	DB	0ffH
	DB	0dH
	DB	00H
	DB	00H
	DB	00H
	DB	00H
	DB	00H
	DB	0f2H
	DB	0ffH
	DB	0dH
	DB	00H
	DB	00H
	DB	00H
	DB	00H
	DB	00H
	DB	0f2H
	DB	0ffH
	DB	0dH
	DB	00H
	DB	00H
	DB	00H
	DB	00H
	DB	00H
	DB	0f2H
	DB	0ffH
	DB	0dH
	DB	00H
	DB	00H
	DB	00H
	DB	00H
	DB	00H
	DB	0f2H
	DB	0ffH
	DB	0dH
	DB	00H
	DB	00H
	DB	00H
	DB	00H
	DB	00H
	DB	0f2H
	DB	0ffH
	DB	0dH
	DB	00H
	DB	00H
	DB	00H
	DB	00H
	DB	00H
	DB	0f2H
	DB	0ffH
	DB	0dH
	DB	00H
	DB	00H
	DB	00H
	DB	00H
	DB	00H
	DB	0f2H
	DB	0ffH
	DB	0dfH
	DB	09cH
	DB	02H
	DB	00H
	DB	00H
	DB	00H
	DB	0f2H
	DB	0ffH
	DB	0ffH
	DB	0ffH
	DB	0aH
	DB	00H
	DB	00H
	DB	00H
	DB	0f2H
	DB	0ffH
	DB	0ffH
	DB	0ffH
	DB	0dH
	DB	00H
	DB	00H
	DB	00H
	DB	0f2H
	DB	0ffH
	DB	0ffH
	DB	0ffH
	DB	0dH
	DB	00H
	DB	00H
	DB	00H
	DB	0f2H
	DB	0ffH
	DB	0ffH
	DB	0ffH
	DB	0dH
	DB	00H
	DB	00H
	DB	00H
	DB	0f2H
	DB	0ffH
	DB	0ffH
	DB	0ffH
	DB	0cH
	DB	00H
	DB	00H
	DB	00H
	DB	0f1H
	DB	0ffH
	DB	0ffH
	DB	0ffH
	DB	0bH
	DB	00H
	DB	00H
	DB	00H
	DB	050H
	DB	0fcH
	DB	0ffH
	DB	0dfH
	DB	05H
	DB	010H
	DB	0fbH
	DB	0ffH
	DB	0ffH
	DB	0ffH
	DB	0ffH
	DB	0efH
	DB	07H
	DB	080H
	DB	0ffH
	DB	0ffH
	DB	0ffH
	DB	0ffH
	DB	0ffH
	DB	0ffH
	DB	02fH
	DB	0c0H
	DB	0ffH
	DB	0ffH
	DB	0ffH
	DB	0ffH
	DB	0ffH
	DB	0ffH
	DB	06fH
	DB	0d0H
	DB	0ffH
	DB	0ffH
	DB	0ffH
	DB	0ffH
	DB	0ffH
	DB	0ffH
	DB	07fH
	DB	0e0H
	DB	0ffH
	DB	0ffH
	DB	0ffH
	DB	0ffH
	DB	0ffH
	DB	0ffH
	DB	08fH
	DB	0e0H
	DB	0ffH
	DB	0efH
	DB	0eeH
	DB	0eeH
	DB	0feH
	DB	0ffH
	DB	08fH
	DB	0e0H
	DB	0ffH
	DB	06fH
	DB	00H
	DB	00H
	DB	0a0H
	DB	0ffH
	DB	08fH
	DB	0d0H
	DB	0ffH
	DB	0cfH
	DB	01H
	DB	00H
	DB	0e1H
	DB	0ffH
	DB	08fH
	DB	090H
	DB	0ffH
	DB	0ffH
	DB	0ffH
	DB	0ffH
	DB	0ffH
	DB	0ffH
	DB	04fH
	DB	00H
	DB	0fbH
	DB	0ffH
	DB	0ffH
	DB	0ffH
	DB	0ffH
	DB	0ffH
	DB	07H
	DB	0a0H
	DB	0ffH
	DB	0ffH
	DB	0ffH
	DB	0ffH
	DB	0ffH
	DB	0ffH
	DB	01bH
	DB	0f1H
	DB	0ffH
	DB	0ffH
	DB	0eeH
	DB	0eeH
	DB	0ffH
	DB	0ffH
	DB	06fH
	DB	0f1H
	DB	0ffH
	DB	07fH
	DB	00H
	DB	00H
	DB	0e2H
	DB	0ffH
	DB	06fH
	DB	0f1H
	DB	0ffH
	DB	0dfH
	DB	0ddH
	DB	0ddH
	DB	0fdH
	DB	0ffH
	DB	06fH
	DB	0f1H
	DB	0ffH
	DB	0ffH
	DB	0ffH
	DB	0ffH
	DB	0ffH
	DB	0ffH
	DB	06fH
	DB	0f1H
	DB	0ffH
	DB	0ffH
	DB	0ffH
	DB	0ffH
	DB	0ffH
	DB	0ffH
	DB	06fH
	DB	0f1H
	DB	0ffH
	DB	0ffH
	DB	0ffH
	DB	0ffH
	DB	0ffH
	DB	0ffH
	DB	06fH
	DB	0f1H
	DB	0ffH
	DB	0ffH
	DB	0ffH
	DB	0ffH
	DB	0ffH
	DB	0ffH
	DB	06fH
	DB	0f1H
	DB	0ffH
	DB	0ffH
	DB	0ffH
	DB	0ffH
	DB	0ffH
	DB	0ffH
	DB	06fH
	DB	0c0H
	DB	0ffH
	DB	0ffH
	DB	0ffH
	DB	0ffH
	DB	0ffH
	DB	0ffH
	DB	04fH
	DB	020H
	DB	0fcH
	DB	0ffH
	DB	0ffH
	DB	0ffH
	DB	0ffH
	DB	0efH
	DB	07H
	DB	050H
	DB	0feH
	DB	0ffH
	DB	0ffH
	DB	0ffH
	DB	0ffH
	DB	0ffH
	DB	08H
	DB	0e0H
	DB	0ffH
	DB	0ffH
	DB	0ffH
	DB	0ffH
	DB	0ffH
	DB	0ffH
	DB	03fH
	DB	0f1H
	DB	0ffH
	DB	0ffH
	DB	0ffH
	DB	0ffH
	DB	0ffH
	DB	0ffH
	DB	05fH
	DB	0f1H
	DB	0ffH
	DB	0ffH
	DB	0ffH
	DB	0ffH
	DB	0ffH
	DB	0ffH
	DB	05fH
	DB	0f1H
	DB	0ffH
	DB	0ffH
	DB	0ffH
	DB	0ffH
	DB	0ffH
	DB	0ffH
	DB	05fH
	DB	0f1H
	DB	0ffH
	DB	0ffH
	DB	0ffH
	DB	0ffH
	DB	0ffH
	DB	0ffH
	DB	05fH
	DB	0f1H
	DB	0ffH
	DB	0acH
	DB	0aaH
	DB	0aaH
	DB	0faH
	DB	0ffH
	DB	05fH
	DB	0f1H
	DB	0ffH
	DB	07H
	DB	00H
	DB	00H
	DB	0e0H
	DB	0ffH
	DB	05fH
	DB	0f1H
	DB	0ffH
	DB	0acH
	DB	0aaH
	DB	029H
	DB	0e0H
	DB	0ffH
	DB	05fH
	DB	0f1H
	DB	0ffH
	DB	0ffH
	DB	0ffH
	DB	0dfH
	DB	0e0H
	DB	0ffH
	DB	05fH
	DB	0e0H
	DB	0ffH
	DB	0ffH
	DB	0ffH
	DB	0efH
	DB	0e0H
	DB	0ffH
	DB	05fH
	DB	050H
	DB	0feH
	DB	0ffH
	DB	0ffH
	DB	06fH
	DB	0e0H
	DB	0ffH
	DB	05fH
	DB	00H
	DB	00H
	DB	00H
	DB	00H
	DB	00H
	DB	0e0H
	DB	0ffH
	DB	05fH
	DB	040H
	DB	0ccH
	DB	0ccH
	DB	0ccH
	DB	0ccH
	DB	0fcH
	DB	0ffH
	DB	05fH
	DB	0c0H
	DB	0ffH
	DB	0ffH
	DB	0ffH
	DB	0ffH
	DB	0ffH
	DB	0ffH
	DB	05fH
	DB	0f0H
	DB	0ffH
	DB	0ffH
	DB	0ffH
	DB	0ffH
	DB	0ffH
	DB	0ffH
	DB	05fH
	DB	0f1H
	DB	0ffH
	DB	0ffH
	DB	0ffH
	DB	0ffH
	DB	0ffH
	DB	0ffH
	DB	05fH
	DB	0f1H
	DB	0ffH
	DB	0ffH
	DB	0ffH
	DB	0ffH
	DB	0ffH
	DB	0ffH
	DB	05fH
	DB	0f0H
	DB	0ffH
	DB	0ffH
	DB	0ffH
	DB	0ffH
	DB	0ffH
	DB	0ffH
	DB	05fH
	DB	0d0H
	DB	0ffH
	DB	0ffH
	DB	0ffH
	DB	0ffH
	DB	0ffH
	DB	0ffH
	DB	04fH
	DB	060H
	DB	0feH
	DB	0ffH
	DB	0ffH
	DB	0ffH
	DB	0ffH
	DB	0ffH
	DB	09H
	DB	020H
	DB	0fcH
	DB	0ffH
	DB	0ffH
	DB	0ffH
	DB	0ffH
	DB	0cfH
	DB	02H
	DB	0b0H
	DB	0ffH
	DB	0ffH
	DB	0ffH
	DB	0ffH
	DB	0ffH
	DB	0ffH
	DB	01dH
	DB	0f0H
	DB	0ffH
	DB	0ffH
	DB	0ffH
	DB	0ffH
	DB	0ffH
	DB	0ffH
	DB	05fH
	DB	0f1H
	DB	0ffH
	DB	0ffH
	DB	0ffH
	DB	0ffH
	DB	0ffH
	DB	0ffH
	DB	07fH
	DB	0f1H
	DB	0ffH
	DB	0ffH
	DB	0ffH
	DB	0ffH
	DB	0ffH
	DB	0ffH
	DB	07fH
	DB	0f1H
	DB	0ffH
	DB	0ffH
	DB	0ffH
	DB	0ffH
	DB	0ffH
	DB	0ffH
	DB	07fH
	DB	0f1H
	DB	0ffH
	DB	0ffH
	DB	0ffH
	DB	0ffH
	DB	0ffH
	DB	0ffH
	DB	07fH
	DB	0f1H
	DB	0ffH
	DB	0eH
	DB	00H
	DB	00H
	DB	0e0H
	DB	0ffH
	DB	07fH
	DB	0f1H
	DB	0ffH
	DB	0eH
	DB	00H
	DB	00H
	DB	0e0H
	DB	0ffH
	DB	07fH
	DB	0f1H
	DB	0ffH
	DB	03eH
	DB	00H
	DB	010H
	DB	0e3H
	DB	0ffH
	DB	07fH
	DB	0f1H
	DB	0ffH
	DB	0ffH
	DB	0bH
	DB	0f5H
	DB	0ffH
	DB	0ffH
	DB	07fH
	DB	0c0H
	DB	0ffH
	DB	0ffH
	DB	0fH
	DB	0fdH
	DB	0ffH
	DB	0ffH
	DB	03fH
	DB	020H
	DB	0ebH
	DB	0efH
	DB	018H
	DB	0ffH
	DB	0ffH
	DB	0efH
	DB	06H
	DB	00H
	DB	00H
	DB	00H
	DB	00H
	DB	00H
	DB	00H
	DB	00H
	DB	00H
	DB	00H
	DB	00H
	DB	00H
	DB	00H
	DB	00H
	DB	00H
	DB	00H
	DB	00H
	DB	00H
	DB	00H
	DB	00H
	DB	00H
	DB	0c3H
	DB	0beH
	DB	02H
	DB	00H
	DB	00H
	DB	00H
	DB	00H
	DB	010H
	DB	0feH
	DB	0ffH
	DB	0dH
	DB	00H
	DB	00H
	DB	00H
	DB	00H
	DB	060H
	DB	0ffH
	DB	0ffH
	DB	04fH
	DB	00H
	DB	00H
	DB	00H
	DB	00H
	DB	060H
	DB	0ffH
	DB	0ffH
	DB	04fH
	DB	00H
	DB	00H
	DB	00H
	DB	00H
	DB	010H
	DB	0feH
	DB	0ffH
	DB	0dH
	DB	00H
	DB	00H
	DB	00H
	DB	00H
	DB	00H
	DB	0c3H
	DB	0bfH
	DB	02H
	DB	00H
CONST	ENDS
PUBLIC	__JustMyCode_Default
; Function compile flags: /Odt
;	COMDAT __JustMyCode_Default
_TEXT	SEGMENT
__JustMyCode_Default PROC				; COMDAT
	push	ebp
	mov	ebp, esp
	pop	ebp
	ret	0
__JustMyCode_Default ENDP
_TEXT	ENDS
END
