; Listing generated by Microsoft (R) Optimizing Compiler Version 19.22.27905.0 

	TITLE	C:\TouchGFXProjects\Dashboard\TouchGFX\generated\fonts\src\Font_twenty_seven_regular_35_4bpp_0.cpp
	.686P
	.XMM
	include listing.inc
	.model	flat

INCLUDELIB MSVCRTD
INCLUDELIB OLDNAMES

PUBLIC	?unicodes_twenty_seven_regular_35_4bpp_0@@3QBEB	; unicodes_twenty_seven_regular_35_4bpp_0
msvcjmc	SEGMENT
__285B227C_Types@hpp DB 01H
msvcjmc	ENDS
CONST	SEGMENT
?unicodes_twenty_seven_regular_35_4bpp_0@@3QBEB DB 070H	; unicodes_twenty_seven_regular_35_4bpp_0
	DB	0bdH
	DB	0dbH
	DB	0adH
	DB	04aH
	DB	00H
	DB	00H
	DB	00H
	DB	0a1H
	DB	02H
	DB	00H
	DB	00H
	DB	0e0H
	DB	0cfH
	DB	0dcH
	DB	0cdH
	DB	0bfH
	DB	00H
	DB	00H
	DB	00H
	DB	0f9H
	DB	0eH
	DB	00H
	DB	00H
	DB	0a0H
	DB	08aH
	DB	088H
	DB	089H
	DB	08aH
	DB	00H
	DB	00H
	DB	020H
	DB	0ffH
	DB	07H
	DB	00H
	DB	00H
	DB	0f1H
	DB	08fH
	DB	00H
	DB	090H
	DB	0efH
	DB	00H
	DB	00H
	DB	0b0H
	DB	0dfH
	DB	00H
	DB	00H
	DB	00H
	DB	0c2H
	DB	06cH
	DB	00H
	DB	080H
	DB	0ccH
	DB	00H
	DB	00H
	DB	0e2H
	DB	06fH
	DB	00H
	DB	00H
	DB	00H
	DB	0b2H
	DB	08cH
	DB	00H
	DB	070H
	DB	0ebH
	DB	00H
	DB	00H
	DB	06bH
	DB	09H
	DB	00H
	DB	00H
	DB	00H
	DB	0f3H
	DB	08fH
	DB	00H
	DB	0d0H
	DB	0ffH
	DB	00H
	DB	070H
	DB	0ffH
	DB	03H
	DB	00H
	DB	00H
	DB	00H
	DB	0f1H
	DB	08fH
	DB	00H
	DB	0a0H
	DB	0efH
	DB	00H
	DB	0e2H
	DB	0afH
	DB	00H
	DB	00H
	DB	00H
	DB	00H
	DB	090H
	DB	079H
	DB	087H
	DB	078H
	DB	079H
	DB	00H
	DB	0faH
	DB	01eH
	DB	00H
	DB	00H
	DB	00H
	DB	00H
	DB	0e0H
	DB	0cfH
	DB	0dcH
	DB	0cdH
	DB	0bfH
	DB	040H
	DB	0ffH
	DB	07H
	DB	00H
	DB	00H
	DB	00H
	DB	00H
	DB	060H
	DB	0bcH
	DB	0dcH
	DB	0bdH
	DB	04bH
	DB	080H
	DB	0dbH
	DB	00H
	DB	00H
	DB	00H
	DB	00H
	DB	00H
	DB	00H
	DB	00H
	DB	00H
	DB	00H
	DB	00H
	DB	0f7H
	DB	01bH
	DB	00H
	DB	00H
	DB	00H
	DB	00H
	DB	00H
	DB	00H
	DB	00H
	DB	00H
	DB	00H
	DB	010H
	DB	0feH
	DB	0bH
	DB	00H
	DB	00H
	DB	00H
	DB	00H
	DB	00H
	DB	00H
	DB	00H
	DB	00H
	DB	00H
	DB	050H
	DB	0ffH
	DB	03H
	DB	00H
	DB	00H
	DB	00H
	DB	00H
	DB	00H
	DB	00H
	DB	00H
	DB	00H
	DB	00H
	DB	0a1H
	DB	076H
	DB	050H
	DB	0bdH
	DB	0cfH
	DB	0bcH
	DB	07cH
	DB	00H
	DB	00H
	DB	00H
	DB	00H
	DB	00H
	DB	0f9H
	DB	01eH
	DB	0a0H
	DB	0cfH
	DB	0cfH
	DB	0ccH
	DB	0ffH
	DB	01H
	DB	00H
	DB	00H
	DB	00H
	DB	030H
	DB	0ffH
	DB	06H
	DB	0c0H
	DB	0cfH
	DB	023H
	DB	072H
	DB	0ffH
	DB	03H
	DB	00H
	DB	00H
	DB	00H
	DB	0c0H
	DB	0cfH
	DB	00H
	DB	0d0H
	DB	0cfH
	DB	00H
	DB	060H
	DB	0ffH
	DB	03H
	DB	00H
	DB	00H
	DB	00H
	DB	0f6H
	DB	04fH
	DB	00H
	DB	040H
	DB	068H
	DB	00H
	DB	020H
	DB	086H
	DB	02H
	DB	00H
	DB	00H
	DB	010H
	DB	0a7H
	DB	0aH
	DB	00H
	DB	0d0H
	DB	08bH
	DB	00H
	DB	060H
	DB	0bdH
	DB	03H
	DB	00H
	DB	00H
	DB	090H
	DB	0afH
	DB	00H
	DB	00H
	DB	0a0H
	DB	09bH
	DB	00H
	DB	040H
	DB	0bbH
	DB	03H
	DB	00H
	DB	00H
	DB	0f2H
	DB	07fH
	DB	00H
	DB	00H
	DB	0c0H
	DB	0cfH
	DB	00H
	DB	060H
	DB	0ffH
	DB	03H
	DB	00H
	DB	00H
	DB	0faH
	DB	01dH
	DB	00H
	DB	00H
	DB	070H
	DB	08aH
	DB	08aH
	DB	088H
	DB	0aaH
	DB	01H
	DB	00H
	DB	030H
	DB	0ffH
	DB	05H
	DB	00H
	DB	00H
	DB	0a0H
	DB	0cfH
	DB	0cfH
	DB	0ccH
	DB	0ffH
	DB	00H
	DB	00H
	DB	010H
	DB	0c9H
	DB	00H
	DB	00H
	DB	00H
	DB	030H
	DB	0abH
	DB	0cfH
	DB	0bcH
	DB	06bH
	DB	00H
	DB	087H
	DB	088H
	DB	03H
	DB	0fdH
	DB	0ffH
	DB	07H
	DB	0fdH
	DB	0ffH
	DB	07H
	DB	0fdH
	DB	0ffH
	DB	08H
	DB	0fdH
	DB	0ffH
	DB	08H
	DB	010H
	DB	0d8H
	DB	0e8H
	DB	0dbH
	DB	0ffH
	DB	0e9H
	DB	098H
	DB	05H
	DB	00H
	DB	0d1H
	DB	0ffH
	DB	0f9H
	DB	0dbH
	DB	0ffH
	DB	0f9H
	DB	0f9H
	DB	0cfH
	DB	00H
	DB	0f5H
	DB	0ffH
	DB	0f9H
	DB	0dbH
	DB	0ffH
	DB	0f9H
	DB	0f9H
	DB	0ffH
	DB	05H
	DB	073H
	DB	077H
	DB	074H
	DB	065H
	DB	077H
	DB	075H
	DB	074H
	DB	077H
	DB	04H
	DB	0f8H
	DB	0ffH
	DB	07H
	DB	00H
	DB	00H
	DB	00H
	DB	0f5H
	DB	0ffH
	DB	09H
	DB	0f9H
	DB	0ffH
	DB	07H
	DB	00H
	DB	00H
	DB	00H
	DB	0f5H
	DB	0ffH
	DB	0aH
	DB	0f9H
	DB	0ffH
	DB	07H
	DB	00H
	DB	00H
	DB	00H
	DB	0f5H
	DB	0ffH
	DB	0aH
	DB	0faH
	DB	0ffH
	DB	07H
	DB	00H
	DB	00H
	DB	00H
	DB	0f5H
	DB	0ffH
	DB	0bH
	DB	0faH
	DB	0ffH
	DB	07H
	DB	00H
	DB	00H
	DB	00H
	DB	0f5H
	DB	0ffH
	DB	0bH
	DB	0faH
	DB	0ffH
	DB	07H
	DB	00H
	DB	00H
	DB	00H
	DB	0f5H
	DB	0ffH
	DB	0bH
	DB	043H
	DB	044H
	DB	02H
	DB	00H
	DB	00H
	DB	00H
	DB	041H
	DB	044H
	DB	03H
	DB	0c4H
	DB	0ffH
	DB	07H
	DB	0d0H
	DB	0ffH
	DB	00H
	DB	082H
	DB	0ffH
	DB	0cH
	DB	09aH
	DB	0f9H
	DB	07H
	DB	0d0H
	DB	0ffH
	DB	00H
	DB	0c5H
	DB	0e7H
	DB	0cH
	DB	0faH
	DB	07cH
	DB	05H
	DB	0d0H
	DB	0ffH
	DB	00H
	DB	0f5H
	DB	08eH
	DB	07H
	DB	096H
	DB	089H
	DB	02H
	DB	060H
	DB	077H
	DB	00H
	DB	093H
	DB	099H
	DB	04H
	DB	0faH
	DB	0ffH
	DB	07H
	DB	00H
	DB	00H
	DB	00H
	DB	0f5H
	DB	0ffH
	DB	0bH
	DB	0faH
	DB	0ffH
	DB	07H
	DB	00H
	DB	00H
	DB	00H
	DB	0f5H
	DB	0ffH
	DB	0bH
	DB	0f9H
	DB	0ffH
	DB	07H
	DB	00H
	DB	00H
	DB	00H
	DB	0f5H
	DB	0ffH
	DB	0bH
	DB	0f9H
	DB	0ffH
	DB	07H
	DB	00H
	DB	00H
	DB	00H
	DB	0f5H
	DB	0ffH
	DB	0aH
	DB	0f8H
	DB	0ffH
	DB	07H
	DB	00H
	DB	00H
	DB	00H
	DB	0f5H
	DB	0ffH
	DB	0aH
	DB	0f8H
	DB	0ffH
	DB	07H
	DB	00H
	DB	00H
	DB	00H
	DB	0f5H
	DB	0ffH
	DB	09H
	DB	073H
	DB	077H
	DB	074H
	DB	065H
	DB	077H
	DB	074H
	DB	074H
	DB	077H
	DB	03H
	DB	0f5H
	DB	0ffH
	DB	0f8H
	DB	0dbH
	DB	0ffH
	DB	0f9H
	DB	0faH
	DB	0ffH
	DB	05H
	DB	0c0H
	DB	0ffH
	DB	0f8H
	DB	0dbH
	DB	0ffH
	DB	0f9H
	DB	0faH
	DB	0cfH
	DB	01H
	DB	00H
	DB	0a5H
	DB	0e7H
	DB	0dbH
	DB	0ffH
	DB	0e9H
	DB	0a8H
	DB	05H
	DB	00H
	DB	0e3H
	DB	0a9H
	DB	017H
	DB	00H
	DB	0f3H
	DB	0eaH
	DB	0efH
	DB	05H
	DB	0f3H
	DB	0eaH
	DB	0ffH
	DB	0cH
	DB	071H
	DB	065H
	DB	077H
	DB	07H
	DB	00H
	DB	0e0H
	DB	0ffH
	DB	01fH
	DB	00H
	DB	0e0H
	DB	0ffH
	DB	01fH
	DB	00H
	DB	0e0H
	DB	0ffH
	DB	02fH
	DB	00H
	DB	0e0H
	DB	0ffH
	DB	02fH
	DB	00H
	DB	0e0H
	DB	0ffH
	DB	02fH
	DB	00H
	DB	0e0H
	DB	0ffH
	DB	03fH
	DB	00H
	DB	040H
	DB	044H
	DB	014H
	DB	00H
	DB	060H
	DB	0feH
	DB	03fH
	DB	00H
	DB	0d0H
	DB	0b8H
	DB	03fH
	DB	00H
	DB	0e0H
	DB	0bfH
	DB	028H
	DB	00H
	DB	080H
	DB	099H
	DB	018H
	DB	00H
	DB	0e0H
	DB	0ffH
	DB	03fH
	DB	00H
	DB	0e0H
	DB	0ffH
	DB	03fH
	DB	00H
	DB	0e0H
	DB	0ffH
	DB	02fH
	DB	00H
	DB	0e0H
	DB	0ffH
	DB	02fH
	DB	00H
	DB	0e0H
	DB	0ffH
	DB	01fH
	DB	00H
	DB	0e0H
	DB	0ffH
	DB	01fH
	DB	00H
	DB	070H
	DB	088H
	DB	07H
	DB	00H
	DB	0e0H
	DB	0ffH
	DB	0bH
	DB	00H
	DB	0e0H
	DB	0efH
	DB	05H
	DB	00H
	DB	0a0H
	DB	017H
	DB	00H
	DB	020H
	DB	0d9H
	DB	0e9H
	DB	0f9H
	DB	0cfH
	DB	0ebH
	DB	097H
	DB	03H
	DB	00H
	DB	0e2H
	DB	0ffH
	DB	0f9H
	DB	0f9H
	DB	0cfH
	DB	0fcH
	DB	0f9H
	DB	0bfH
	DB	00H
	DB	0f7H
	DB	0ffH
	DB	0f9H
	DB	0f9H
	DB	0cfH
	DB	0fcH
	DB	0f9H
	DB	0ffH
	DB	03H
	DB	074H
	DB	077H
	DB	075H
	DB	074H
	DB	067H
	DB	076H
	DB	074H
	DB	077H
	DB	03H
	DB	00H
	DB	00H
	DB	00H
	DB	00H
	DB	00H
	DB	00H
	DB	0f7H
	DB	0ffH
	DB	07H
	DB	00H
	DB	00H
	DB	00H
	DB	00H
	DB	00H
	DB	00H
	DB	0f7H
	DB	0ffH
	DB	08H
	DB	00H
	DB	00H
	DB	00H
	DB	00H
	DB	00H
	DB	00H
	DB	0f7H
	DB	0ffH
	DB	08H
	DB	00H
	DB	00H
	DB	00H
	DB	00H
	DB	00H
	DB	00H
	DB	0f7H
	DB	0ffH
	DB	09H
	DB	00H
	DB	00H
	DB	00H
	DB	00H
	DB	00H
	DB	00H
	DB	0f7H
	DB	0ffH
	DB	09H
	DB	00H
	DB	00H
	DB	00H
	DB	00H
	DB	00H
	DB	00H
	DB	0f7H
	DB	0ffH
	DB	09H
	DB	00H
	DB	00H
	DB	00H
	DB	00H
	DB	00H
	DB	00H
	DB	042H
	DB	044H
	DB	03H
	DB	0d5H
	DB	0ffH
	DB	0f9H
	DB	0f9H
	DB	0dfH
	DB	0fcH
	DB	0a5H
	DB	0ffH
	DB	0aH
	DB	08cH
	DB	0faH
	DB	0f9H
	DB	0f9H
	DB	0dfH
	DB	0fcH
	DB	0b9H
	DB	0e7H
	DB	0aH
	DB	0fdH
	DB	08bH
	DB	0f8H
	DB	0f9H
	DB	0dfH
	DB	0fcH
	DB	0f9H
	DB	07eH
	DB	07H
	DB	098H
	DB	089H
	DB	073H
	DB	074H
	DB	067H
	DB	075H
	DB	074H
	DB	077H
	DB	02H
	DB	0fdH
	DB	0ffH
	DB	04H
	DB	00H
	DB	00H
	DB	00H
	DB	00H
	DB	00H
	DB	00H
	DB	0fcH
	DB	0ffH
	DB	04H
	DB	00H
	DB	00H
	DB	00H
	DB	00H
	DB	00H
	DB	00H
	DB	0fcH
	DB	0ffH
	DB	04H
	DB	00H
	DB	00H
	DB	00H
	DB	00H
	DB	00H
	DB	00H
	DB	0fbH
	DB	0ffH
	DB	04H
	DB	00H
	DB	00H
	DB	00H
	DB	00H
	DB	00H
	DB	00H
	DB	0fbH
	DB	0ffH
	DB	04H
	DB	00H
	DB	00H
	DB	00H
	DB	00H
	DB	00H
	DB	00H
	DB	0faH
	DB	0ffH
	DB	04H
	DB	00H
	DB	00H
	DB	00H
	DB	00H
	DB	00H
	DB	00H
	DB	074H
	DB	077H
	DB	074H
	DB	074H
	DB	067H
	DB	075H
	DB	074H
	DB	077H
	DB	02H
	DB	0f7H
	DB	0ffH
	DB	0f9H
	DB	0f9H
	DB	0cfH
	DB	0fcH
	DB	0f9H
	DB	0ffH
	DB	03H
	DB	0d2H
	DB	0ffH
	DB	0f9H
	DB	0f9H
	DB	0cfH
	DB	0fcH
	DB	0f9H
	DB	0bfH
	DB	00H
	DB	00H
	DB	0a6H
	DB	0f8H
	DB	0f9H
	DB	0cfH
	DB	0ebH
	DB	098H
	DB	05H
	DB	00H
	DB	010H
	DB	0d7H
	DB	0e9H
	DB	0adH
	DB	0ffH
	DB	0e9H
	DB	0a8H
	DB	017H
	DB	00H
	DB	0c0H
	DB	0ffH
	DB	0f9H
	DB	0aeH
	DB	0ffH
	DB	0f9H
	DB	0f9H
	DB	0dfH
	DB	02H
	DB	0f2H
	DB	0ffH
	DB	0f9H
	DB	0aeH
	DB	0ffH
	DB	0f9H
	DB	0f9H
	DB	0ffH
	DB	07H
	DB	072H
	DB	077H
	DB	075H
	DB	057H
	DB	077H
	DB	074H
	DB	074H
	DB	077H
	DB	05H
	DB	00H
	DB	00H
	DB	00H
	DB	00H
	DB	00H
	DB	00H
	DB	0f2H
	DB	0ffH
	DB	0cH
	DB	00H
	DB	00H
	DB	00H
	DB	00H
	DB	00H
	DB	00H
	DB	0f2H
	DB	0ffH
	DB	0cH
	DB	00H
	DB	00H
	DB	00H
	DB	00H
	DB	00H
	DB	00H
	DB	0f2H
	DB	0ffH
	DB	0dH
	DB	00H
	DB	00H
	DB	00H
	DB	00H
	DB	00H
	DB	00H
	DB	0f2H
	DB	0ffH
	DB	0dH
	DB	00H
	DB	00H
	DB	00H
	DB	00H
	DB	00H
	DB	00H
	DB	0f2H
	DB	0ffH
	DB	0eH
	DB	00H
	DB	00H
	DB	00H
	DB	00H
	DB	00H
	DB	00H
	DB	0f2H
	DB	0ffH
	DB	0eH
	DB	00H
	DB	00H
	DB	00H
	DB	00H
	DB	00H
	DB	00H
	DB	041H
	DB	044H
	DB	04H
	DB	00H
	DB	00H
	DB	0f0H
	DB	0bdH
	DB	0ffH
	DB	0f9H
	DB	088H
	DB	0ffH
	DB	0eH
	DB	00H
	DB	00H
	DB	0f0H
	DB	0bdH
	DB	0ffH
	DB	0f9H
	DB	0d9H
	DB	0d7H
	DB	0eH
	DB	00H
	DB	00H
	DB	0f0H
	DB	0bdH
	DB	0ffH
	DB	0f9H
	DB	0f9H
	DB	09fH
	DB	09H
	DB	00H
	DB	00H
	DB	070H
	DB	056H
	DB	077H
	DB	074H
	DB	095H
	DB	099H
	DB	06H
	DB	00H
	DB	00H
	DB	00H
	DB	00H
	DB	00H
	DB	00H
	DB	0f3H
	DB	0ffH
	DB	0eH
	DB	00H
	DB	00H
	DB	00H
	DB	00H
	DB	00H
	DB	00H
	DB	0f3H
	DB	0ffH
	DB	0dH
	DB	00H
	DB	00H
	DB	00H
	DB	00H
	DB	00H
	DB	00H
	DB	0f3H
	DB	0ffH
	DB	0dH
	DB	00H
	DB	00H
	DB	00H
	DB	00H
	DB	00H
	DB	00H
	DB	0f3H
	DB	0ffH
	DB	0dH
	DB	00H
	DB	00H
	DB	00H
	DB	00H
	DB	00H
	DB	00H
	DB	0f3H
	DB	0ffH
	DB	0cH
	DB	00H
	DB	00H
	DB	00H
	DB	00H
	DB	00H
	DB	00H
	DB	0f3H
	DB	0ffH
	DB	0bH
	DB	072H
	DB	077H
	DB	074H
	DB	057H
	DB	077H
	DB	074H
	DB	075H
	DB	077H
	DB	05H
	DB	0f2H
	DB	0ffH
	DB	0f9H
	DB	0aeH
	DB	0ffH
	DB	0f9H
	DB	0faH
	DB	0ffH
	DB	08H
	DB	0a0H
	DB	0ffH
	DB	0f9H
	DB	0aeH
	DB	0ffH
	DB	0f9H
	DB	0faH
	DB	0efH
	DB	02H
	DB	00H
	DB	094H
	DB	0e7H
	DB	0aeH
	DB	0ffH
	DB	0f9H
	DB	0a9H
	DB	016H
	DB	00H
	DB	00H
	DB	0b5H
	DB	01eH
	DB	00H
	DB	00H
	DB	00H
	DB	0b0H
	DB	06bH
	DB	00H
	DB	060H
	DB	0ffH
	DB	01fH
	DB	00H
	DB	00H
	DB	00H
	DB	0b0H
	DB	0ffH
	DB	09H
	DB	0c0H
	DB	0ffH
	DB	01fH
	DB	00H
	DB	00H
	DB	00H
	DB	0b0H
	DB	0ffH
	DB	0eH
	DB	080H
	DB	088H
	DB	08H
	DB	00H
	DB	00H
	DB	00H
	DB	060H
	DB	088H
	DB	018H
	DB	0f0H
	DB	0ffH
	DB	01fH
	DB	00H
	DB	00H
	DB	00H
	DB	0b0H
	DB	0ffH
	DB	03fH
	DB	0f0H
	DB	0ffH
	DB	01fH
	DB	00H
	DB	00H
	DB	00H
	DB	0b0H
	DB	0ffH
	DB	04fH
	DB	0f1H
	DB	0ffH
	DB	01fH
	DB	00H
	DB	00H
	DB	00H
	DB	0b0H
	DB	0ffH
	DB	04fH
	DB	0f1H
	DB	0ffH
	DB	01fH
	DB	00H
	DB	00H
	DB	00H
	DB	0b0H
	DB	0ffH
	DB	05fH
	DB	0f1H
	DB	0ffH
	DB	01fH
	DB	00H
	DB	00H
	DB	00H
	DB	0b0H
	DB	0ffH
	DB	05fH
	DB	0f2H
	DB	0ffH
	DB	01fH
	DB	00H
	DB	00H
	DB	00H
	DB	0b0H
	DB	0ffH
	DB	05fH
	DB	050H
	DB	077H
	DB	047H
	DB	047H
	DB	077H
	DB	074H
	DB	036H
	DB	077H
	DB	027H
	DB	010H
	DB	0faH
	DB	09fH
	DB	09fH
	DB	0ffH
	DB	0f8H
	DB	07dH
	DB	0f8H
	DB	05fH
	DB	00H
	DB	060H
	DB	09eH
	DB	09fH
	DB	0ffH
	DB	0f8H
	DB	0cdH
	DB	07eH
	DB	05cH
	DB	00H
	DB	00H
	DB	092H
	DB	09fH
	DB	0ffH
	DB	0f8H
	DB	0cdH
	DB	0ffH
	DB	029H
	DB	00H
	DB	00H
	DB	00H
	DB	00H
	DB	00H
	DB	00H
	DB	010H
	DB	022H
	DB	012H
	DB	00H
	DB	00H
	DB	00H
	DB	00H
	DB	00H
	DB	00H
	DB	0c0H
	DB	0ffH
	DB	05fH
	DB	00H
	DB	00H
	DB	00H
	DB	00H
	DB	00H
	DB	00H
	DB	0c0H
	DB	0ffH
	DB	05fH
	DB	00H
	DB	00H
	DB	00H
	DB	00H
	DB	00H
	DB	00H
	DB	0c0H
	DB	0ffH
	DB	04fH
	DB	00H
	DB	00H
	DB	00H
	DB	00H
	DB	00H
	DB	00H
	DB	0c0H
	DB	0ffH
	DB	04fH
	DB	00H
	DB	00H
	DB	00H
	DB	00H
	DB	00H
	DB	00H
	DB	0c0H
	DB	0ffH
	DB	04fH
	DB	00H
	DB	00H
	DB	00H
	DB	00H
	DB	00H
	DB	00H
	DB	0c0H
	DB	0ffH
	DB	03fH
	DB	00H
	DB	00H
	DB	00H
	DB	00H
	DB	00H
	DB	00H
	DB	080H
	DB	0bbH
	DB	0bH
	DB	00H
	DB	00H
	DB	00H
	DB	00H
	DB	00H
	DB	00H
	DB	0c0H
	DB	0ffH
	DB	0dH
	DB	00H
	DB	00H
	DB	00H
	DB	00H
	DB	00H
	DB	00H
	DB	0c0H
	DB	0dfH
	DB	04H
	DB	00H
	DB	00H
	DB	00H
	DB	00H
	DB	00H
	DB	00H
	DB	060H
	DB	04H
	DB	00H
	DB	020H
	DB	0d9H
	DB	0e9H
	DB	0eaH
	DB	0efH
	DB	0eaH
	DB	0a8H
	DB	05H
	DB	00H
	DB	0e1H
	DB	0ffH
	DB	0f9H
	DB	0ebH
	DB	0efH
	DB	0faH
	DB	0f9H
	DB	0cfH
	DB	00H
	DB	0f6H
	DB	0ffH
	DB	0f9H
	DB	0ebH
	DB	0efH
	DB	0faH
	DB	0f9H
	DB	0ffH
	DB	04H
	DB	074H
	DB	077H
	DB	074H
	DB	065H
	DB	067H
	DB	075H
	DB	074H
	DB	077H
	DB	03H
	DB	0f9H
	DB	0ffH
	DB	06H
	DB	00H
	DB	00H
	DB	00H
	DB	00H
	DB	00H
	DB	00H
	DB	0faH
	DB	0ffH
	DB	06H
	DB	00H
	DB	00H
	DB	00H
	DB	00H
	DB	00H
	DB	00H
	DB	0faH
	DB	0ffH
	DB	06H
	DB	00H
	DB	00H
	DB	00H
	DB	00H
	DB	00H
	DB	00H
	DB	0faH
	DB	0ffH
	DB	06H
	DB	00H
	DB	00H
	DB	00H
	DB	00H
	DB	00H
	DB	00H
	DB	0fbH
	DB	0ffH
	DB	06H
	DB	00H
	DB	00H
	DB	00H
	DB	00H
	DB	00H
	DB	00H
	DB	0fbH
	DB	0ffH
	DB	06H
	DB	00H
	DB	00H
	DB	00H
	DB	00H
	DB	00H
	DB	00H
	DB	043H
	DB	044H
	DB	02H
	DB	00H
	DB	00H
	DB	00H
	DB	00H
	DB	00H
	DB	00H
	DB	0c4H
	DB	0ffH
	DB	0faH
	DB	0eaH
	DB	0efH
	DB	0faH
	DB	05H
	DB	00H
	DB	00H
	DB	08bH
	DB	0f9H
	DB	0faH
	DB	0eaH
	DB	0efH
	DB	0faH
	DB	0c9H
	DB	02H
	DB	00H
	DB	0fbH
	DB	07cH
	DB	0f8H
	DB	0eaH
	DB	0efH
	DB	0faH
	DB	0f9H
	DB	06eH
	DB	00H
	DB	075H
	DB	077H
	DB	072H
	DB	065H
	DB	067H
	DB	075H
	DB	095H
	DB	099H
	DB	04H
	DB	00H
	DB	00H
	DB	00H
	DB	00H
	DB	00H
	DB	00H
	DB	0f6H
	DB	0ffH
	DB	0bH
	DB	00H
	DB	00H
	DB	00H
	DB	00H
	DB	00H
	DB	00H
	DB	0f6H
	DB	0ffH
	DB	0bH
	DB	00H
	DB	00H
	DB	00H
	DB	00H
	DB	00H
	DB	00H
	DB	0f6H
	DB	0ffH
	DB	0aH
	DB	00H
	DB	00H
	DB	00H
	DB	00H
	DB	00H
	DB	00H
	DB	0f6H
	DB	0ffH
	DB	0aH
	DB	00H
	DB	00H
	DB	00H
	DB	00H
	DB	00H
	DB	00H
	DB	0f6H
	DB	0ffH
	DB	09H
	DB	00H
	DB	00H
	DB	00H
	DB	00H
	DB	00H
	DB	00H
	DB	0f6H
	DB	0ffH
	DB	09H
	DB	074H
	DB	077H
	DB	074H
	DB	065H
	DB	067H
	DB	075H
	DB	074H
	DB	077H
	DB	03H
	DB	0f6H
	DB	0ffH
	DB	0f9H
	DB	0dbH
	DB	0efH
	DB	0faH
	DB	0faH
	DB	0ffH
	DB	04H
	DB	0d1H
	DB	0ffH
	DB	0f9H
	DB	0dbH
	DB	0efH
	DB	0faH
	DB	0faH
	DB	0cfH
	DB	00H
	DB	00H
	DB	0a5H
	DB	0e7H
	DB	0daH
	DB	0efH
	DB	0eaH
	DB	0a8H
	DB	05H
	DB	00H
	DB	010H
	DB	0d8H
	DB	0e8H
	DB	0dbH
	DB	0ffH
	DB	0e9H
	DB	0a7H
	DB	06H
	DB	00H
	DB	0e1H
	DB	0ffH
	DB	0f9H
	DB	0dbH
	DB	0ffH
	DB	0f9H
	DB	0f9H
	DB	0cfH
	DB	00H
	DB	0f5H
	DB	0ffH
	DB	0f9H
	DB	0dbH
	DB	0ffH
	DB	0f9H
	DB	0f9H
	DB	0ffH
	DB	05H
	DB	073H
	DB	077H
	DB	074H
	DB	065H
	DB	077H
	DB	074H
	DB	074H
	DB	077H
	DB	04H
	DB	0f8H
	DB	0ffH
	DB	07H
	DB	00H
	DB	00H
	DB	00H
	DB	00H
	DB	00H
	DB	00H
	DB	0f9H
	DB	0ffH
	DB	07H
	DB	00H
	DB	00H
	DB	00H
	DB	00H
	DB	00H
	DB	00H
	DB	0f9H
	DB	0ffH
	DB	07H
	DB	00H
	DB	00H
	DB	00H
	DB	00H
	DB	00H
	DB	00H
	DB	0faH
	DB	0ffH
	DB	07H
	DB	00H
	DB	00H
	DB	00H
	DB	00H
	DB	00H
	DB	00H
	DB	0faH
	DB	0ffH
	DB	07H
	DB	00H
	DB	00H
	DB	00H
	DB	00H
	DB	00H
	DB	00H
	DB	0faH
	DB	0ffH
	DB	07H
	DB	00H
	DB	00H
	DB	00H
	DB	00H
	DB	00H
	DB	00H
	DB	043H
	DB	044H
	DB	02H
	DB	00H
	DB	00H
	DB	00H
	DB	00H
	DB	00H
	DB	00H
	DB	0c4H
	DB	0ffH
	DB	0f9H
	DB	0dbH
	DB	0ffH
	DB	0f9H
	DB	05H
	DB	00H
	DB	00H
	DB	09aH
	DB	0f9H
	DB	0f9H
	DB	0dbH
	DB	0ffH
	DB	0f9H
	DB	0c9H
	DB	02H
	DB	00H
	DB	0faH
	DB	07dH
	DB	0f8H
	DB	0dbH
	DB	0ffH
	DB	0f9H
	DB	0f9H
	DB	06eH
	DB	00H
	DB	096H
	DB	099H
	DB	073H
	DB	065H
	DB	077H
	DB	074H
	DB	095H
	DB	099H
	DB	04H
	DB	0faH
	DB	0ffH
	DB	06H
	DB	00H
	DB	00H
	DB	00H
	DB	0f5H
	DB	0ffH
	DB	0bH
	DB	0faH
	DB	0ffH
	DB	06H
	DB	00H
	DB	00H
	DB	00H
	DB	0f5H
	DB	0ffH
	DB	0bH
	DB	0f9H
	DB	0ffH
	DB	06H
	DB	00H
	DB	00H
	DB	00H
	DB	0f5H
	DB	0ffH
	DB	0bH
	DB	0f9H
	DB	0ffH
	DB	06H
	DB	00H
	DB	00H
	DB	00H
	DB	0f5H
	DB	0ffH
	DB	0aH
	DB	0f8H
	DB	0ffH
	DB	06H
	DB	00H
	DB	00H
	DB	00H
	DB	0f5H
	DB	0ffH
	DB	0aH
	DB	0f8H
	DB	0ffH
	DB	06H
	DB	00H
	DB	00H
	DB	00H
	DB	0f5H
	DB	0ffH
	DB	09H
	DB	073H
	DB	077H
	DB	074H
	DB	065H
	DB	077H
	DB	074H
	DB	074H
	DB	077H
	DB	04H
	DB	0f5H
	DB	0ffH
	DB	0f8H
	DB	0dcH
	DB	0ffH
	DB	0f9H
	DB	0faH
	DB	0ffH
	DB	05H
	DB	0c0H
	DB	0ffH
	DB	0f8H
	DB	0dcH
	DB	0ffH
	DB	0f9H
	DB	0faH
	DB	0dfH
	DB	01H
	DB	00H
	DB	0a5H
	DB	0e7H
	DB	0dbH
	DB	0ffH
	DB	0e9H
	DB	0a8H
	DB	05H
	DB	00H
	DB	030H
	DB	0eaH
	DB	0e8H
	DB	0f9H
	DB	0bfH
	DB	0dcH
	DB	087H
	DB	03H
	DB	00H
	DB	0f3H
	DB	0ffH
	DB	0f9H
	DB	0f9H
	DB	0bfH
	DB	0fdH
	DB	0f9H
	DB	09fH
	DB	00H
	DB	0f8H
	DB	0ffH
	DB	0f9H
	DB	0f9H
	DB	0bfH
	DB	0fdH
	DB	0f9H
	DB	0ffH
	DB	02H
	DB	085H
	DB	088H
	DB	085H
	DB	084H
	DB	058H
	DB	086H
	DB	085H
	DB	088H
	DB	02H
	DB	00H
	DB	00H
	DB	00H
	DB	00H
	DB	00H
	DB	00H
	DB	0f8H
	DB	0ffH
	DB	06H
	DB	00H
	DB	00H
	DB	00H
	DB	00H
	DB	00H
	DB	00H
	DB	0f8H
	DB	0ffH
	DB	06H
	DB	00H
	DB	00H
	DB	00H
	DB	00H
	DB	00H
	DB	00H
	DB	0f8H
	DB	0ffH
	DB	07H
	DB	00H
	DB	00H
	DB	00H
	DB	00H
	DB	00H
	DB	00H
	DB	0f8H
	DB	0ffH
	DB	07H
	DB	00H
	DB	00H
	DB	00H
	DB	00H
	DB	00H
	DB	00H
	DB	0f8H
	DB	0ffH
	DB	07H
	DB	00H
	DB	00H
	DB	00H
	DB	00H
	DB	00H
	DB	00H
	DB	0f8H
	DB	0ffH
	DB	08H
	DB	00H
	DB	00H
	DB	00H
	DB	00H
	DB	00H
	DB	00H
	DB	042H
	DB	044H
	DB	02H
	DB	00H
	DB	00H
	DB	00H
	DB	00H
	DB	00H
	DB	00H
	DB	0b3H
	DB	0ffH
	DB	08H
	DB	00H
	DB	00H
	DB	00H
	DB	00H
	DB	00H
	DB	00H
	DB	0a8H
	DB	0f8H
	DB	08H
	DB	00H
	DB	00H
	DB	00H
	DB	00H
	DB	00H
	DB	00H
	DB	0f8H
	DB	07dH
	DB	06H
	DB	00H
	DB	00H
	DB	00H
	DB	00H
	DB	00H
	DB	00H
	DB	095H
	DB	099H
	DB	02H
	DB	00H
	DB	00H
	DB	00H
	DB	00H
	DB	00H
	DB	00H
	DB	0f8H
	DB	0ffH
	DB	08H
	DB	00H
	DB	00H
	DB	00H
	DB	00H
	DB	00H
	DB	00H
	DB	0f8H
	DB	0ffH
	DB	07H
	DB	00H
	DB	00H
	DB	00H
	DB	00H
	DB	00H
	DB	00H
	DB	0f8H
	DB	0ffH
	DB	07H
	DB	00H
	DB	00H
	DB	00H
	DB	00H
	DB	00H
	DB	00H
	DB	0f8H
	DB	0ffH
	DB	07H
	DB	00H
	DB	00H
	DB	00H
	DB	00H
	DB	00H
	DB	00H
	DB	0f8H
	DB	0ffH
	DB	06H
	DB	00H
	DB	00H
	DB	00H
	DB	00H
	DB	00H
	DB	00H
	DB	0f8H
	DB	0ffH
	DB	06H
	DB	00H
	DB	00H
	DB	00H
	DB	00H
	DB	00H
	DB	00H
	DB	084H
	DB	088H
	DB	02H
	DB	00H
	DB	00H
	DB	00H
	DB	00H
	DB	00H
	DB	00H
	DB	0f8H
	DB	0ffH
	DB	01H
	DB	00H
	DB	00H
	DB	00H
	DB	00H
	DB	00H
	DB	00H
	DB	0f8H
	DB	09fH
	DB	00H
	DB	00H
	DB	00H
	DB	00H
	DB	00H
	DB	00H
	DB	00H
	DB	097H
	DB	03H
	DB	00H
	DB	010H
	DB	0d8H
	DB	0e9H
	DB	0dbH
	DB	0ffH
	DB	0e9H
	DB	0a7H
	DB	06H
	DB	00H
	DB	0e1H
	DB	0ffH
	DB	0f9H
	DB	0dbH
	DB	0ffH
	DB	0f9H
	DB	0f9H
	DB	0cfH
	DB	00H
	DB	0f5H
	DB	0ffH
	DB	0f9H
	DB	0dbH
	DB	0ffH
	DB	0f9H
	DB	0f9H
	DB	0ffH
	DB	05H
	DB	073H
	DB	077H
	DB	074H
	DB	065H
	DB	077H
	DB	074H
	DB	074H
	DB	077H
	DB	04H
	DB	0f8H
	DB	0ffH
	DB	07H
	DB	00H
	DB	00H
	DB	00H
	DB	0f5H
	DB	0ffH
	DB	09H
	DB	0f9H
	DB	0ffH
	DB	07H
	DB	00H
	DB	00H
	DB	00H
	DB	0f5H
	DB	0ffH
	DB	0aH
	DB	0f9H
	DB	0ffH
	DB	07H
	DB	00H
	DB	00H
	DB	00H
	DB	0f5H
	DB	0ffH
	DB	0bH
	DB	0faH
	DB	0ffH
	DB	07H
	DB	00H
	DB	00H
	DB	00H
	DB	0f5H
	DB	0ffH
	DB	0bH
	DB	0faH
	DB	0ffH
	DB	07H
	DB	00H
	DB	00H
	DB	00H
	DB	0f5H
	DB	0ffH
	DB	0bH
	DB	0faH
	DB	0ffH
	DB	07H
	DB	00H
	DB	00H
	DB	00H
	DB	0f5H
	DB	0ffH
	DB	0bH
	DB	043H
	DB	044H
	DB	02H
	DB	00H
	DB	00H
	DB	00H
	DB	041H
	DB	044H
	DB	03H
	DB	0c2H
	DB	0ffH
	DB	0faH
	DB	0dbH
	DB	0ffH
	DB	0f9H
	DB	05H
	DB	00H
	DB	00H
	DB	00H
	DB	0f8H
	DB	0faH
	DB	0dbH
	DB	0ffH
	DB	0f9H
	DB	0c9H
	DB	02H
	DB	00H
	DB	00H
	DB	040H
	DB	0f8H
	DB	0dbH
	DB	0ffH
	DB	0f9H
	DB	0f9H
	DB	06eH
	DB	00H
	DB	021H
	DB	022H
	DB	072H
	DB	065H
	DB	077H
	DB	074H
	DB	095H
	DB	099H
	DB	04H
	DB	0faH
	DB	0ffH
	DB	07H
	DB	00H
	DB	00H
	DB	00H
	DB	0f5H
	DB	0ffH
	DB	0bH
	DB	0faH
	DB	0ffH
	DB	07H
	DB	00H
	DB	00H
	DB	00H
	DB	0f5H
	DB	0ffH
	DB	0bH
	DB	0f9H
	DB	0ffH
	DB	07H
	DB	00H
	DB	00H
	DB	00H
	DB	0f5H
	DB	0ffH
	DB	0bH
	DB	0f9H
	DB	0ffH
	DB	07H
	DB	00H
	DB	00H
	DB	00H
	DB	0f5H
	DB	0ffH
	DB	0aH
	DB	0f9H
	DB	0ffH
	DB	07H
	DB	00H
	DB	00H
	DB	00H
	DB	0f5H
	DB	0ffH
	DB	0aH
	DB	0f8H
	DB	0ffH
	DB	07H
	DB	00H
	DB	00H
	DB	00H
	DB	0f5H
	DB	0ffH
	DB	09H
	DB	073H
	DB	077H
	DB	074H
	DB	065H
	DB	077H
	DB	074H
	DB	074H
	DB	077H
	DB	04H
	DB	0f5H
	DB	0ffH
	DB	0f8H
	DB	0dcH
	DB	0ffH
	DB	0f9H
	DB	0faH
	DB	0ffH
	DB	05H
	DB	0c0H
	DB	0ffH
	DB	0f8H
	DB	0dcH
	DB	0ffH
	DB	0f9H
	DB	0faH
	DB	0dfH
	DB	01H
	DB	00H
	DB	0a5H
	DB	0e7H
	DB	0dbH
	DB	0ffH
	DB	0e9H
	DB	0a8H
	DB	06H
	DB	00H
	DB	020H
	DB	0eaH
	DB	0e8H
	DB	0f9H
	DB	0bfH
	DB	0dcH
	DB	097H
	DB	04H
	DB	00H
	DB	0f3H
	DB	0ffH
	DB	0f9H
	DB	0f9H
	DB	0bfH
	DB	0fdH
	DB	0f9H
	DB	09fH
	DB	00H
	DB	0f8H
	DB	0ffH
	DB	0f9H
	DB	0f9H
	DB	0bfH
	DB	0fdH
	DB	0f9H
	DB	0ffH
	DB	02H
	DB	075H
	DB	077H
	DB	074H
	DB	074H
	DB	057H
	DB	076H
	DB	074H
	DB	077H
	DB	02H
	DB	0fcH
	DB	0ffH
	DB	04H
	DB	00H
	DB	00H
	DB	00H
	DB	0f8H
	DB	0ffH
	DB	06H
	DB	0fcH
	DB	0ffH
	DB	04H
	DB	00H
	DB	00H
	DB	00H
	DB	0f8H
	DB	0ffH
	DB	07H
	DB	0fcH
	DB	0ffH
	DB	04H
	DB	00H
	DB	00H
	DB	00H
	DB	0f8H
	DB	0ffH
	DB	07H
	DB	0fdH
	DB	0ffH
	DB	04H
	DB	00H
	DB	00H
	DB	00H
	DB	0f8H
	DB	0ffH
	DB	08H
	DB	0fdH
	DB	0ffH
	DB	04H
	DB	00H
	DB	00H
	DB	00H
	DB	0f8H
	DB	0ffH
	DB	08H
	DB	0feH
	DB	0ffH
	DB	04H
	DB	00H
	DB	00H
	DB	00H
	DB	0f8H
	DB	0ffH
	DB	08H
	DB	044H
	DB	044H
	DB	01H
	DB	00H
	DB	00H
	DB	00H
	DB	042H
	DB	044H
	DB	02H
	DB	0e4H
	DB	0ffH
	DB	0faH
	DB	0f9H
	DB	0cfH
	DB	0fcH
	DB	0b4H
	DB	0ffH
	DB	08H
	DB	010H
	DB	0fbH
	DB	0faH
	DB	0f9H
	DB	0cfH
	DB	0fcH
	DB	0a9H
	DB	0f8H
	DB	08H
	DB	00H
	DB	060H
	DB	0f9H
	DB	0f9H
	DB	0cfH
	DB	0fcH
	DB	0f9H
	DB	07dH
	DB	06H
	DB	00H
	DB	00H
	DB	073H
	DB	074H
	DB	057H
	DB	076H
	DB	095H
	DB	099H
	DB	03H
	DB	00H
	DB	00H
	DB	00H
	DB	00H
	DB	00H
	DB	00H
	DB	0f8H
	DB	0ffH
	DB	08H
	DB	00H
	DB	00H
	DB	00H
	DB	00H
	DB	00H
	DB	00H
	DB	0f8H
	DB	0ffH
	DB	08H
	DB	00H
	DB	00H
	DB	00H
	DB	00H
	DB	00H
	DB	00H
	DB	0f8H
	DB	0ffH
	DB	08H
	DB	00H
	DB	00H
	DB	00H
	DB	00H
	DB	00H
	DB	00H
	DB	0f8H
	DB	0ffH
	DB	07H
	DB	00H
	DB	00H
	DB	00H
	DB	00H
	DB	00H
	DB	00H
	DB	0f8H
	DB	0ffH
	DB	07H
	DB	00H
	DB	00H
	DB	00H
	DB	00H
	DB	00H
	DB	00H
	DB	0f8H
	DB	0ffH
	DB	06H
	DB	075H
	DB	077H
	DB	074H
	DB	074H
	DB	057H
	DB	076H
	DB	074H
	DB	077H
	DB	02H
	DB	0f8H
	DB	0ffH
	DB	0f9H
	DB	0f9H
	DB	0bfH
	DB	0fcH
	DB	0faH
	DB	0ffH
	DB	02H
	DB	0e2H
	DB	0ffH
	DB	0f9H
	DB	0f9H
	DB	0bfH
	DB	0fcH
	DB	0faH
	DB	0afH
	DB	00H
	DB	010H
	DB	0a6H
	DB	0f8H
	DB	0f9H
	DB	0bfH
	DB	0ecH
	DB	098H
	DB	04H
	DB	00H
	DB	00H
	DB	073H
	DB	074H
	DB	084H
	DB	048H
	DB	057H
	DB	013H
	DB	00H
	DB	00H
	DB	0c2H
	DB	0ffH
	DB	0f9H
	DB	0f9H
	DB	09fH
	DB	0dfH
	DB	0fbH
	DB	02aH
	DB	00H
	DB	0f8H
	DB	0ffH
	DB	0f9H
	DB	0f9H
	DB	09fH
	DB	0dfH
	DB	0fbH
	DB	0cfH
	DB	00H
	DB	0fcH
	DB	0ffH
	DB	0faH
	DB	0f9H
	DB	09fH
	DB	0dfH
	DB	0fbH
	DB	0ffH
	DB	01H
	DB	00H
	DB	00H
	DB	00H
	DB	00H
	DB	00H
	DB	00H
	DB	043H
	DB	044H
	DB	01H
	DB	00H
	DB	00H
	DB	00H
	DB	00H
	DB	00H
	DB	00H
	DB	0fbH
	DB	0ffH
	DB	03H
	DB	00H
	DB	00H
	DB	00H
	DB	00H
	DB	00H
	DB	00H
	DB	0fbH
	DB	0ffH
	DB	04H
	DB	00H
	DB	00H
	DB	00H
	DB	00H
	DB	00H
	DB	00H
	DB	0fbH
	DB	0ffH
	DB	05H
	DB	00H
	DB	00H
	DB	00H
	DB	00H
	DB	00H
	DB	00H
	DB	0fbH
	DB	0ffH
	DB	05H
	DB	00H
	DB	00H
	DB	00H
	DB	00H
	DB	00H
	DB	00H
	DB	0fbH
	DB	0ffH
	DB	05H
	DB	00H
	DB	00H
	DB	00H
	DB	00H
	DB	00H
	DB	00H
	DB	0fbH
	DB	0ffH
	DB	06H
	DB	00H
	DB	00H
	DB	00H
	DB	0f4H
	DB	09fH
	DB	0dfH
	DB	0c5H
	DB	0ffH
	DB	06H
	DB	00H
	DB	00H
	DB	00H
	DB	0f4H
	DB	09fH
	DB	0dfH
	DB	09bH
	DB	0f9H
	DB	06H
	DB	00H
	DB	00H
	DB	00H
	DB	0f4H
	DB	09fH
	DB	0dfH
	DB	0fbH
	DB	07cH
	DB	04H
	DB	00H
	DB	00H
	DB	00H
	DB	072H
	DB	047H
	DB	067H
	DB	075H
	DB	077H
	DB	01H
	DB	00H
	DB	00H
	DB	00H
	DB	0f4H
	DB	09fH
	DB	00H
	DB	00H
	DB	00H
	DB	00H
	DB	00H
	DB	00H
	DB	00H
	DB	0f4H
	DB	09fH
	DB	00H
	DB	00H
	DB	00H
	DB	00H
	DB	00H
	DB	00H
	DB	00H
	DB	0f4H
	DB	09fH
	DB	00H
	DB	00H
	DB	00H
	DB	00H
	DB	00H
	DB	00H
	DB	00H
	DB	092H
	DB	069H
	DB	00H
	DB	00H
	DB	00H
	DB	00H
	DB	00H
	DB	00H
	DB	00H
	DB	00H
	DB	00H
	DB	00H
	DB	00H
	DB	00H
	DB	00H
	DB	00H
	DB	00H
	DB	00H
	DB	00H
	DB	00H
	DB	00H
	DB	00H
	DB	00H
	DB	00H
	DB	00H
	DB	00H
	DB	00H
	DB	00H
	DB	00H
	DB	00H
	DB	00H
	DB	00H
	DB	00H
	DB	00H
	DB	00H
	DB	00H
	DB	00H
	DB	00H
	DB	00H
	DB	00H
	DB	00H
	DB	00H
	DB	00H
	DB	00H
	DB	010H
	DB	088H
	DB	088H
	DB	01H
	DB	00H
	DB	00H
	DB	00H
	DB	00H
	DB	00H
	DB	020H
	DB	0ffH
	DB	0ffH
	DB	03H
	DB	00H
	DB	00H
	DB	00H
	DB	00H
	DB	00H
	DB	020H
	DB	0ffH
	DB	0ffH
	DB	03H
	DB	00H
	DB	00H
	DB	00H
	DB	00H
	DB	00H
	DB	020H
	DB	0ffH
	DB	0ffH
	DB	04H
	DB	00H
	DB	00H
	DB	00H
	DB	00H
	DB	00H
	DB	020H
	DB	0ffH
	DB	0ffH
	DB	04H
	DB	00H
	DB	00H
	DB	00H
CONST	ENDS
PUBLIC	__JustMyCode_Default
; Function compile flags: /Odt
;	COMDAT __JustMyCode_Default
_TEXT	SEGMENT
__JustMyCode_Default PROC				; COMDAT
	push	ebp
	mov	ebp, esp
	pop	ebp
	ret	0
__JustMyCode_Default ENDP
_TEXT	ENDS
END
