; Listing generated by Microsoft (R) Optimizing Compiler Version 19.22.27905.0 

	TITLE	C:\TouchGFXProjects\Dashboard\TouchGFX\generated\simulator\src\mainBase.cpp
	.686P
	.XMM
	include listing.inc
	.model	flat

INCLUDELIB MSVCRTD
INCLUDELIB OLDNAMES

msvcjmc	SEGMENT
__285B227C_Types@hpp DB 01H
__D259EDA1_Event@hpp DB 01H
__ACC941B3_ClickEvent@hpp DB 01H
__5BA6F82F_DragEvent@hpp DB 01H
__39F3AA84_GestureEvent@hpp DB 01H
__D1176A33_UIEventListener@hpp DB 01H
__420ED2F8_Gestures@hpp DB 01H
__941D13D0_ctype@h DB 01H
__DF6784BA_basetsd@h DB 01H
__82CA083D_corecrt_memcpy_s@h DB 01H
__F8BB3D43_corecrt_memory@h DB 01H
__61E6ED1F_corecrt_wstring@h DB 01H
__B0CBCB7B_string@h DB 01H
__73E5A5AE_guiddef@h DB 01H
__20E88E2C_winnt@h DB 01H
__B0708975_processthreadsapi@h DB 01H
__14D8E0CB_memoryapi@h DB 01H
__0A5E6AC9_winerror@h DB 01H
__95229982_winbase@h DB 01H
__FDCAD2F5_winuser@h DB 01H
__253F0A20_winioctl@h DB 01H
__36B85FDF_stdlib@h DB 01H
__CA946E7A_propidl@h DB 01H
__4B69DDF6_oleauto@h DB 01H
__7F05D861_stralign@h DB 01H
__01469F3E_Atomic@hpp DB 01H
__26996C6E_DMA@hpp DB 01H
__23AD7809_corecrt_stdio_config@h DB 01H
__DD74D44A_corecrt_wstdio@h DB 01H
__4B3541EE_stdio@h DB 01H
__CFC461D7_vcruntime_new@h DB 01H
__992811F5_Bitmap@hpp DB 01H
__CC754146_FrameBufferAllocator@hpp DB 01H
__FB4E853A_Unicode@hpp DB 01H
__3A8A7BA5_Font@hpp DB 01H
__E868CDAE_LCD@hpp DB 01H
__6B31F3FF_Transition@hpp DB 01H
__7F9B9F4C_Application@hpp DB 01H
__FC82A53F_Callback@hpp DB 01H
__9564A8AC_Drawable@hpp DB 01H
__AF057B55_TouchController@hpp DB 01H
__DBC0CB9D_ButtonController@hpp DB 01H
__BA0AA7A1_MCUInstrumentation@hpp DB 01H
__6E6B02D0_HAL@hpp DB 01H
__B613E981_SDL_stdinc@h DB 01H
__D641386C_SDL_rect@h DB 01H
__D9A080BA_HALSDL2@hpp DB 01H
__8DB28DB8_Texts@hpp DB 01H
__FB4ADB3D_TypedText@hpp DB 01H
__1DAFD7EA_FontManager@hpp DB 01H
__F6B240EA_AbstractPartition@hpp DB 01H
__CA8982F3_MVPHeap@hpp DB 01H
__DE8BA97C_NoTransition@hpp DB 01H
__C1C573B9_Container@hpp DB 01H
__E86134F6_JSMOCHelper@hpp DB 01H
__75AB5DA8_Screen@hpp DB 01H
__3968E3E9_Presenter@hpp DB 01H
__E410F33D_corecrt_math@h DB 01H
__689BD87C_cstdlib DB 01H
__72E614B1_type_traits DB 01H
__A2957829_malloc@h DB 01H
__85DDF3E7_vcruntime_exception@h DB 01H
__0F8E31A9_exception DB 01H
__D7F74BC3_MVPApplication@hpp DB 01H
__ABD7911A_Model@hpp DB 01H
__6D48DE34_FrontendApplicationBase@hpp DB 01H
__B4ED44FD_FrontendApplication@hpp DB 01H
__FE8EEB5D_ModelListener@hpp DB 01H
__D6BF113D_IntroPresenter@hpp DB 01H
__2EA4ADC8_Widget@hpp DB 01H
__19D95507_Box@hpp DB 01H
__F06C775E_Image@hpp DB 01H
__49A5BBB4_ScalableImage@hpp DB 01H
__7F4A9881_EasingEquations@hpp DB 01H
__6D526EC3_IntroViewBase@hpp DB 01H
__1B61E63B_IntroView@hpp DB 01H
__F6B8DC22_DashboardPresenter@hpp DB 01H
__4EA1B089_TextArea@hpp DB 01H
__F5F6B1E1_Cell@hpp DB 01H
__D655DB2F_Outline@hpp DB 01H
__C5184466_RenderingBuffer@hpp DB 01H
__3FCB8939_Scanline@hpp DB 01H
__CEBFF865_AbstractPainter@hpp DB 01H
__EA6FB648_Renderer@hpp DB 01H
__8B08D7A3_Rasterizer@hpp DB 01H
__E36A05A6_CWRUtil@hpp DB 01H
__B8EECA89_CanvasWidget@hpp DB 01H
__305CC9EC_Circle@hpp DB 01H
__5C4ADF50_AbstractPainterRGB565@hpp DB 01H
__68D58B11_CircleProgress@hpp DB 01H
__FF071B51_AbstractPainterRGB888@hpp DB 01H
__37A1F672_TextAreaWithWildcard@hpp DB 01H
__794564F3_Line@hpp DB 01H
__C4BF596D_DashboardViewBase@hpp DB 01H
__7ED795CE_DashboardView@hpp DB 01H
__3E3A45CB_FrontendHeapBase@hpp DB 01H
__88A324B6_FrontendHeap@hpp DB 01H
__B0AA84D8_TouchGFXInit@hpp DB 01H
__332E3959_mainBase@cpp DB 01H
__84191BE6_Partition@hpp DB 01H
__0DE6AEFF_FadeAnimator@hpp DB 01H
msvcjmc	ENDS
PUBLIC	?setupSimulator@@YAXHPAPADAAVHAL@touchgfx@@@Z	; setupSimulator
PUBLIC	??1FontProvider@touchgfx@@UAE@XZ		; touchgfx::FontProvider::~FontProvider
PUBLIC	??0FontProvider@touchgfx@@QAE@XZ		; touchgfx::FontProvider::FontProvider
PUBLIC	??_GFontProvider@touchgfx@@UAEPAXI@Z		; touchgfx::FontProvider::`scalar deleting destructor'
PUBLIC	??0ApplicationFontProvider@@QAE@XZ		; ApplicationFontProvider::ApplicationFontProvider
PUBLIC	??1ApplicationFontProvider@@UAE@XZ		; ApplicationFontProvider::~ApplicationFontProvider
PUBLIC	??_GApplicationFontProvider@@UAEPAXI@Z		; ApplicationFontProvider::`scalar deleting destructor'
PUBLIC	__JustMyCode_Default
PUBLIC	??_7FontProvider@touchgfx@@6B@			; touchgfx::FontProvider::`vftable'
PUBLIC	??_7ApplicationFontProvider@@6B@		; ApplicationFontProvider::`vftable'
PUBLIC	?__LINE__Var@?0??setupSimulator@@YAXHPAPADAAVHAL@touchgfx@@@Z@4JA ; `setupSimulator'::`1'::__LINE__Var
PUBLIC	??_C@_09NBJKPNHD@Dashboard@			; `string'
PUBLIC	??_C@_0CA@FKHOGPGG@Error?5during?5SDL?5initialization@ ; `string'
PUBLIC	??_C@_1JI@OCDGKHDP@?$AAC?$AA?3?$AA?2?$AAT?$AAo?$AAu?$AAc?$AAh?$AAG?$AAF?$AAX?$AAP?$AAr?$AAo?$AAj@ ; `string'
PUBLIC	??_C@_1GK@NBNELHAM@?$AAs?$AAd?$AAl?$AA_?$AAi?$AAn?$AAi?$AAt?$AA_?$AAr?$AAe?$AAs?$AAu?$AAl?$AAt@ ; `string'
PUBLIC	??_R4FontProvider@touchgfx@@6B@			; touchgfx::FontProvider::`RTTI Complete Object Locator'
PUBLIC	??_R0?AVFontProvider@touchgfx@@@8		; touchgfx::FontProvider `RTTI Type Descriptor'
PUBLIC	??_R3FontProvider@touchgfx@@8			; touchgfx::FontProvider::`RTTI Class Hierarchy Descriptor'
PUBLIC	??_R2FontProvider@touchgfx@@8			; touchgfx::FontProvider::`RTTI Base Class Array'
PUBLIC	??_R1A@?0A@EA@FontProvider@touchgfx@@8		; touchgfx::FontProvider::`RTTI Base Class Descriptor at (0,-1,0,64)'
PUBLIC	??_R4ApplicationFontProvider@@6B@		; ApplicationFontProvider::`RTTI Complete Object Locator'
PUBLIC	??_R0?AVApplicationFontProvider@@@8		; ApplicationFontProvider `RTTI Type Descriptor'
PUBLIC	??_R3ApplicationFontProvider@@8			; ApplicationFontProvider::`RTTI Class Hierarchy Descriptor'
PUBLIC	??_R2ApplicationFontProvider@@8			; ApplicationFontProvider::`RTTI Base Class Array'
PUBLIC	??_R1A@?0A@EA@ApplicationFontProvider@@8	; ApplicationFontProvider::`RTTI Base Class Descriptor at (0,-1,0,64)'
PUBLIC	__real@41855567
EXTRN	__purecall:PROC
EXTRN	??3@YAXPAXI@Z:PROC				; operator delete
EXTRN	_atexit:PROC
EXTRN	__imp___wassert:PROC
EXTRN	?setVsyncInterval@HALSDL2@touchgfx@@QAEXM@Z:PROC ; touchgfx::HALSDL2::setVsyncInterval
EXTRN	?setWindowTitle@HALSDL2@touchgfx@@QAEXPBD@Z:PROC ; touchgfx::HALSDL2::setWindowTitle
EXTRN	??_EFontProvider@touchgfx@@UAEPAXI@Z:PROC	; touchgfx::FontProvider::`vector deleting destructor'
EXTRN	?getFont@ApplicationFontProvider@@UAEPAVFont@touchgfx@@G@Z:PROC ; ApplicationFontProvider::getFont
EXTRN	??_EApplicationFontProvider@@UAEPAXI@Z:PROC	; ApplicationFontProvider::`vector deleting destructor'
EXTRN	@__CheckForDebuggerJustMyCode@4:PROC
EXTRN	@__security_check_cookie@4:PROC
EXTRN	__RTC_CheckEsp:PROC
EXTRN	__RTC_InitBase:PROC
EXTRN	__RTC_Shutdown:PROC
EXTRN	___CxxFrameHandler3:PROC
EXTRN	??_7type_info@@6B@:QWORD			; type_info::`vftable'
EXTRN	___security_cookie:DWORD
EXTRN	__fltused:DWORD
_BSS	SEGMENT
?fontProvider@@3VApplicationFontProvider@@A DD 01H DUP (?) ; fontProvider
_BSS	ENDS
CRT$XCU	SEGMENT
?fontProvider$initializer$@@3P6AXXZA DD FLAT:??__EfontProvider@@YAXXZ ; fontProvider$initializer$
CRT$XCU	ENDS
;	COMDAT __real@41855567
CONST	SEGMENT
__real@41855567 DD 041855567r			; 16.6667
CONST	ENDS
;	COMDAT rtc$TMZ
rtc$TMZ	SEGMENT
__RTC_Shutdown.rtc$TMZ DD FLAT:__RTC_Shutdown
rtc$TMZ	ENDS
;	COMDAT rtc$IMZ
rtc$IMZ	SEGMENT
__RTC_InitBase.rtc$IMZ DD FLAT:__RTC_InitBase
rtc$IMZ	ENDS
;	COMDAT ??_R1A@?0A@EA@ApplicationFontProvider@@8
rdata$r	SEGMENT
??_R1A@?0A@EA@ApplicationFontProvider@@8 DD FLAT:??_R0?AVApplicationFontProvider@@@8 ; ApplicationFontProvider::`RTTI Base Class Descriptor at (0,-1,0,64)'
	DD	01H
	DD	00H
	DD	0ffffffffH
	DD	00H
	DD	040H
	DD	FLAT:??_R3ApplicationFontProvider@@8
rdata$r	ENDS
;	COMDAT ??_R2ApplicationFontProvider@@8
rdata$r	SEGMENT
??_R2ApplicationFontProvider@@8 DD FLAT:??_R1A@?0A@EA@ApplicationFontProvider@@8 ; ApplicationFontProvider::`RTTI Base Class Array'
	DD	FLAT:??_R1A@?0A@EA@FontProvider@touchgfx@@8
rdata$r	ENDS
;	COMDAT ??_R3ApplicationFontProvider@@8
rdata$r	SEGMENT
??_R3ApplicationFontProvider@@8 DD 00H			; ApplicationFontProvider::`RTTI Class Hierarchy Descriptor'
	DD	00H
	DD	02H
	DD	FLAT:??_R2ApplicationFontProvider@@8
rdata$r	ENDS
;	COMDAT ??_R0?AVApplicationFontProvider@@@8
data$r	SEGMENT
??_R0?AVApplicationFontProvider@@@8 DD FLAT:??_7type_info@@6B@ ; ApplicationFontProvider `RTTI Type Descriptor'
	DD	00H
	DB	'.?AVApplicationFontProvider@@', 00H
data$r	ENDS
;	COMDAT ??_R4ApplicationFontProvider@@6B@
rdata$r	SEGMENT
??_R4ApplicationFontProvider@@6B@ DD 00H		; ApplicationFontProvider::`RTTI Complete Object Locator'
	DD	00H
	DD	00H
	DD	FLAT:??_R0?AVApplicationFontProvider@@@8
	DD	FLAT:??_R3ApplicationFontProvider@@8
rdata$r	ENDS
;	COMDAT ??_R1A@?0A@EA@FontProvider@touchgfx@@8
rdata$r	SEGMENT
??_R1A@?0A@EA@FontProvider@touchgfx@@8 DD FLAT:??_R0?AVFontProvider@touchgfx@@@8 ; touchgfx::FontProvider::`RTTI Base Class Descriptor at (0,-1,0,64)'
	DD	00H
	DD	00H
	DD	0ffffffffH
	DD	00H
	DD	040H
	DD	FLAT:??_R3FontProvider@touchgfx@@8
rdata$r	ENDS
;	COMDAT ??_R2FontProvider@touchgfx@@8
rdata$r	SEGMENT
??_R2FontProvider@touchgfx@@8 DD FLAT:??_R1A@?0A@EA@FontProvider@touchgfx@@8 ; touchgfx::FontProvider::`RTTI Base Class Array'
rdata$r	ENDS
;	COMDAT ??_R3FontProvider@touchgfx@@8
rdata$r	SEGMENT
??_R3FontProvider@touchgfx@@8 DD 00H			; touchgfx::FontProvider::`RTTI Class Hierarchy Descriptor'
	DD	00H
	DD	01H
	DD	FLAT:??_R2FontProvider@touchgfx@@8
rdata$r	ENDS
;	COMDAT ??_R0?AVFontProvider@touchgfx@@@8
data$r	SEGMENT
??_R0?AVFontProvider@touchgfx@@@8 DD FLAT:??_7type_info@@6B@ ; touchgfx::FontProvider `RTTI Type Descriptor'
	DD	00H
	DB	'.?AVFontProvider@touchgfx@@', 00H
data$r	ENDS
;	COMDAT ??_R4FontProvider@touchgfx@@6B@
rdata$r	SEGMENT
??_R4FontProvider@touchgfx@@6B@ DD 00H			; touchgfx::FontProvider::`RTTI Complete Object Locator'
	DD	00H
	DD	00H
	DD	FLAT:??_R0?AVFontProvider@touchgfx@@@8
	DD	FLAT:??_R3FontProvider@touchgfx@@8
rdata$r	ENDS
;	COMDAT ??_C@_1GK@NBNELHAM@?$AAs?$AAd?$AAl?$AA_?$AAi?$AAn?$AAi?$AAt?$AA_?$AAr?$AAe?$AAs?$AAu?$AAl?$AAt@
CONST	SEGMENT
??_C@_1GK@NBNELHAM@?$AAs?$AAd?$AAl?$AA_?$AAi?$AAn?$AAi?$AAt?$AA_?$AAr?$AAe?$AAs?$AAu?$AAl?$AAt@ DB 's'
	DB	00H, 'd', 00H, 'l', 00H, '_', 00H, 'i', 00H, 'n', 00H, 'i', 00H
	DB	't', 00H, '_', 00H, 'r', 00H, 'e', 00H, 's', 00H, 'u', 00H, 'l'
	DB	00H, 't', 00H, ' ', 00H, '&', 00H, '&', 00H, ' ', 00H, '"', 00H
	DB	'E', 00H, 'r', 00H, 'r', 00H, 'o', 00H, 'r', 00H, ' ', 00H, 'd'
	DB	00H, 'u', 00H, 'r', 00H, 'i', 00H, 'n', 00H, 'g', 00H, ' ', 00H
	DB	'S', 00H, 'D', 00H, 'L', 00H, ' ', 00H, 'i', 00H, 'n', 00H, 'i'
	DB	00H, 't', 00H, 'i', 00H, 'a', 00H, 'l', 00H, 'i', 00H, 'z', 00H
	DB	'a', 00H, 't', 00H, 'i', 00H, 'o', 00H, 'n', 00H, '"', 00H, 00H
	DB	00H						; `string'
CONST	ENDS
;	COMDAT ??_C@_1JI@OCDGKHDP@?$AAC?$AA?3?$AA?2?$AAT?$AAo?$AAu?$AAc?$AAh?$AAG?$AAF?$AAX?$AAP?$AAr?$AAo?$AAj@
CONST	SEGMENT
??_C@_1JI@OCDGKHDP@?$AAC?$AA?3?$AA?2?$AAT?$AAo?$AAu?$AAc?$AAh?$AAG?$AAF?$AAX?$AAP?$AAr?$AAo?$AAj@ DB 'C'
	DB	00H, ':', 00H, '\', 00H, 'T', 00H, 'o', 00H, 'u', 00H, 'c', 00H
	DB	'h', 00H, 'G', 00H, 'F', 00H, 'X', 00H, 'P', 00H, 'r', 00H, 'o'
	DB	00H, 'j', 00H, 'e', 00H, 'c', 00H, 't', 00H, 's', 00H, '\', 00H
	DB	'D', 00H, 'a', 00H, 's', 00H, 'h', 00H, 'b', 00H, 'o', 00H, 'a'
	DB	00H, 'r', 00H, 'd', 00H, '\', 00H, 'T', 00H, 'o', 00H, 'u', 00H
	DB	'c', 00H, 'h', 00H, 'G', 00H, 'F', 00H, 'X', 00H, '\', 00H, 'g'
	DB	00H, 'e', 00H, 'n', 00H, 'e', 00H, 'r', 00H, 'a', 00H, 't', 00H
	DB	'e', 00H, 'd', 00H, '\', 00H, 's', 00H, 'i', 00H, 'm', 00H, 'u'
	DB	00H, 'l', 00H, 'a', 00H, 't', 00H, 'o', 00H, 'r', 00H, '\', 00H
	DB	's', 00H, 'r', 00H, 'c', 00H, '\', 00H, 'm', 00H, 'a', 00H, 'i'
	DB	00H, 'n', 00H, 'B', 00H, 'a', 00H, 's', 00H, 'e', 00H, '.', 00H
	DB	'c', 00H, 'p', 00H, 'p', 00H, 00H, 00H	; `string'
CONST	ENDS
;	COMDAT ??_C@_0CA@FKHOGPGG@Error?5during?5SDL?5initialization@
CONST	SEGMENT
??_C@_0CA@FKHOGPGG@Error?5during?5SDL?5initialization@ DB 'Error during S'
	DB	'DL initialization', 00H			; `string'
CONST	ENDS
;	COMDAT ??_C@_09NBJKPNHD@Dashboard@
CONST	SEGMENT
??_C@_09NBJKPNHD@Dashboard@ DB 'Dashboard', 00H		; `string'
CONST	ENDS
;	COMDAT ?__LINE__Var@?0??setupSimulator@@YAXHPAPADAAVHAL@touchgfx@@@Z@4JA
_DATA	SEGMENT
?__LINE__Var@?0??setupSimulator@@YAXHPAPADAAVHAL@touchgfx@@@Z@4JA DD 08H ; `setupSimulator'::`1'::__LINE__Var
_DATA	ENDS
;	COMDAT ??_7ApplicationFontProvider@@6B@
CONST	SEGMENT
??_7ApplicationFontProvider@@6B@ DD FLAT:??_R4ApplicationFontProvider@@6B@ ; ApplicationFontProvider::`vftable'
	DD	FLAT:?getFont@ApplicationFontProvider@@UAEPAVFont@touchgfx@@G@Z
	DD	FLAT:??_EApplicationFontProvider@@UAEPAXI@Z
CONST	ENDS
;	COMDAT ??_7FontProvider@touchgfx@@6B@
CONST	SEGMENT
??_7FontProvider@touchgfx@@6B@ DD FLAT:??_R4FontProvider@touchgfx@@6B@ ; touchgfx::FontProvider::`vftable'
	DD	FLAT:__purecall
	DD	FLAT:??_EFontProvider@touchgfx@@UAEPAXI@Z
CONST	ENDS
;	COMDAT xdata$x
xdata$x	SEGMENT
__ehfuncinfo$??1FontProvider@touchgfx@@UAE@XZ DD 019930522H
	DD	00H
	DD	00H
	DD	2 DUP(00H)
	DD	2 DUP(00H)
	DD	00H
	DD	05H
xdata$x	ENDS
; Function compile flags: /Odt
;	COMDAT __JustMyCode_Default
_TEXT	SEGMENT
__JustMyCode_Default PROC				; COMDAT
	push	ebp
	mov	ebp, esp
	pop	ebp
	ret	0
__JustMyCode_Default ENDP
_TEXT	ENDS
; Function compile flags: /Odtp /RTCsu /ZI
;	COMDAT ??__FfontProvider@@YAXXZ
text$yd	SEGMENT
??__FfontProvider@@YAXXZ PROC				; `dynamic atexit destructor for 'fontProvider'', COMDAT
	push	ebp
	mov	ebp, esp
	sub	esp, 192				; 000000c0H
	push	ebx
	push	esi
	push	edi
	lea	edi, DWORD PTR [ebp-192]
	mov	ecx, 48					; 00000030H
	mov	eax, -858993460				; ccccccccH
	rep stosd
	mov	ecx, OFFSET ?fontProvider@@3VApplicationFontProvider@@A
	call	??1ApplicationFontProvider@@UAE@XZ
	pop	edi
	pop	esi
	pop	ebx
	add	esp, 192				; 000000c0H
	cmp	ebp, esp
	call	__RTC_CheckEsp
	mov	esp, ebp
	pop	ebp
	ret	0
??__FfontProvider@@YAXXZ ENDP				; `dynamic atexit destructor for 'fontProvider''
text$yd	ENDS
; Function compile flags: /Odtp /RTCsu /ZI
;	COMDAT ??__EfontProvider@@YAXXZ
text$di	SEGMENT
??__EfontProvider@@YAXXZ PROC				; `dynamic initializer for 'fontProvider'', COMDAT
; File C:\TouchGFXProjects\Dashboard\Middlewares\ST\TouchGFX\touchgfx\framework\include\common\TouchGFXInit.hpp
; Line 28
	push	ebp
	mov	ebp, esp
	sub	esp, 192				; 000000c0H
	push	ebx
	push	esi
	push	edi
	lea	edi, DWORD PTR [ebp-192]
	mov	ecx, 48					; 00000030H
	mov	eax, -858993460				; ccccccccH
	rep stosd
	mov	ecx, OFFSET __B0AA84D8_TouchGFXInit@hpp
	call	@__CheckForDebuggerJustMyCode@4
	mov	ecx, OFFSET ?fontProvider@@3VApplicationFontProvider@@A
	call	??0ApplicationFontProvider@@QAE@XZ
	push	OFFSET ??__FfontProvider@@YAXXZ		; `dynamic atexit destructor for 'fontProvider''
	call	_atexit
	add	esp, 4
	pop	edi
	pop	esi
	pop	ebx
	add	esp, 192				; 000000c0H
	cmp	ebp, esp
	call	__RTC_CheckEsp
	mov	esp, ebp
	pop	ebp
	ret	0
??__EfontProvider@@YAXXZ ENDP				; `dynamic initializer for 'fontProvider''
text$di	ENDS
; Function compile flags: /Odtp /RTCsu /ZI
;	COMDAT ??_GApplicationFontProvider@@UAEPAXI@Z
_TEXT	SEGMENT
_this$ = -8						; size = 4
___flags$ = 8						; size = 4
??_GApplicationFontProvider@@UAEPAXI@Z PROC		; ApplicationFontProvider::`scalar deleting destructor', COMDAT
; _this$ = ecx
	push	ebp
	mov	ebp, esp
	sub	esp, 204				; 000000ccH
	push	ebx
	push	esi
	push	edi
	push	ecx
	lea	edi, DWORD PTR [ebp-204]
	mov	ecx, 51					; 00000033H
	mov	eax, -858993460				; ccccccccH
	rep stosd
	pop	ecx
	mov	DWORD PTR _this$[ebp], ecx
	mov	ecx, DWORD PTR _this$[ebp]
	call	??1ApplicationFontProvider@@UAE@XZ
	mov	eax, DWORD PTR ___flags$[ebp]
	and	eax, 1
	je	SHORT $LN2@scalar
	push	4
	mov	eax, DWORD PTR _this$[ebp]
	push	eax
	call	??3@YAXPAXI@Z				; operator delete
	add	esp, 8
$LN2@scalar:
	mov	eax, DWORD PTR _this$[ebp]
	pop	edi
	pop	esi
	pop	ebx
	add	esp, 204				; 000000ccH
	cmp	ebp, esp
	call	__RTC_CheckEsp
	mov	esp, ebp
	pop	ebp
	ret	4
??_GApplicationFontProvider@@UAEPAXI@Z ENDP		; ApplicationFontProvider::`scalar deleting destructor'
_TEXT	ENDS
; Function compile flags: /Odtp /RTCsu /ZI
;	COMDAT ??1ApplicationFontProvider@@UAE@XZ
_TEXT	SEGMENT
_this$ = -8						; size = 4
??1ApplicationFontProvider@@UAE@XZ PROC			; ApplicationFontProvider::~ApplicationFontProvider, COMDAT
; _this$ = ecx
	push	ebp
	mov	ebp, esp
	sub	esp, 204				; 000000ccH
	push	ebx
	push	esi
	push	edi
	push	ecx
	lea	edi, DWORD PTR [ebp-204]
	mov	ecx, 51					; 00000033H
	mov	eax, -858993460				; ccccccccH
	rep stosd
	pop	ecx
	mov	DWORD PTR _this$[ebp], ecx
	mov	ecx, DWORD PTR _this$[ebp]
	call	??1FontProvider@touchgfx@@UAE@XZ	; touchgfx::FontProvider::~FontProvider
	pop	edi
	pop	esi
	pop	ebx
	add	esp, 204				; 000000ccH
	cmp	ebp, esp
	call	__RTC_CheckEsp
	mov	esp, ebp
	pop	ebp
	ret	0
??1ApplicationFontProvider@@UAE@XZ ENDP			; ApplicationFontProvider::~ApplicationFontProvider
_TEXT	ENDS
; Function compile flags: /Odtp /RTCsu /ZI
;	COMDAT ??0ApplicationFontProvider@@QAE@XZ
_TEXT	SEGMENT
_this$ = -8						; size = 4
??0ApplicationFontProvider@@QAE@XZ PROC			; ApplicationFontProvider::ApplicationFontProvider, COMDAT
; _this$ = ecx
	push	ebp
	mov	ebp, esp
	sub	esp, 204				; 000000ccH
	push	ebx
	push	esi
	push	edi
	push	ecx
	lea	edi, DWORD PTR [ebp-204]
	mov	ecx, 51					; 00000033H
	mov	eax, -858993460				; ccccccccH
	rep stosd
	pop	ecx
	mov	DWORD PTR _this$[ebp], ecx
	mov	ecx, DWORD PTR _this$[ebp]
	call	??0FontProvider@touchgfx@@QAE@XZ
	mov	eax, DWORD PTR _this$[ebp]
	mov	DWORD PTR [eax], OFFSET ??_7ApplicationFontProvider@@6B@
	mov	eax, DWORD PTR _this$[ebp]
	pop	edi
	pop	esi
	pop	ebx
	add	esp, 204				; 000000ccH
	cmp	ebp, esp
	call	__RTC_CheckEsp
	mov	esp, ebp
	pop	ebp
	ret	0
??0ApplicationFontProvider@@QAE@XZ ENDP			; ApplicationFontProvider::ApplicationFontProvider
_TEXT	ENDS
; Function compile flags: /Odtp /RTCsu /ZI
;	COMDAT ??_GFontProvider@touchgfx@@UAEPAXI@Z
_TEXT	SEGMENT
_this$ = -8						; size = 4
___flags$ = 8						; size = 4
??_GFontProvider@touchgfx@@UAEPAXI@Z PROC		; touchgfx::FontProvider::`scalar deleting destructor', COMDAT
; _this$ = ecx
	push	ebp
	mov	ebp, esp
	sub	esp, 204				; 000000ccH
	push	ebx
	push	esi
	push	edi
	push	ecx
	lea	edi, DWORD PTR [ebp-204]
	mov	ecx, 51					; 00000033H
	mov	eax, -858993460				; ccccccccH
	rep stosd
	pop	ecx
	mov	DWORD PTR _this$[ebp], ecx
	mov	ecx, DWORD PTR _this$[ebp]
	call	??1FontProvider@touchgfx@@UAE@XZ	; touchgfx::FontProvider::~FontProvider
	mov	eax, DWORD PTR ___flags$[ebp]
	and	eax, 1
	je	SHORT $LN2@scalar
	push	4
	mov	eax, DWORD PTR _this$[ebp]
	push	eax
	call	??3@YAXPAXI@Z				; operator delete
	add	esp, 8
$LN2@scalar:
	mov	eax, DWORD PTR _this$[ebp]
	pop	edi
	pop	esi
	pop	ebx
	add	esp, 204				; 000000ccH
	cmp	ebp, esp
	call	__RTC_CheckEsp
	mov	esp, ebp
	pop	ebp
	ret	4
??_GFontProvider@touchgfx@@UAEPAXI@Z ENDP		; touchgfx::FontProvider::`scalar deleting destructor'
_TEXT	ENDS
; Function compile flags: /Odtp /RTCsu /ZI
;	COMDAT ??0FontProvider@touchgfx@@QAE@XZ
_TEXT	SEGMENT
_this$ = -8						; size = 4
??0FontProvider@touchgfx@@QAE@XZ PROC			; touchgfx::FontProvider::FontProvider, COMDAT
; _this$ = ecx
	push	ebp
	mov	ebp, esp
	sub	esp, 204				; 000000ccH
	push	ebx
	push	esi
	push	edi
	push	ecx
	lea	edi, DWORD PTR [ebp-204]
	mov	ecx, 51					; 00000033H
	mov	eax, -858993460				; ccccccccH
	rep stosd
	pop	ecx
	mov	DWORD PTR _this$[ebp], ecx
	mov	eax, DWORD PTR _this$[ebp]
	mov	DWORD PTR [eax], OFFSET ??_7FontProvider@touchgfx@@6B@
	mov	eax, DWORD PTR _this$[ebp]
	pop	edi
	pop	esi
	pop	ebx
	mov	esp, ebp
	pop	ebp
	ret	0
??0FontProvider@touchgfx@@QAE@XZ ENDP			; touchgfx::FontProvider::FontProvider
_TEXT	ENDS
; Function compile flags: /Odtp /RTCsu /ZI
;	COMDAT ??1FontProvider@touchgfx@@UAE@XZ
_TEXT	SEGMENT
_this$ = -20						; size = 4
__$EHRec$ = -12						; size = 12
??1FontProvider@touchgfx@@UAE@XZ PROC			; touchgfx::FontProvider::~FontProvider, COMDAT
; _this$ = ecx
; File C:\TouchGFXProjects\Dashboard\Middlewares\ST\TouchGFX\touchgfx\framework\include\touchgfx\FontManager.hpp
; Line 57
	push	ebp
	mov	ebp, esp
	push	-1
	push	__ehhandler$??1FontProvider@touchgfx@@UAE@XZ
	mov	eax, DWORD PTR fs:0
	push	eax
	sub	esp, 204				; 000000ccH
	push	ebx
	push	esi
	push	edi
	push	ecx
	lea	edi, DWORD PTR [ebp-216]
	mov	ecx, 51					; 00000033H
	mov	eax, -858993460				; ccccccccH
	rep stosd
	pop	ecx
	mov	eax, DWORD PTR ___security_cookie
	xor	eax, ebp
	push	eax
	lea	eax, DWORD PTR __$EHRec$[ebp]
	mov	DWORD PTR fs:0, eax
	mov	DWORD PTR _this$[ebp], ecx
	mov	ecx, OFFSET __1DAFD7EA_FontManager@hpp
	call	@__CheckForDebuggerJustMyCode@4
	mov	eax, DWORD PTR _this$[ebp]
	mov	DWORD PTR [eax], OFFSET ??_7FontProvider@touchgfx@@6B@
; Line 58
	mov	ecx, DWORD PTR __$EHRec$[ebp]
	mov	DWORD PTR fs:0, ecx
	pop	ecx
	pop	edi
	pop	esi
	pop	ebx
	add	esp, 216				; 000000d8H
	cmp	ebp, esp
	call	__RTC_CheckEsp
	mov	esp, ebp
	pop	ebp
	ret	0
_TEXT	ENDS
;	COMDAT text$x
text$x	SEGMENT
__ehhandler$??1FontProvider@touchgfx@@UAE@XZ:
	mov	edx, DWORD PTR [esp+8]
	lea	eax, DWORD PTR [edx+12]
	mov	ecx, DWORD PTR [edx-220]
	xor	ecx, eax
	call	@__security_check_cookie@4
	mov	eax, OFFSET __ehfuncinfo$??1FontProvider@touchgfx@@UAE@XZ
	jmp	___CxxFrameHandler3
text$x	ENDS
??1FontProvider@touchgfx@@UAE@XZ ENDP			; touchgfx::FontProvider::~FontProvider
; Function compile flags: /Odtp /RTCsu /ZI
;	COMDAT ?setupSimulator@@YAXHPAPADAAVHAL@touchgfx@@@Z
_TEXT	SEGMENT
_sdl_init_result$ = -5					; size = 1
_argc$ = 8						; size = 4
_argv$ = 12						; size = 4
_hal$ = 16						; size = 4
?setupSimulator@@YAXHPAPADAAVHAL@touchgfx@@@Z PROC	; setupSimulator, COMDAT
; File C:\TouchGFXProjects\Dashboard\TouchGFX\generated\simulator\src\mainBase.cpp
; Line 8
	push	ebp
	mov	ebp, esp
	sub	esp, 204				; 000000ccH
	push	ebx
	push	esi
	push	edi
	lea	edi, DWORD PTR [ebp-204]
	mov	ecx, 51					; 00000033H
	mov	eax, -858993460				; ccccccccH
	rep stosd
	mov	ecx, OFFSET __332E3959_mainBase@cpp
	call	@__CheckForDebuggerJustMyCode@4
; Line 10
	push	ecx
	movss	xmm0, DWORD PTR __real@41855567
	movss	DWORD PTR [esp], xmm0
	mov	ecx, DWORD PTR _hal$[ebp]
	call	?setVsyncInterval@HALSDL2@touchgfx@@QAEXM@Z ; touchgfx::HALSDL2::setVsyncInterval
; Line 11
	push	OFFSET ??_C@_09NBJKPNHD@Dashboard@
	mov	ecx, DWORD PTR _hal$[ebp]
	call	?setWindowTitle@HALSDL2@touchgfx@@QAEXPBD@Z ; touchgfx::HALSDL2::setWindowTitle
; Line 14
	mov	esi, esp
	mov	eax, DWORD PTR _argv$[ebp]
	push	eax
	mov	ecx, DWORD PTR _argc$[ebp]
	push	ecx
	mov	edx, DWORD PTR _hal$[ebp]
	mov	eax, DWORD PTR [edx]
	mov	ecx, DWORD PTR _hal$[ebp]
	mov	edx, DWORD PTR [eax+180]
	call	edx
	cmp	esi, esp
	call	__RTC_CheckEsp
	mov	BYTE PTR _sdl_init_result$[ebp], al
; Line 15
	movzx	eax, BYTE PTR _sdl_init_result$[ebp]
	test	eax, eax
	je	SHORT $LN3@setupSimul
	mov	ecx, OFFSET ??_C@_0CA@FKHOGPGG@Error?5during?5SDL?5initialization@
	test	ecx, ecx
	jne	SHORT $LN4@setupSimul
$LN3@setupSimul:
	mov	edx, DWORD PTR ?__LINE__Var@?0??setupSimulator@@YAXHPAPADAAVHAL@touchgfx@@@Z@4JA
	add	edx, 7
	mov	esi, esp
	push	edx
	push	OFFSET ??_C@_1JI@OCDGKHDP@?$AAC?$AA?3?$AA?2?$AAT?$AAo?$AAu?$AAc?$AAh?$AAG?$AAF?$AAX?$AAP?$AAr?$AAo?$AAj@
	push	OFFSET ??_C@_1GK@NBNELHAM@?$AAs?$AAd?$AAl?$AA_?$AAi?$AAn?$AAi?$AAt?$AA_?$AAr?$AAe?$AAs?$AAu?$AAl?$AAt@
	call	DWORD PTR __imp___wassert
	add	esp, 12					; 0000000cH
	cmp	esi, esp
	call	__RTC_CheckEsp
$LN4@setupSimul:
; Line 17
	pop	edi
	pop	esi
	pop	ebx
	add	esp, 204				; 000000ccH
	cmp	ebp, esp
	call	__RTC_CheckEsp
	mov	esp, ebp
	pop	ebp
	ret	0
?setupSimulator@@YAXHPAPADAAVHAL@touchgfx@@@Z ENDP	; setupSimulator
_TEXT	ENDS
END
