; Listing generated by Microsoft (R) Optimizing Compiler Version 19.22.27905.0 

	TITLE	C:\TouchGFXProjects\Dashboard\TouchGFX\generated\texts\src\Texts.cpp
	.686P
	.XMM
	include listing.inc
	.model	flat

INCLUDELIB MSVCRTD
INCLUDELIB OLDNAMES

PUBLIC	?currentLanguage@Texts@touchgfx@@0GA		; touchgfx::Texts::currentLanguage
PUBLIC	?getStringWidthFunction@Font@touchgfx@@1P812@BEGEPBGPAD@ZQ12@ ; touchgfx::Font::getStringWidthFunction
PUBLIC	?unicodeConverterInitFunction@TextProvider@touchgfx@@0P812@AEXXZQ12@ ; touchgfx::TextProvider::unicodeConverterInitFunction
PUBLIC	?unicodeConverterFunction@TextProvider@touchgfx@@0P812@AEGE@ZQ12@ ; touchgfx::TextProvider::unicodeConverterFunction
PUBLIC	?drawStringFunction@LCD@touchgfx@@0P812@AEXABVRect@2@0ABUStringVisuals@12@PBGPAD@ZQ12@ ; touchgfx::LCD::drawStringFunction
PUBLIC	?texts_all_languages@@3QBGB			; texts_all_languages
EXTRN	?getStringWidthLTR@Font@touchgfx@@IBEGEPBGPAD@Z:PROC ; touchgfx::Font::getStringWidthLTR
EXTRN	?drawStringLTR@LCD@touchgfx@@IAEXABVRect@2@0ABUStringVisuals@12@PBGPAD@Z:PROC ; touchgfx::LCD::drawStringLTR
EXTRN	?indicesGb@@3QBIB:BYTE				; indicesGb
_BSS	SEGMENT
?currentLanguage@Texts@touchgfx@@0GA DW 01H DUP (?)	; touchgfx::Texts::currentLanguage
	ALIGN	4

?unicodeConverterInitFunction@TextProvider@touchgfx@@0P812@AEXXZQ12@ DD 01H DUP (?) ; touchgfx::TextProvider::unicodeConverterInitFunction
?unicodeConverterFunction@TextProvider@touchgfx@@0P812@AEGE@ZQ12@ DD 01H DUP (?) ; touchgfx::TextProvider::unicodeConverterFunction
_BSS	ENDS
msvcjmc	SEGMENT
__285B227C_Types@hpp DB 01H
__FB4E853A_Unicode@hpp DB 01H
__8DB28DB8_Texts@hpp DB 01H
__D259EDA1_Event@hpp DB 01H
__ACC941B3_ClickEvent@hpp DB 01H
__5BA6F82F_DragEvent@hpp DB 01H
__39F3AA84_GestureEvent@hpp DB 01H
__D1176A33_UIEventListener@hpp DB 01H
__420ED2F8_Gestures@hpp DB 01H
__941D13D0_ctype@h DB 01H
__DF6784BA_basetsd@h DB 01H
__82CA083D_corecrt_memcpy_s@h DB 01H
__F8BB3D43_corecrt_memory@h DB 01H
__61E6ED1F_corecrt_wstring@h DB 01H
__B0CBCB7B_string@h DB 01H
__73E5A5AE_guiddef@h DB 01H
__20E88E2C_winnt@h DB 01H
__B0708975_processthreadsapi@h DB 01H
__14D8E0CB_memoryapi@h DB 01H
__0A5E6AC9_winerror@h DB 01H
__95229982_winbase@h DB 01H
__FDCAD2F5_winuser@h DB 01H
__253F0A20_winioctl@h DB 01H
__36B85FDF_stdlib@h DB 01H
__CA946E7A_propidl@h DB 01H
__4B69DDF6_oleauto@h DB 01H
__7F05D861_stralign@h DB 01H
__01469F3E_Atomic@hpp DB 01H
__26996C6E_DMA@hpp DB 01H
__23AD7809_corecrt_stdio_config@h DB 01H
__DD74D44A_corecrt_wstdio@h DB 01H
__4B3541EE_stdio@h DB 01H
__CFC461D7_vcruntime_new@h DB 01H
__992811F5_Bitmap@hpp DB 01H
__CC754146_FrameBufferAllocator@hpp DB 01H
__3A8A7BA5_Font@hpp DB 01H
__E868CDAE_LCD@hpp DB 01H
__6B31F3FF_Transition@hpp DB 01H
__7F9B9F4C_Application@hpp DB 01H
__FC82A53F_Callback@hpp DB 01H
__9564A8AC_Drawable@hpp DB 01H
__AF057B55_TouchController@hpp DB 01H
__DBC0CB9D_ButtonController@hpp DB 01H
__BA0AA7A1_MCUInstrumentation@hpp DB 01H
__6E6B02D0_HAL@hpp DB 01H
__FB4ADB3D_TypedText@hpp DB 01H
__C0B353DE_Texts@cpp DB 01H
msvcjmc	ENDS
CONST	SEGMENT
?texts_all_languages@@3QBGB DW 02H			; texts_all_languages
	DW	02eH
	DW	02H
	DW	00H
	DW	02H
	DW	025H
	DW	00H
	DW	06bH
	DW	06dH
	DW	02fH
	DW	068H
	DW	00H
	DW	031H
	DW	030H
	DW	030H
	DW	00H
	DW	031H
	DW	031H
	DW	030H
	DW	00H
?staticLanguageIndices@@3QBQBIB DD FLAT:?indicesGb@@3QBIB ; staticLanguageIndices
CONST	ENDS
_DATA	SEGMENT
?getStringWidthFunction@Font@touchgfx@@1P812@BEGEPBGPAD@ZQ12@ DD FLAT:?getStringWidthLTR@Font@touchgfx@@IBEGEPBGPAD@Z ; touchgfx::Font::getStringWidthFunction
?drawStringFunction@LCD@touchgfx@@0P812@AEXABVRect@2@0ABUStringVisuals@12@PBGPAD@ZQ12@ DD FLAT:?drawStringLTR@LCD@touchgfx@@IAEXABVRect@2@0ABUStringVisuals@12@PBGPAD@Z ; touchgfx::LCD::drawStringFunction
_DATA	ENDS
PUBLIC	?setLanguage@Texts@touchgfx@@SAXG@Z		; touchgfx::Texts::setLanguage
PUBLIC	?getText@Texts@touchgfx@@QBEPBGG@Z		; touchgfx::Texts::getText
PUBLIC	?setTranslation@Texts@touchgfx@@SAXGPBX@Z	; touchgfx::Texts::setTranslation
PUBLIC	?registerTypedTextDatabase@TypedText@touchgfx@@SAXPBUTypedTextData@12@PBQBVFont@2@G@Z ; touchgfx::TypedText::registerTypedTextDatabase
PUBLIC	__JustMyCode_Default
EXTRN	?getFonts@TypedTextDatabase@@YAPAPBVFont@touchgfx@@XZ:PROC ; TypedTextDatabase::getFonts
EXTRN	?getInstanceSize@TypedTextDatabase@@YAGXZ:PROC	; TypedTextDatabase::getInstanceSize
EXTRN	@__CheckForDebuggerJustMyCode@4:PROC
EXTRN	__RTC_CheckEsp:PROC
EXTRN	__RTC_InitBase:PROC
EXTRN	__RTC_Shutdown:PROC
EXTRN	?typedTexts@TypedText@touchgfx@@0PBUTypedTextData@12@B:DWORD ; touchgfx::TypedText::typedTexts
EXTRN	?fonts@TypedText@touchgfx@@0PBQBVFont@2@B:DWORD	; touchgfx::TypedText::fonts
EXTRN	?numberOfTypedTexts@TypedText@touchgfx@@0GA:WORD ; touchgfx::TypedText::numberOfTypedTexts
EXTRN	?typedTextDatabaseArray@@3QBQBUTypedTextData@TypedText@touchgfx@@B:BYTE ; typedTextDatabaseArray
_BSS	SEGMENT
?languagesArray@@3PAPBUTranslationHeader@@A DD 01H DUP (?) ; languagesArray
?currentLanguagePtr@@3PBGB DD 01H DUP (?)		; currentLanguagePtr
?currentLanguageIndices@@3PBIB DD 01H DUP (?)		; currentLanguageIndices
_BSS	ENDS
;	COMDAT rtc$TMZ
rtc$TMZ	SEGMENT
__RTC_Shutdown.rtc$TMZ DD FLAT:__RTC_Shutdown
rtc$TMZ	ENDS
;	COMDAT rtc$IMZ
rtc$IMZ	SEGMENT
__RTC_InitBase.rtc$IMZ DD FLAT:__RTC_InitBase
rtc$IMZ	ENDS
; Function compile flags: /Odt
;	COMDAT __JustMyCode_Default
_TEXT	SEGMENT
__JustMyCode_Default PROC				; COMDAT
	push	ebp
	mov	ebp, esp
	pop	ebp
	ret	0
__JustMyCode_Default ENDP
_TEXT	ENDS
; Function compile flags: /Odtp /RTCsu /ZI
;	COMDAT ?registerTypedTextDatabase@TypedText@touchgfx@@SAXPBUTypedTextData@12@PBQBVFont@2@G@Z
_TEXT	SEGMENT
_data$ = 8						; size = 4
_f$ = 12						; size = 4
_n$ = 16						; size = 2
?registerTypedTextDatabase@TypedText@touchgfx@@SAXPBUTypedTextData@12@PBQBVFont@2@G@Z PROC ; touchgfx::TypedText::registerTypedTextDatabase, COMDAT
; File C:\TouchGFXProjects\Dashboard\Middlewares\ST\TouchGFX\touchgfx\framework\include\touchgfx\TypedText.hpp
; Line 199
	push	ebp
	mov	ebp, esp
	sub	esp, 192				; 000000c0H
	push	ebx
	push	esi
	push	edi
	lea	edi, DWORD PTR [ebp-192]
	mov	ecx, 48					; 00000030H
	mov	eax, -858993460				; ccccccccH
	rep stosd
	mov	ecx, OFFSET __FB4ADB3D_TypedText@hpp
	call	@__CheckForDebuggerJustMyCode@4
; Line 200
	mov	eax, DWORD PTR _data$[ebp]
	mov	DWORD PTR ?typedTexts@TypedText@touchgfx@@0PBUTypedTextData@12@B, eax ; touchgfx::TypedText::typedTexts
; Line 201
	mov	eax, DWORD PTR _f$[ebp]
	mov	DWORD PTR ?fonts@TypedText@touchgfx@@0PBQBVFont@2@B, eax ; touchgfx::TypedText::fonts
; Line 202
	mov	ax, WORD PTR _n$[ebp]
	mov	WORD PTR ?numberOfTypedTexts@TypedText@touchgfx@@0GA, ax ; touchgfx::TypedText::numberOfTypedTexts
; Line 203
	pop	edi
	pop	esi
	pop	ebx
	add	esp, 192				; 000000c0H
	cmp	ebp, esp
	call	__RTC_CheckEsp
	mov	esp, ebp
	pop	ebp
	ret	0
?registerTypedTextDatabase@TypedText@touchgfx@@SAXPBUTypedTextData@12@PBQBVFont@2@G@Z ENDP ; touchgfx::TypedText::registerTypedTextDatabase
_TEXT	ENDS
; Function compile flags: /Odtp /RTCsu /ZI
;	COMDAT ?setTranslation@Texts@touchgfx@@SAXGPBX@Z
_TEXT	SEGMENT
_id$ = 8						; size = 2
_translation$ = 12					; size = 4
?setTranslation@Texts@touchgfx@@SAXGPBX@Z PROC		; touchgfx::Texts::setTranslation, COMDAT
; File C:\TouchGFXProjects\Dashboard\TouchGFX\generated\texts\src\Texts.cpp
; Line 81
	push	ebp
	mov	ebp, esp
	sub	esp, 192				; 000000c0H
	push	ebx
	push	esi
	push	edi
	lea	edi, DWORD PTR [ebp-192]
	mov	ecx, 48					; 00000030H
	mov	eax, -858993460				; ccccccccH
	rep stosd
	mov	ecx, OFFSET __C0B353DE_Texts@cpp
	call	@__CheckForDebuggerJustMyCode@4
; Line 82
	movzx	eax, WORD PTR _id$[ebp]
	mov	ecx, DWORD PTR _translation$[ebp]
	mov	DWORD PTR ?languagesArray@@3PAPBUTranslationHeader@@A[eax*4], ecx
; Line 83
	pop	edi
	pop	esi
	pop	ebx
	add	esp, 192				; 000000c0H
	cmp	ebp, esp
	call	__RTC_CheckEsp
	mov	esp, ebp
	pop	ebp
	ret	0
?setTranslation@Texts@touchgfx@@SAXGPBX@Z ENDP		; touchgfx::Texts::setTranslation
_TEXT	ENDS
; Function compile flags: /Odtp /RTCsu /ZI
;	COMDAT ?getText@Texts@touchgfx@@QBEPBGG@Z
_TEXT	SEGMENT
_this$ = -8						; size = 4
_id$ = 8						; size = 2
?getText@Texts@touchgfx@@QBEPBGG@Z PROC			; touchgfx::Texts::getText, COMDAT
; _this$ = ecx
; File C:\TouchGFXProjects\Dashboard\TouchGFX\generated\texts\src\Texts.cpp
; Line 86
	push	ebp
	mov	ebp, esp
	sub	esp, 204				; 000000ccH
	push	ebx
	push	esi
	push	edi
	push	ecx
	lea	edi, DWORD PTR [ebp-204]
	mov	ecx, 51					; 00000033H
	mov	eax, -858993460				; ccccccccH
	rep stosd
	pop	ecx
	mov	DWORD PTR _this$[ebp], ecx
	mov	ecx, OFFSET __C0B353DE_Texts@cpp
	call	@__CheckForDebuggerJustMyCode@4
; Line 87
	movzx	eax, WORD PTR _id$[ebp]
	mov	ecx, DWORD PTR ?currentLanguageIndices@@3PBIB
	mov	edx, DWORD PTR [ecx+eax*4]
	mov	eax, DWORD PTR ?currentLanguagePtr@@3PBGB
	lea	eax, DWORD PTR [eax+edx*2]
; Line 88
	pop	edi
	pop	esi
	pop	ebx
	add	esp, 204				; 000000ccH
	cmp	ebp, esp
	call	__RTC_CheckEsp
	mov	esp, ebp
	pop	ebp
	ret	4
?getText@Texts@touchgfx@@QBEPBGG@Z ENDP			; touchgfx::Texts::getText
_TEXT	ENDS
; Function compile flags: /Odtp /RTCsu /ZI
;	COMDAT ?setLanguage@Texts@touchgfx@@SAXG@Z
_TEXT	SEGMENT
_translation$1 = -20					; size = 4
_currentLanguageTypedText$ = -8				; size = 4
_id$ = 8						; size = 2
?setLanguage@Texts@touchgfx@@SAXG@Z PROC		; touchgfx::Texts::setLanguage, COMDAT
; File C:\TouchGFXProjects\Dashboard\TouchGFX\generated\texts\src\Texts.cpp
; Line 51
	push	ebp
	mov	ebp, esp
	sub	esp, 216				; 000000d8H
	push	ebx
	push	esi
	push	edi
	lea	edi, DWORD PTR [ebp-216]
	mov	ecx, 54					; 00000036H
	mov	eax, -858993460				; ccccccccH
	rep stosd
	mov	ecx, OFFSET __C0B353DE_Texts@cpp
	call	@__CheckForDebuggerJustMyCode@4
; Line 52
	mov	DWORD PTR _currentLanguageTypedText$[ebp], 0
; Line 53
	movzx	eax, WORD PTR _id$[ebp]
	cmp	eax, 1
	jge	SHORT $LN2@setLanguag
; Line 55
	movzx	eax, WORD PTR _id$[ebp]
	cmp	DWORD PTR ?languagesArray@@3PAPBUTranslationHeader@@A[eax*4], 0
	je	SHORT $LN3@setLanguag
; Line 58
	movzx	eax, WORD PTR _id$[ebp]
	mov	ecx, DWORD PTR ?languagesArray@@3PAPBUTranslationHeader@@A[eax*4]
	mov	DWORD PTR _translation$1[ebp], ecx
; Line 59
	mov	eax, DWORD PTR _translation$1[ebp]
	mov	ecx, DWORD PTR _translation$1[ebp]
	add	ecx, DWORD PTR [eax]
	mov	DWORD PTR ?currentLanguagePtr@@3PBGB, ecx
; Line 60
	mov	eax, DWORD PTR _translation$1[ebp]
	mov	ecx, DWORD PTR _translation$1[ebp]
	add	ecx, DWORD PTR [eax+4]
	mov	DWORD PTR ?currentLanguageIndices@@3PBIB, ecx
; Line 61
	mov	eax, DWORD PTR _translation$1[ebp]
	mov	ecx, DWORD PTR _translation$1[ebp]
	add	ecx, DWORD PTR [eax+8]
	mov	DWORD PTR _currentLanguageTypedText$[ebp], ecx
; Line 63
	jmp	SHORT $LN2@setLanguag
$LN3@setLanguag:
; Line 66
	mov	DWORD PTR ?currentLanguagePtr@@3PBGB, OFFSET ?texts_all_languages@@3QBGB ; texts_all_languages
; Line 67
	movzx	eax, WORD PTR _id$[ebp]
	mov	ecx, DWORD PTR ?staticLanguageIndices@@3QBQBIB[eax*4]
	mov	DWORD PTR ?currentLanguageIndices@@3PBIB, ecx
; Line 68
	movzx	eax, WORD PTR _id$[ebp]
	mov	ecx, DWORD PTR ?typedTextDatabaseArray@@3QBQBUTypedTextData@TypedText@touchgfx@@B[eax*4]
	mov	DWORD PTR _currentLanguageTypedText$[ebp], ecx
$LN2@setLanguag:
; Line 72
	cmp	DWORD PTR _currentLanguageTypedText$[ebp], 0
	je	SHORT $LN1@setLanguag
; Line 74
	mov	ax, WORD PTR _id$[ebp]
	mov	WORD PTR ?currentLanguage@Texts@touchgfx@@0GA, ax ; touchgfx::Texts::currentLanguage
; Line 75
	call	?getInstanceSize@TypedTextDatabase@@YAGXZ ; TypedTextDatabase::getInstanceSize
	movzx	eax, ax
	push	eax
	call	?getFonts@TypedTextDatabase@@YAPAPBVFont@touchgfx@@XZ ; TypedTextDatabase::getFonts
	push	eax
	mov	ecx, DWORD PTR _currentLanguageTypedText$[ebp]
	push	ecx
	call	?registerTypedTextDatabase@TypedText@touchgfx@@SAXPBUTypedTextData@12@PBQBVFont@2@G@Z ; touchgfx::TypedText::registerTypedTextDatabase
	add	esp, 12					; 0000000cH
$LN1@setLanguag:
; Line 78
	pop	edi
	pop	esi
	pop	ebx
	add	esp, 216				; 000000d8H
	cmp	ebp, esp
	call	__RTC_CheckEsp
	mov	esp, ebp
	pop	ebp
	ret	0
?setLanguage@Texts@touchgfx@@SAXG@Z ENDP		; touchgfx::Texts::setLanguage
_TEXT	ENDS
END
