; Listing generated by Microsoft (R) Optimizing Compiler Version 19.22.27905.0 

	TITLE	C:\TouchGFXProjects\Dashboard\TouchGFX\generated\texts\src\TypedTextDatabase.cpp
	.686P
	.XMM
	include listing.inc
	.model	flat

INCLUDELIB MSVCRTD
INCLUDELIB OLDNAMES

PUBLIC	?typedTextDatabaseArray@@3QBQBUTypedTextData@TypedText@touchgfx@@B ; typedTextDatabaseArray
msvcjmc	SEGMENT
__CFC461D7_vcruntime_new@h DB 01H
__285B227C_Types@hpp DB 01H
__FB4E853A_Unicode@hpp DB 01H
__3A8A7BA5_Font@hpp DB 01H
__8DB28DB8_Texts@hpp DB 01H
__FB4ADB3D_TypedText@hpp DB 01H
__E48AE72E_ConstFont@hpp DB 01H
__74D5B664_GeneratedFont@hpp DB 01H
__BFD3F44F_TypedTextDatabase@cpp DB 01H
msvcjmc	ENDS
CONST	SEGMENT
?typedTextDatabaseArray@@3QBQBUTypedTextData@TypedText@touchgfx@@B DD FLAT:?typedText_database_DEFAULT@@3QBUTypedTextData@TypedText@touchgfx@@B ; typedTextDatabaseArray
CONST	ENDS
PUBLIC	?getInstance@TypedTextDatabase@@YAPBUTypedTextData@TypedText@touchgfx@@G@Z ; TypedTextDatabase::getInstance
PUBLIC	?getFonts@TypedTextDatabase@@YAPAPBVFont@touchgfx@@XZ ; TypedTextDatabase::getFonts
PUBLIC	?setFont@TypedTextDatabase@@YAPBVFont@touchgfx@@GPBV23@@Z ; TypedTextDatabase::setFont
PUBLIC	?resetFont@TypedTextDatabase@@YAXG@Z		; TypedTextDatabase::resetFont
PUBLIC	?getInstanceSize@TypedTextDatabase@@YAGXZ	; TypedTextDatabase::getInstanceSize
PUBLIC	__JustMyCode_Default
PUBLIC	?_fonts@@3PAPBVFont@touchgfx@@A			; _fonts
PUBLIC	?typedText_database_DEFAULT@@3QBUTypedTextData@TypedText@touchgfx@@B ; typedText_database_DEFAULT
EXTRN	?getFont_twenty_seven_regular_91_4bpp@@YAAAVGeneratedFont@touchgfx@@XZ:PROC ; getFont_twenty_seven_regular_91_4bpp
EXTRN	?getFont_twenty_seven_regular_20_4bpp@@YAAAVGeneratedFont@touchgfx@@XZ:PROC ; getFont_twenty_seven_regular_20_4bpp
EXTRN	?getFont_twenty_seven_regular_13_4bpp@@YAAAVGeneratedFont@touchgfx@@XZ:PROC ; getFont_twenty_seven_regular_13_4bpp
EXTRN	?getFont_twenty_seven_regular_35_4bpp@@YAAAVGeneratedFont@touchgfx@@XZ:PROC ; getFont_twenty_seven_regular_35_4bpp
EXTRN	?getFont_digifit_20_4bpp@@YAAAVGeneratedFont@touchgfx@@XZ:PROC ; getFont_digifit_20_4bpp
EXTRN	?getFont_verdana_20_4bpp@@YAAAVGeneratedFont@touchgfx@@XZ:PROC ; getFont_verdana_20_4bpp
EXTRN	@__CheckForDebuggerJustMyCode@4:PROC
EXTRN	__RTC_CheckEsp:PROC
EXTRN	__RTC_InitBase:PROC
EXTRN	__RTC_Shutdown:PROC
_BSS	SEGMENT
?_fonts@@3PAPBVFont@touchgfx@@A DD 06H DUP (?)		; _fonts
?typedText_database_DEFAULT@@3QBUTypedTextData@TypedText@touchgfx@@B DW 0aH DUP (?) ; typedText_database_DEFAULT
_BSS	ENDS
CRT$XCU	SEGMENT
?_fonts$initializer$@@3P6AXXZA DD FLAT:??__E_fonts@@YAXXZ ; _fonts$initializer$
CRT$XCU	ENDS
;	COMDAT rtc$TMZ
rtc$TMZ	SEGMENT
__RTC_Shutdown.rtc$TMZ DD FLAT:__RTC_Shutdown
rtc$TMZ	ENDS
;	COMDAT rtc$IMZ
rtc$IMZ	SEGMENT
__RTC_InitBase.rtc$IMZ DD FLAT:__RTC_InitBase
rtc$IMZ	ENDS
CRT$XCU	SEGMENT
?typedText_database_DEFAULT$initializer$@@3P6AXXZA DD FLAT:??__EtypedText_database_DEFAULT@@YAXXZ ; typedText_database_DEFAULT$initializer$
CRT$XCU	ENDS
; Function compile flags: /Odt
;	COMDAT __JustMyCode_Default
_TEXT	SEGMENT
__JustMyCode_Default PROC				; COMDAT
	push	ebp
	mov	ebp, esp
	pop	ebp
	ret	0
__JustMyCode_Default ENDP
_TEXT	ENDS
; Function compile flags: /Odtp /RTCsu /ZI
;	COMDAT ??__EtypedText_database_DEFAULT@@YAXXZ
text$di	SEGMENT
??__EtypedText_database_DEFAULT@@YAXXZ PROC		; `dynamic initializer for 'typedText_database_DEFAULT'', COMDAT
; File C:\TouchGFXProjects\Dashboard\TouchGFX\generated\texts\src\TypedTextDatabase.cpp
; Line 41
	push	ebp
	mov	ebp, esp
	sub	esp, 192				; 000000c0H
	push	ebx
	push	esi
	push	edi
	lea	edi, DWORD PTR [ebp-192]
	mov	ecx, 48					; 00000030H
	mov	eax, -858993460				; ccccccccH
	rep stosd
	mov	ecx, OFFSET __BFD3F44F_TypedTextDatabase@cpp
	call	@__CheckForDebuggerJustMyCode@4
; Line 31
	mov	BYTE PTR ?typedText_database_DEFAULT@@3QBUTypedTextData@TypedText@touchgfx@@B, 1
	mov	BYTE PTR ?typedText_database_DEFAULT@@3QBUTypedTextData@TypedText@touchgfx@@B+1, 0
; Line 32
	mov	BYTE PTR ?typedText_database_DEFAULT@@3QBUTypedTextData@TypedText@touchgfx@@B+2, 0
	mov	BYTE PTR ?typedText_database_DEFAULT@@3QBUTypedTextData@TypedText@touchgfx@@B+3, 1
; Line 33
	mov	BYTE PTR ?typedText_database_DEFAULT@@3QBUTypedTextData@TypedText@touchgfx@@B+4, 0
	mov	BYTE PTR ?typedText_database_DEFAULT@@3QBUTypedTextData@TypedText@touchgfx@@B+5, 0
; Line 34
	mov	BYTE PTR ?typedText_database_DEFAULT@@3QBUTypedTextData@TypedText@touchgfx@@B+6, 2
	mov	BYTE PTR ?typedText_database_DEFAULT@@3QBUTypedTextData@TypedText@touchgfx@@B+7, 1
; Line 35
	mov	BYTE PTR ?typedText_database_DEFAULT@@3QBUTypedTextData@TypedText@touchgfx@@B+8, 2
	mov	BYTE PTR ?typedText_database_DEFAULT@@3QBUTypedTextData@TypedText@touchgfx@@B+9, 0
; Line 36
	mov	BYTE PTR ?typedText_database_DEFAULT@@3QBUTypedTextData@TypedText@touchgfx@@B+10, 3
	mov	BYTE PTR ?typedText_database_DEFAULT@@3QBUTypedTextData@TypedText@touchgfx@@B+11, 1
; Line 37
	mov	BYTE PTR ?typedText_database_DEFAULT@@3QBUTypedTextData@TypedText@touchgfx@@B+12, 3
	mov	BYTE PTR ?typedText_database_DEFAULT@@3QBUTypedTextData@TypedText@touchgfx@@B+13, 1
; Line 38
	mov	BYTE PTR ?typedText_database_DEFAULT@@3QBUTypedTextData@TypedText@touchgfx@@B+14, 3
	mov	BYTE PTR ?typedText_database_DEFAULT@@3QBUTypedTextData@TypedText@touchgfx@@B+15, 0
; Line 39
	mov	BYTE PTR ?typedText_database_DEFAULT@@3QBUTypedTextData@TypedText@touchgfx@@B+16, 3
	mov	BYTE PTR ?typedText_database_DEFAULT@@3QBUTypedTextData@TypedText@touchgfx@@B+17, 0
; Line 40
	mov	BYTE PTR ?typedText_database_DEFAULT@@3QBUTypedTextData@TypedText@touchgfx@@B+18, 3
	mov	BYTE PTR ?typedText_database_DEFAULT@@3QBUTypedTextData@TypedText@touchgfx@@B+19, 0
	pop	edi
	pop	esi
	pop	ebx
	add	esp, 192				; 000000c0H
	cmp	ebp, esp
	call	__RTC_CheckEsp
	mov	esp, ebp
	pop	ebp
	ret	0
??__EtypedText_database_DEFAULT@@YAXXZ ENDP		; `dynamic initializer for 'typedText_database_DEFAULT''
text$di	ENDS
; Function compile flags: /Odtp /RTCsu /ZI
;	COMDAT ??__E_fonts@@YAXXZ
text$di	SEGMENT
??__E_fonts@@YAXXZ PROC					; `dynamic initializer for '_fonts'', COMDAT
; File C:\TouchGFXProjects\Dashboard\TouchGFX\generated\texts\src\TypedTextDatabase.cpp
; Line 23
	push	ebp
	mov	ebp, esp
	sub	esp, 192				; 000000c0H
	push	ebx
	push	esi
	push	edi
	lea	edi, DWORD PTR [ebp-192]
	mov	ecx, 48					; 00000030H
	mov	eax, -858993460				; ccccccccH
	rep stosd
	mov	ecx, OFFSET __BFD3F44F_TypedTextDatabase@cpp
	call	@__CheckForDebuggerJustMyCode@4
; Line 17
	call	?getFont_twenty_seven_regular_91_4bpp@@YAAAVGeneratedFont@touchgfx@@XZ ; getFont_twenty_seven_regular_91_4bpp
	mov	DWORD PTR ?_fonts@@3PAPBVFont@touchgfx@@A, eax
; Line 18
	call	?getFont_twenty_seven_regular_20_4bpp@@YAAAVGeneratedFont@touchgfx@@XZ ; getFont_twenty_seven_regular_20_4bpp
	mov	DWORD PTR ?_fonts@@3PAPBVFont@touchgfx@@A+4, eax
; Line 19
	call	?getFont_twenty_seven_regular_13_4bpp@@YAAAVGeneratedFont@touchgfx@@XZ ; getFont_twenty_seven_regular_13_4bpp
	mov	DWORD PTR ?_fonts@@3PAPBVFont@touchgfx@@A+8, eax
; Line 20
	call	?getFont_twenty_seven_regular_35_4bpp@@YAAAVGeneratedFont@touchgfx@@XZ ; getFont_twenty_seven_regular_35_4bpp
	mov	DWORD PTR ?_fonts@@3PAPBVFont@touchgfx@@A+12, eax
; Line 21
	call	?getFont_digifit_20_4bpp@@YAAAVGeneratedFont@touchgfx@@XZ ; getFont_digifit_20_4bpp
	mov	DWORD PTR ?_fonts@@3PAPBVFont@touchgfx@@A+16, eax
; Line 22
	call	?getFont_verdana_20_4bpp@@YAAAVGeneratedFont@touchgfx@@XZ ; getFont_verdana_20_4bpp
	mov	DWORD PTR ?_fonts@@3PAPBVFont@touchgfx@@A+20, eax
	pop	edi
	pop	esi
	pop	ebx
	add	esp, 192				; 000000c0H
	cmp	ebp, esp
	call	__RTC_CheckEsp
	mov	esp, ebp
	pop	ebp
	ret	0
??__E_fonts@@YAXXZ ENDP					; `dynamic initializer for '_fonts''
text$di	ENDS
; Function compile flags: /Odtp /RTCsu /ZI
;	COMDAT ?getInstanceSize@TypedTextDatabase@@YAGXZ
_TEXT	SEGMENT
?getInstanceSize@TypedTextDatabase@@YAGXZ PROC		; TypedTextDatabase::getInstanceSize, COMDAT
; File C:\TouchGFXProjects\Dashboard\TouchGFX\generated\texts\src\TypedTextDatabase.cpp
; Line 57
	push	ebp
	mov	ebp, esp
	sub	esp, 192				; 000000c0H
	push	ebx
	push	esi
	push	edi
	lea	edi, DWORD PTR [ebp-192]
	mov	ecx, 48					; 00000030H
	mov	eax, -858993460				; ccccccccH
	rep stosd
	mov	ecx, OFFSET __BFD3F44F_TypedTextDatabase@cpp
	call	@__CheckForDebuggerJustMyCode@4
; Line 58
	mov	eax, 10					; 0000000aH
; Line 59
	pop	edi
	pop	esi
	pop	ebx
	add	esp, 192				; 000000c0H
	cmp	ebp, esp
	call	__RTC_CheckEsp
	mov	esp, ebp
	pop	ebp
	ret	0
?getInstanceSize@TypedTextDatabase@@YAGXZ ENDP		; TypedTextDatabase::getInstanceSize
_TEXT	ENDS
; Function compile flags: /Odtp /RTCsu /ZI
;	COMDAT ?resetFont@TypedTextDatabase@@YAXG@Z
_TEXT	SEGMENT
tv65 = -196						; size = 4
_fontId$ = 8						; size = 2
?resetFont@TypedTextDatabase@@YAXG@Z PROC		; TypedTextDatabase::resetFont, COMDAT
; File C:\TouchGFXProjects\Dashboard\TouchGFX\generated\texts\src\TypedTextDatabase.cpp
; Line 74
	push	ebp
	mov	ebp, esp
	sub	esp, 196				; 000000c4H
	push	ebx
	push	esi
	push	edi
	lea	edi, DWORD PTR [ebp-196]
	mov	ecx, 49					; 00000031H
	mov	eax, -858993460				; ccccccccH
	rep stosd
	mov	ecx, OFFSET __BFD3F44F_TypedTextDatabase@cpp
	call	@__CheckForDebuggerJustMyCode@4
; Line 75
	movzx	eax, WORD PTR _fontId$[ebp]
	mov	DWORD PTR tv65[ebp], eax
	cmp	DWORD PTR tv65[ebp], 5
	ja	$LN1@resetFont
	mov	ecx, DWORD PTR tv65[ebp]
	jmp	DWORD PTR $LN11@resetFont[ecx*4]
$LN4@resetFont:
; Line 78
	call	?getFont_twenty_seven_regular_91_4bpp@@YAAAVGeneratedFont@touchgfx@@XZ ; getFont_twenty_seven_regular_91_4bpp
	mov	ecx, 4
	imul	edx, ecx, 0
	mov	DWORD PTR ?_fonts@@3PAPBVFont@touchgfx@@A[edx], eax
; Line 79
	jmp	SHORT $LN1@resetFont
$LN5@resetFont:
; Line 81
	call	?getFont_twenty_seven_regular_20_4bpp@@YAAAVGeneratedFont@touchgfx@@XZ ; getFont_twenty_seven_regular_20_4bpp
	mov	ecx, 4
	shl	ecx, 0
	mov	DWORD PTR ?_fonts@@3PAPBVFont@touchgfx@@A[ecx], eax
; Line 82
	jmp	SHORT $LN1@resetFont
$LN6@resetFont:
; Line 84
	call	?getFont_twenty_seven_regular_13_4bpp@@YAAAVGeneratedFont@touchgfx@@XZ ; getFont_twenty_seven_regular_13_4bpp
	mov	ecx, 4
	shl	ecx, 1
	mov	DWORD PTR ?_fonts@@3PAPBVFont@touchgfx@@A[ecx], eax
; Line 85
	jmp	SHORT $LN1@resetFont
$LN7@resetFont:
; Line 87
	call	?getFont_twenty_seven_regular_35_4bpp@@YAAAVGeneratedFont@touchgfx@@XZ ; getFont_twenty_seven_regular_35_4bpp
	mov	ecx, 4
	imul	edx, ecx, 3
	mov	DWORD PTR ?_fonts@@3PAPBVFont@touchgfx@@A[edx], eax
; Line 88
	jmp	SHORT $LN1@resetFont
$LN8@resetFont:
; Line 90
	call	?getFont_digifit_20_4bpp@@YAAAVGeneratedFont@touchgfx@@XZ ; getFont_digifit_20_4bpp
	mov	ecx, 4
	shl	ecx, 2
	mov	DWORD PTR ?_fonts@@3PAPBVFont@touchgfx@@A[ecx], eax
; Line 91
	jmp	SHORT $LN1@resetFont
$LN9@resetFont:
; Line 93
	call	?getFont_verdana_20_4bpp@@YAAAVGeneratedFont@touchgfx@@XZ ; getFont_verdana_20_4bpp
	mov	ecx, 4
	imul	edx, ecx, 5
	mov	DWORD PTR ?_fonts@@3PAPBVFont@touchgfx@@A[edx], eax
$LN1@resetFont:
; Line 96
	pop	edi
	pop	esi
	pop	ebx
	add	esp, 196				; 000000c4H
	cmp	ebp, esp
	call	__RTC_CheckEsp
	mov	esp, ebp
	pop	ebp
	ret	0
	npad	1
$LN11@resetFont:
	DD	$LN4@resetFont
	DD	$LN5@resetFont
	DD	$LN6@resetFont
	DD	$LN7@resetFont
	DD	$LN8@resetFont
	DD	$LN9@resetFont
?resetFont@TypedTextDatabase@@YAXG@Z ENDP		; TypedTextDatabase::resetFont
_TEXT	ENDS
; Function compile flags: /Odtp /RTCsu /ZI
;	COMDAT ?setFont@TypedTextDatabase@@YAPBVFont@touchgfx@@GPBV23@@Z
_TEXT	SEGMENT
_old$ = -8						; size = 4
_fontId$ = 8						; size = 2
_font$ = 12						; size = 4
?setFont@TypedTextDatabase@@YAPBVFont@touchgfx@@GPBV23@@Z PROC ; TypedTextDatabase::setFont, COMDAT
; File C:\TouchGFXProjects\Dashboard\TouchGFX\generated\texts\src\TypedTextDatabase.cpp
; Line 67
	push	ebp
	mov	ebp, esp
	sub	esp, 204				; 000000ccH
	push	ebx
	push	esi
	push	edi
	lea	edi, DWORD PTR [ebp-204]
	mov	ecx, 51					; 00000033H
	mov	eax, -858993460				; ccccccccH
	rep stosd
	mov	ecx, OFFSET __BFD3F44F_TypedTextDatabase@cpp
	call	@__CheckForDebuggerJustMyCode@4
; Line 68
	movzx	eax, WORD PTR _fontId$[ebp]
	mov	ecx, DWORD PTR ?_fonts@@3PAPBVFont@touchgfx@@A[eax*4]
	mov	DWORD PTR _old$[ebp], ecx
; Line 69
	movzx	eax, WORD PTR _fontId$[ebp]
	mov	ecx, DWORD PTR _font$[ebp]
	mov	DWORD PTR ?_fonts@@3PAPBVFont@touchgfx@@A[eax*4], ecx
; Line 70
	mov	eax, DWORD PTR _old$[ebp]
; Line 71
	pop	edi
	pop	esi
	pop	ebx
	add	esp, 204				; 000000ccH
	cmp	ebp, esp
	call	__RTC_CheckEsp
	mov	esp, ebp
	pop	ebp
	ret	0
?setFont@TypedTextDatabase@@YAPBVFont@touchgfx@@GPBV23@@Z ENDP ; TypedTextDatabase::setFont
_TEXT	ENDS
; Function compile flags: /Odtp /RTCsu /ZI
;	COMDAT ?getFonts@TypedTextDatabase@@YAPAPBVFont@touchgfx@@XZ
_TEXT	SEGMENT
?getFonts@TypedTextDatabase@@YAPAPBVFont@touchgfx@@XZ PROC ; TypedTextDatabase::getFonts, COMDAT
; File C:\TouchGFXProjects\Dashboard\TouchGFX\generated\texts\src\TypedTextDatabase.cpp
; Line 62
	push	ebp
	mov	ebp, esp
	sub	esp, 192				; 000000c0H
	push	ebx
	push	esi
	push	edi
	lea	edi, DWORD PTR [ebp-192]
	mov	ecx, 48					; 00000030H
	mov	eax, -858993460				; ccccccccH
	rep stosd
	mov	ecx, OFFSET __BFD3F44F_TypedTextDatabase@cpp
	call	@__CheckForDebuggerJustMyCode@4
; Line 63
	mov	eax, OFFSET ?_fonts@@3PAPBVFont@touchgfx@@A ; _fonts
; Line 64
	pop	edi
	pop	esi
	pop	ebx
	add	esp, 192				; 000000c0H
	cmp	ebp, esp
	call	__RTC_CheckEsp
	mov	esp, ebp
	pop	ebp
	ret	0
?getFonts@TypedTextDatabase@@YAPAPBVFont@touchgfx@@XZ ENDP ; TypedTextDatabase::getFonts
_TEXT	ENDS
; Function compile flags: /Odtp /RTCsu /ZI
;	COMDAT ?getInstance@TypedTextDatabase@@YAPBUTypedTextData@TypedText@touchgfx@@G@Z
_TEXT	SEGMENT
_id$ = 8						; size = 2
?getInstance@TypedTextDatabase@@YAPBUTypedTextData@TypedText@touchgfx@@G@Z PROC ; TypedTextDatabase::getInstance, COMDAT
; File C:\TouchGFXProjects\Dashboard\TouchGFX\generated\texts\src\TypedTextDatabase.cpp
; Line 52
	push	ebp
	mov	ebp, esp
	sub	esp, 192				; 000000c0H
	push	ebx
	push	esi
	push	edi
	lea	edi, DWORD PTR [ebp-192]
	mov	ecx, 48					; 00000030H
	mov	eax, -858993460				; ccccccccH
	rep stosd
	mov	ecx, OFFSET __BFD3F44F_TypedTextDatabase@cpp
	call	@__CheckForDebuggerJustMyCode@4
; Line 53
	movzx	eax, WORD PTR _id$[ebp]
	mov	eax, DWORD PTR ?typedTextDatabaseArray@@3QBQBUTypedTextData@TypedText@touchgfx@@B[eax*4]
; Line 54
	pop	edi
	pop	esi
	pop	ebx
	add	esp, 192				; 000000c0H
	cmp	ebp, esp
	call	__RTC_CheckEsp
	mov	esp, ebp
	pop	ebp
	ret	0
?getInstance@TypedTextDatabase@@YAPBUTypedTextData@TypedText@touchgfx@@G@Z ENDP ; TypedTextDatabase::getInstance
_TEXT	ENDS
END
